   1              		.cpu cortex-a9
   2              		.eabi_attribute 28, 1
   3              		.eabi_attribute 20, 1
   4              		.eabi_attribute 21, 1
   5              		.eabi_attribute 23, 3
   6              		.eabi_attribute 24, 1
   7              		.eabi_attribute 25, 1
   8              		.eabi_attribute 26, 1
   9              		.eabi_attribute 30, 1
  10              		.eabi_attribute 34, 0
  11              		.eabi_attribute 18, 4
  12              		.file	"main.c"
  13              		.text
  14              	.Ltext0:
  15              		.cfi_sections	.debug_frame
  16              		.section	.text.os_main_task_t,"ax",%progbits
  17              		.align	2
  18              		.global	os_main_task_t
  19              		.syntax unified
  20              		.arm
  21              		.fpu neon
  23              	os_main_task_t:
  24              	.LFB4:
  25              		.file 1 "../src/user_prog/main.c"
   1:../src/user_prog/main.c **** /**************************************************************************************************
   2:../src/user_prog/main.c ****  * DISCLAIMER
   3:../src/user_prog/main.c ****  * This software is supplied by Renesas Electronics Corporation and is only intended for use with R
   4:../src/user_prog/main.c ****  * other uses are authorized. This software is owned by Renesas Electronics Corporation and is prot
   5:../src/user_prog/main.c ****  * applicable laws, including copyright laws.
   6:../src/user_prog/main.c ****  * THIS SOFTWARE IS PROVIDED "AS IS" AND RENESAS MAKES NO WARRANTIES REGARDING
   7:../src/user_prog/main.c ****  * THIS SOFTWARE, WHETHER EXPRESS, IMPLIED OR STATUTORY, INCLUDING BUT NOT LIMITED TO WARRANTIES OF
   8:../src/user_prog/main.c ****  * FITNESS FOR A PARTICULAR PURPOSE AND NON-INFRINGEMENT. ALL SUCH WARRANTIES ARE EXPRESSLY DISCLAI
   9:../src/user_prog/main.c ****  * EXTENT PERMITTED NOT PROHIBITED BY LAW, NEITHER RENESAS ELECTRONICS CORPORATION NOR ANY OF ITS A
  10:../src/user_prog/main.c ****  * SHALL BE LIABLE FOR ANY DIRECT, INDIRECT, SPECIAL, INCIDENTAL OR CONSEQUENTIAL DAMAGES FOR ANY R
  11:../src/user_prog/main.c ****  * THIS SOFTWARE, EVEN IF RENESAS OR ITS AFFILIATES HAVE BEEN ADVISED OF THE POSSIBILITY OF SUCH DA
  12:../src/user_prog/main.c ****  * Renesas reserves the right, without notice, to make changes to this software and to discontinue 
  13:../src/user_prog/main.c ****  * this software. By using this software, you agree to the additional terms and conditions found by
  14:../src/user_prog/main.c ****  * following link:
  15:../src/user_prog/main.c ****  * http://www.renesas.com/disclaimer
  16:../src/user_prog/main.c ****  *
  17:../src/user_prog/main.c ****  * Copyright (C) 2019 Renesas Electronics Corporation. All rights reserved.
  18:../src/user_prog/main.c ****  **************************************************************************************************
  19:../src/user_prog/main.c **** /*******************************************************************************
  20:../src/user_prog/main.c **** * File Name    : main.c
  21:../src/user_prog/main.c **** * Device(s)    : RZ/A2M
  22:../src/user_prog/main.c **** * Tool-Chain   : e2Studio Ver 7.4.0
  23:../src/user_prog/main.c **** *              : GNU Arm Embedded Toolchain 6-2017-q2-update
  24:../src/user_prog/main.c **** * OS           : None
  25:../src/user_prog/main.c **** * H/W Platform : RZ/A2M Evaluation Board
  26:../src/user_prog/main.c **** * Description  : RZ/A2M Sample Program - Main
  27:../src/user_prog/main.c **** * Operation    :
  28:../src/user_prog/main.c **** * Limitations  :
  29:../src/user_prog/main.c **** *******************************************************************************/
  30:../src/user_prog/main.c **** /******************************************************************************
  31:../src/user_prog/main.c **** Includes   <System Includes> , "Project Includes"
  32:../src/user_prog/main.c **** ******************************************************************************/
  33:../src/user_prog/main.c **** #include <stdio.h>
  34:../src/user_prog/main.c **** #include <string.h>
  35:../src/user_prog/main.c **** #include <fcntl.h>
  36:../src/user_prog/main.c **** #include <unistd.h>
  37:../src/user_prog/main.c **** 
  38:../src/user_prog/main.c **** #include "r_typedefs.h"
  39:../src/user_prog/main.c **** #include "iodefine.h"
  40:../src/user_prog/main.c **** #include "r_cpg_drv_api.h"
  41:../src/user_prog/main.c **** #include "r_ostm_drv_api.h"
  42:../src/user_prog/main.c **** #include "r_scifa_drv_api.h"
  43:../src/user_prog/main.c **** #include "r_gpio_drv_api.h"
  44:../src/user_prog/main.c **** #include "r_startup_config.h"
  45:../src/user_prog/main.c **** #include "compiler_settings.h"
  46:../src/user_prog/main.c **** #include "main.h"
  47:../src/user_prog/main.c **** #include "r_os_abstraction_api.h"
  48:../src/user_prog/main.c **** #include "r_task_priority.h"
  49:../src/user_prog/main.c **** #include "version.h"
  50:../src/user_prog/main.c **** 
  51:../src/user_prog/main.c **** #include "iodefine.h"
  52:../src/user_prog/main.c **** 
  53:../src/user_prog/main.c **** /******************************************************************************
  54:../src/user_prog/main.c **** Typedef definitions
  55:../src/user_prog/main.c **** ******************************************************************************/
  56:../src/user_prog/main.c **** 
  57:../src/user_prog/main.c **** 
  58:../src/user_prog/main.c **** /******************************************************************************
  59:../src/user_prog/main.c **** Macro definitions
  60:../src/user_prog/main.c **** ******************************************************************************/
  61:../src/user_prog/main.c **** 
  62:../src/user_prog/main.c **** 
  63:../src/user_prog/main.c **** /******************************************************************************
  64:../src/user_prog/main.c **** Imported global variables and functions (from other files)
  65:../src/user_prog/main.c **** ******************************************************************************/
  66:../src/user_prog/main.c **** extern void sample_main(void);
  67:../src/user_prog/main.c **** extern void CreateCuiTask(void);
  68:../src/user_prog/main.c **** 
  69:../src/user_prog/main.c **** /******************************************************************************
  70:../src/user_prog/main.c **** Exported global variables and functions (to be accessed by other files)
  71:../src/user_prog/main.c **** ******************************************************************************/
  72:../src/user_prog/main.c **** 
  73:../src/user_prog/main.c **** /******************************************************************************
  74:../src/user_prog/main.c **** Private global variables and functions
  75:../src/user_prog/main.c **** ******************************************************************************/
  76:../src/user_prog/main.c **** static int_t gs_my_gpio_handle;
  77:../src/user_prog/main.c **** 
  78:../src/user_prog/main.c **** /* Terminal window escape sequences */
  79:../src/user_prog/main.c **** static const char_t * const sp_clear_screen = "\x1b[2J";
  80:../src/user_prog/main.c **** static const char_t * const sp_cursor_home  = "\x1b[H";
  81:../src/user_prog/main.c **** 
  82:../src/user_prog/main.c **** /******************************************************************************
  83:../src/user_prog/main.c **** * Function Name: os_main_task_t
  84:../src/user_prog/main.c **** * Description  : FreeRTOS main task called by R_OS_KernelInit()
  85:../src/user_prog/main.c **** *              : FreeRTOS is now configured and R_OS_Abstraction calls
  86:../src/user_prog/main.c **** *              : can be used.
  87:../src/user_prog/main.c **** *              : From this point forward no longer use direct_xxx calls.
  88:../src/user_prog/main.c **** *              : For example
  89:../src/user_prog/main.c **** *              : in place of   direct_open("ostm2", O_RDWR);
  90:../src/user_prog/main.c **** *              : use           open(DEVICE_INDENTIFIER "ostm2", O_RDWR);
  91:../src/user_prog/main.c **** *              :
  92:../src/user_prog/main.c **** * Arguments    : none
  93:../src/user_prog/main.c **** * Return Value : 0
  94:../src/user_prog/main.c **** ******************************************************************************/
  95:../src/user_prog/main.c **** int_t os_main_task_t(void)
  96:../src/user_prog/main.c **** {
  26              		.loc 1 96 0
  27              		.cfi_startproc
  28              		@ Volatile: function does not return.
  29              		@ args = 0, pretend = 0, frame = 16
  30              		@ frame_needed = 0, uses_anonymous_args = 0
  31 0000 04E02DE5 		str	lr, [sp, #-4]!
  32              		.cfi_def_cfa_offset 4
  33              		.cfi_offset 14, -4
  34 0004 14D04DE2 		sub	sp, sp, #20
  35              		.cfi_def_cfa_offset 24
  97:../src/user_prog/main.c ****     int_t err;
  98:../src/user_prog/main.c ****     st_os_abstraction_info_t ver_info;
  99:../src/user_prog/main.c ****     st_r_drv_gpio_sc_config_t pin_led;
 100:../src/user_prog/main.c **** 
 101:../src/user_prog/main.c ****     /* For information only
 102:../src/user_prog/main.c ****      * Use stdio calls to open drivers once  the kernel is initialised
 103:../src/user_prog/main.c ****      *
 104:../src/user_prog/main.c ****      * ie
 105:../src/user_prog/main.c ****      * int_t ostm3_handle;
 106:../src/user_prog/main.c ****      * ostm3_handle = open (DEVICE_INDENTIFIER "ostm2", O_RDWR);
 107:../src/user_prog/main.c ****      * close (ostm3_handle);
 108:../src/user_prog/main.c ****      */
 109:../src/user_prog/main.c **** 
 110:../src/user_prog/main.c ****     gs_my_gpio_handle = open (DEVICE_INDENTIFIER "gpio", O_RDWR);
  36              		.loc 1 110 0
  37 0008 0210A0E3 		mov	r1, #2
  38 000c 000000E3 		movw	r0, #:lower16:.LC0
  39 0010 000040E3 		movt	r0, #:upper16:.LC0
  40 0014 FEFFFFEB 		bl	open
  41              	.LVL0:
 111:../src/user_prog/main.c **** 
 112:../src/user_prog/main.c ****     /* On error */
 113:../src/user_prog/main.c ****     if ( gs_my_gpio_handle < 0 )
  42              		.loc 1 113 0
  43 0018 000050E3 		cmp	r0, #0
  44 001c 000000AA 		bge	.L2
  45              	.L3:
  46 0020 FEFFFFEA 		b	.L3
  47              	.L2:
 114:../src/user_prog/main.c ****     {
 115:../src/user_prog/main.c ****         /* stop execute */
 116:../src/user_prog/main.c ****         while(1)
 117:../src/user_prog/main.c ****         {
 118:../src/user_prog/main.c ****             /* Do Nothing */
 119:../src/user_prog/main.c ****             ;
 120:../src/user_prog/main.c ****         }
 121:../src/user_prog/main.c ****     }
 122:../src/user_prog/main.c **** 
 123:../src/user_prog/main.c **** 
 124:../src/user_prog/main.c ****     /* ==== Output banner message ==== */
 125:../src/user_prog/main.c ****     printf("%s%s", sp_clear_screen, sp_cursor_home);
  48              		.loc 1 125 0
  49 0024 002000E3 		movw	r2, #:lower16:.LC1
  50 0028 002040E3 		movt	r2, #:upper16:.LC1
  51 002c 001000E3 		movw	r1, #:lower16:.LC2
  52 0030 001040E3 		movt	r1, #:upper16:.LC2
  53 0034 000000E3 		movw	r0, #:lower16:.LC3
  54 0038 000040E3 		movt	r0, #:upper16:.LC3
  55 003c FEFFFFEB 		bl	printf
  56              	.LVL1:
 126:../src/user_prog/main.c ****     printf("RZ/A2M sample for GCC Ver. %u.%u\r\n", APPLICATION_INFO_VERSION, APPLICATION_INFO_RELEA
  57              		.loc 1 126 0
  58 0040 0120A0E3 		mov	r2, #1
  59 0044 0310A0E3 		mov	r1, #3
  60 0048 000000E3 		movw	r0, #:lower16:.LC4
  61 004c 000040E3 		movt	r0, #:upper16:.LC4
  62 0050 FEFFFFEB 		bl	printf
  63              	.LVL2:
 127:../src/user_prog/main.c ****     printf("Copyright (C) 2018 Renesas Electronics Corporation. All rights reserved.\r\n");
  64              		.loc 1 127 0
  65 0054 000000E3 		movw	r0, #:lower16:.LC5
  66 0058 000040E3 		movt	r0, #:upper16:.LC5
  67 005c FEFFFFEB 		bl	puts
  68              	.LVL3:
 128:../src/user_prog/main.c ****     printf("Build Info Date %s at %s \r\n", __DATE__, __TIME__);
  69              		.loc 1 128 0
  70 0060 002000E3 		movw	r2, #:lower16:.LC6
  71 0064 002040E3 		movt	r2, #:upper16:.LC6
  72 0068 001000E3 		movw	r1, #:lower16:.LC7
  73 006c 001040E3 		movt	r1, #:upper16:.LC7
  74 0070 000000E3 		movw	r0, #:lower16:.LC8
  75 0074 000040E3 		movt	r0, #:upper16:.LC8
  76 0078 FEFFFFEB 		bl	printf
  77              	.LVL4:
 129:../src/user_prog/main.c **** 
 130:../src/user_prog/main.c ****     if(R_OS_GetVersion(&ver_info) == 0)
  78              		.loc 1 130 0
  79 007c 04008DE2 		add	r0, sp, #4
  80 0080 FEFFFFEB 		bl	R_OS_GetVersion
  81              	.LVL5:
  82 0084 000050E3 		cmp	r0, #0
  83 0088 0100000A 		beq	.L7
  84              	.L4:
 131:../src/user_prog/main.c ****     {
 132:../src/user_prog/main.c ****         printf("%s Version %d.%d\r\n", ver_info.p_szdriver_name,
 133:../src/user_prog/main.c ****                 ver_info.version.sub.major, ver_info.version.sub.minor);
 134:../src/user_prog/main.c ****     }
 135:../src/user_prog/main.c **** 
 136:../src/user_prog/main.c ****     //CreateCuiTask();
 137:../src/user_prog/main.c ****     sample_main();
  85              		.loc 1 137 0
  86 008c FEFFFFEB 		bl	sample_main
  87              	.LVL6:
  88              	.L5:
  89 0090 FEFFFFEA 		b	.L5
  90              	.L7:
 132:../src/user_prog/main.c ****                 ver_info.version.sub.major, ver_info.version.sub.minor);
  91              		.loc 1 132 0
  92 0094 B430DDE1 		ldrh	r3, [sp, #4]
  93 0098 B620DDE1 		ldrh	r2, [sp, #6]
  94 009c 0C109DE5 		ldr	r1, [sp, #12]
  95 00a0 000000E3 		movw	r0, #:lower16:.LC9
  96 00a4 000040E3 		movt	r0, #:upper16:.LC9
  97 00a8 FEFFFFEB 		bl	printf
  98              	.LVL7:
  99 00ac F6FFFFEA 		b	.L4
 100              		.cfi_endproc
 101              	.LFE4:
 103              		.section	.text.main,"ax",%progbits
 104              		.align	2
 105              		.global	main
 106              		.syntax unified
 107              		.arm
 108              		.fpu neon
 110              	main:
 111              	.LFB5:
 138:../src/user_prog/main.c ****     while(1)
 139:../src/user_prog/main.c ****     {
 140:../src/user_prog/main.c ****         /* Do Nothing */
 141:../src/user_prog/main.c ****         ;
 142:../src/user_prog/main.c ****     }
 143:../src/user_prog/main.c **** }/* End of function os_main_task_t */
 144:../src/user_prog/main.c **** 
 145:../src/user_prog/main.c **** /******************************************************************************
 146:../src/user_prog/main.c **** * Function Name: main
 147:../src/user_prog/main.c **** * Description  : C Entry point
 148:../src/user_prog/main.c **** *              : opens and configures cpg driver
 149:../src/user_prog/main.c **** *              : starts the freertos kernel
 150:../src/user_prog/main.c **** * Arguments    : none
 151:../src/user_prog/main.c **** * Return Value : 0
 152:../src/user_prog/main.c **** ******************************************************************************/
 153:../src/user_prog/main.c **** int_t main(void)
 154:../src/user_prog/main.c **** {
 112              		.loc 1 154 0
 113              		.cfi_startproc
 114              		@ args = 0, pretend = 0, frame = 0
 115              		@ frame_needed = 0, uses_anonymous_args = 0
 116 0000 10402DE9 		push	{r4, lr}
 117              		.cfi_def_cfa_offset 8
 118              		.cfi_offset 4, -8
 119              		.cfi_offset 14, -4
 155:../src/user_prog/main.c ****     int_t cpg_handle;
 156:../src/user_prog/main.c **** 
 157:../src/user_prog/main.c ****     /* configure any drivers that are required before the Kernel initializes */
 158:../src/user_prog/main.c **** 
 159:../src/user_prog/main.c ****     /* Initialize the devlink layer */
 160:../src/user_prog/main.c ****     R_DEVLINK_Init();
 120              		.loc 1 160 0
 121 0004 FEFFFFEB 		bl	R_DEVLINK_Init
 122              	.LVL8:
 161:../src/user_prog/main.c **** 
 162:../src/user_prog/main.c ****     /* Initialize CPG */
 163:../src/user_prog/main.c ****     cpg_handle = direct_open("cpg", 0);
 123              		.loc 1 163 0
 124 0008 0010A0E3 		mov	r1, #0
 125 000c 000000E3 		movw	r0, #:lower16:.LC10
 126 0010 000040E3 		movt	r0, #:upper16:.LC10
 127 0014 FEFFFFEB 		bl	direct_open
 128              	.LVL9:
 164:../src/user_prog/main.c ****     if ( cpg_handle < 0 )
 129              		.loc 1 164 0
 130 0018 000050E3 		cmp	r0, #0
 131 001c 000000AA 		bge	.L9
 132              	.L10:
 133 0020 FEFFFFEA 		b	.L10
 134              	.L9:
 165:../src/user_prog/main.c ****     {
 166:../src/user_prog/main.c ****         /* stop execute */
 167:../src/user_prog/main.c ****         while(1)
 168:../src/user_prog/main.c ****         {
 169:../src/user_prog/main.c ****             /* Do Nothing */
 170:../src/user_prog/main.c ****             ;
 171:../src/user_prog/main.c ****         }
 172:../src/user_prog/main.c ****     }
 173:../src/user_prog/main.c **** 
 174:../src/user_prog/main.c ****     /* Can close handle if no need to change clock after here */
 175:../src/user_prog/main.c ****     direct_close(cpg_handle);
 135              		.loc 1 175 0
 136 0024 FEFFFFEB 		bl	direct_close
 137              	.LVL10:
 176:../src/user_prog/main.c **** 
 177:../src/user_prog/main.c ****     /* Start FreeRTOS */
 178:../src/user_prog/main.c ****     /* R_OS_InitKernel should never return */
 179:../src/user_prog/main.c ****     R_OS_KernelInit();
 138              		.loc 1 179 0
 139 0028 FEFFFFEB 		bl	R_OS_KernelInit
 140              	.LVL11:
 180:../src/user_prog/main.c **** 
 181:../src/user_prog/main.c **** }/* End of function main */
 141              		.loc 1 181 0
 142 002c 0000A0E3 		mov	r0, #0
 143 0030 1080BDE8 		pop	{r4, pc}
 144              		.cfi_endproc
 145              	.LFE5:
 147              		.section	.rodata.main.str1.4,"aMS",%progbits,1
 148              		.align	2
 149              	.LC10:
 150 0000 63706700 		.ascii	"cpg\000"
 151              		.section	.rodata.os_main_task_t.str1.4,"aMS",%progbits,1
 152              		.align	2
 153              	.LC0:
 154 0000 5C5C2E5C 		.ascii	"\\\\.\\gpio\000"
 154      6770696F 
 154      00
 155 0009 000000   		.space	3
 156              	.LC1:
 157 000c 1B5B4800 		.ascii	"\033[H\000"
 158              	.LC2:
 159 0010 1B5B324A 		.ascii	"\033[2J\000"
 159      00
 160 0015 000000   		.space	3
 161              	.LC3:
 162 0018 25732573 		.ascii	"%s%s\000"
 162      00
 163 001d 000000   		.space	3
 164              	.LC4:
 165 0020 525A2F41 		.ascii	"RZ/A2M sample for GCC Ver. %u.%u\015\012\000"
 165      324D2073 
 165      616D706C 
 165      6520666F 
 165      72204743 
 166 0043 00       		.space	1
 167              	.LC5:
 168 0044 436F7079 		.ascii	"Copyright (C) 2018 Renesas Electronics Corporation."
 168      72696768 
 168      74202843 
 168      29203230 
 168      31382052 
 169 0077 20416C6C 		.ascii	" All rights reserved.\015\000"
 169      20726967 
 169      68747320 
 169      72657365 
 169      72766564 
 170 008e 0000     		.space	2
 171              	.LC6:
 172 0090 31353A33 		.ascii	"15:39:00\000"
 172      393A3030 
 172      00
 173 0099 000000   		.space	3
 174              	.LC7:
 175 009c 46656220 		.ascii	"Feb 19 2020\000"
 175      31392032 
 175      30323000 
 176              	.LC8:
 177 00a8 4275696C 		.ascii	"Build Info Date %s at %s \015\012\000"
 177      6420496E 
 177      666F2044 
 177      61746520 
 177      25732061 
 178              	.LC9:
 179 00c4 25732056 		.ascii	"%s Version %d.%d\015\012\000"
 179      65727369 
 179      6F6E2025 
 179      642E2564 
 179      0D0A00
 180              		.text
 181              	.Letext0:
 182              		.file 2 "c:\\program files (x86)\\gnu tools arm embedded\\6 2017-q2-update\\arm-none-eabi\\include
 183              		.file 3 "c:\\program files (x86)\\gnu tools arm embedded\\6 2017-q2-update\\arm-none-eabi\\include
 184              		.file 4 "c:\\program files (x86)\\gnu tools arm embedded\\6 2017-q2-update\\arm-none-eabi\\include
 185              		.file 5 "c:\\program files (x86)\\gnu tools arm embedded\\6 2017-q2-update\\lib\\gcc\\arm-none-eab
 186              		.file 6 "c:\\program files (x86)\\gnu tools arm embedded\\6 2017-q2-update\\arm-none-eabi\\include
 187              		.file 7 "c:\\program files (x86)\\gnu tools arm embedded\\6 2017-q2-update\\arm-none-eabi\\include
 188              		.file 8 "c:\\program files (x86)\\gnu tools arm embedded\\6 2017-q2-update\\arm-none-eabi\\include
 189              		.file 9 "c:\\program files (x86)\\gnu tools arm embedded\\6 2017-q2-update\\arm-none-eabi\\include
 190              		.file 10 "c:\\program files (x86)\\gnu tools arm embedded\\6 2017-q2-update\\arm-none-eabi\\includ
 191              		.file 11 "C:/Users/tle/e2_studio/workspace/rza2m_cam_and_disp_sample_freertos_gcc/generate/system/
 192              		.file 12 "c:\\program files (x86)\\gnu tools arm embedded\\6 2017-q2-update\\arm-none-eabi\\includ
 193              		.file 13 "C:/Users/tle/e2_studio/workspace/rza2m_cam_and_disp_sample_freertos_gcc/generate/system/
 194              		.file 14 "C:/Users/tle/e2_studio/workspace/rza2m_cam_and_disp_sample_freertos_gcc/generate/drivers
 195              		.file 15 "C:/Users/tle/e2_studio/workspace/rza2m_cam_and_disp_sample_freertos_gcc/generate/drivers
 196              		.file 16 "C:/Users/tle/e2_studio/workspace/rza2m_cam_and_disp_sample_freertos_gcc/generate/sc_driv
 197              		.file 17 "C:/Users/tle/e2_studio/workspace/rza2m_cam_and_disp_sample_freertos_gcc/generate/sc_driv
 198              		.file 18 "C:/Users/tle/e2_studio/workspace/rza2m_cam_and_disp_sample_freertos_gcc/generate/drivers
 199              		.file 19 "C:/Users/tle/e2_studio/workspace/rza2m_cam_and_disp_sample_freertos_gcc/generate/drivers
 200              		.file 20 "C:/Users/tle/e2_studio/workspace/rza2m_cam_and_disp_sample_freertos_gcc/generate/os_abst
 201              		.file 21 "C:/Users/tle/e2_studio/workspace/rza2m_cam_and_disp_sample_freertos_gcc/generate/system/
 202              		.file 22 "C:/Users/tle/e2_studio/workspace/rza2m_cam_and_disp_sample_freertos_gcc/generate/os_abst
 203              		.file 23 "c:\\program files (x86)\\gnu tools arm embedded\\6 2017-q2-update\\arm-none-eabi\\includ
 204              		.file 24 "c:\\program files (x86)\\gnu tools arm embedded\\6 2017-q2-update\\arm-none-eabi\\includ
 205              		.file 25 "<built-in>"