   1              		.cpu cortex-a9
   2              		.eabi_attribute 28, 1
   3              		.eabi_attribute 20, 1
   4              		.eabi_attribute 21, 1
   5              		.eabi_attribute 23, 3
   6              		.eabi_attribute 24, 1
   7              		.eabi_attribute 25, 1
   8              		.eabi_attribute 26, 1
   9              		.eabi_attribute 30, 1
  10              		.eabi_attribute 34, 0
  11              		.eabi_attribute 18, 4
  12              		.file	"r_cui_image_adjust.c"
  13              		.text
  14              	.Ltext0:
  15              		.cfi_sections	.debug_frame
  16              		.section	.text.cui_menu_index_get,"ax",%progbits
  17              		.align	2
  18              		.syntax unified
  19              		.arm
  20              		.fpu neon
  22              	cui_menu_index_get:
  23              	.LFB4:
  24              		.file 1 "../src/renesas/application/r_cui_image_adjust.c"
   1:../src/renesas/application/r_cui_image_adjust.c **** /**************************************************************************************************
   2:../src/renesas/application/r_cui_image_adjust.c ****  * DISCLAIMER
   3:../src/renesas/application/r_cui_image_adjust.c ****  * This software is supplied by Renesas Electronics Corporation and is only intended for use with R
   4:../src/renesas/application/r_cui_image_adjust.c ****  * other uses are authorized. This software is owned by Renesas Electronics Corporation and is prot
   5:../src/renesas/application/r_cui_image_adjust.c ****  * applicable laws, including copyright laws.
   6:../src/renesas/application/r_cui_image_adjust.c ****  * THIS SOFTWARE IS PROVIDED "AS IS" AND RENESAS MAKES NO WARRANTIES REGARDING
   7:../src/renesas/application/r_cui_image_adjust.c ****  * THIS SOFTWARE, WHETHER EXPRESS, IMPLIED OR STATUTORY, INCLUDING BUT NOT LIMITED TO WARRANTIES OF
   8:../src/renesas/application/r_cui_image_adjust.c ****  * FITNESS FOR A PARTICULAR PURPOSE AND NON-INFRINGEMENT. ALL SUCH WARRANTIES ARE EXPRESSLY DISCLAI
   9:../src/renesas/application/r_cui_image_adjust.c ****  * EXTENT PERMITTED NOT PROHIBITED BY LAW, NEITHER RENESAS ELECTRONICS CORPORATION NOR ANY OF ITS A
  10:../src/renesas/application/r_cui_image_adjust.c ****  * SHALL BE LIABLE FOR ANY DIRECT, INDIRECT, SPECIAL, INCIDENTAL OR CONSEQUENTIAL DAMAGES FOR ANY R
  11:../src/renesas/application/r_cui_image_adjust.c ****  * THIS SOFTWARE, EVEN IF RENESAS OR ITS AFFILIATES HAVE BEEN ADVISED OF THE POSSIBILITY OF SUCH DA
  12:../src/renesas/application/r_cui_image_adjust.c ****  * Renesas reserves the right, without notice, to make changes to this software and to discontinue 
  13:../src/renesas/application/r_cui_image_adjust.c ****  * this software. By using this software, you agree to the additional terms and conditions found by
  14:../src/renesas/application/r_cui_image_adjust.c ****  * following link:
  15:../src/renesas/application/r_cui_image_adjust.c ****  * http://www.renesas.com/disclaimer
  16:../src/renesas/application/r_cui_image_adjust.c ****  *
  17:../src/renesas/application/r_cui_image_adjust.c ****  * Copyright (C) 2019 Renesas Electronics Corporation. All rights reserved.
  18:../src/renesas/application/r_cui_image_adjust.c ****  **************************************************************************************************
  19:../src/renesas/application/r_cui_image_adjust.c **** /*******************************************************************************
  20:../src/renesas/application/r_cui_image_adjust.c **** * File Name   : r_cui_image_adjust.c
  21:../src/renesas/application/r_cui_image_adjust.c **** * Version     : 1.00 <- Optional as long as history is shown below
  22:../src/renesas/application/r_cui_image_adjust.c **** * Description : This module provides function of register value changing
  23:../src/renesas/application/r_cui_image_adjust.c ****                 regarding image quality adjustment.
  24:../src/renesas/application/r_cui_image_adjust.c **** ******************************************************************************/
  25:../src/renesas/application/r_cui_image_adjust.c **** /*****************************************************************************
  26:../src/renesas/application/r_cui_image_adjust.c **** * History : DD.MM.YYYY Version Description
  27:../src/renesas/application/r_cui_image_adjust.c **** *         : 11.27.2018 1.01 Improved CUI operation (operated with CR data)
  28:../src/renesas/application/r_cui_image_adjust.c **** *         : 09.14.2018 1.00 first version
  29:../src/renesas/application/r_cui_image_adjust.c **** ******************************************************************************/
  30:../src/renesas/application/r_cui_image_adjust.c **** 
  31:../src/renesas/application/r_cui_image_adjust.c **** /******************************************************************************
  32:../src/renesas/application/r_cui_image_adjust.c **** Includes   <System Includes> , "Project Includes"
  33:../src/renesas/application/r_cui_image_adjust.c **** ******************************************************************************/
  34:../src/renesas/application/r_cui_image_adjust.c **** #include <stdio.h>
  35:../src/renesas/application/r_cui_image_adjust.c **** #include <string.h>
  36:../src/renesas/application/r_cui_image_adjust.c **** #include <fcntl.h>
  37:../src/renesas/application/r_cui_image_adjust.c **** #include <iodefine.h>
  38:../src/renesas/application/r_cui_image_adjust.c **** #include "r_typedefs.h"
  39:../src/renesas/application/r_cui_image_adjust.c **** #include "r_cui_image_adjust.h"
  40:../src/renesas/application/r_cui_image_adjust.c **** #include "r_os_abstraction_api.h"
  41:../src/renesas/application/r_cui_image_adjust.c **** 
  42:../src/renesas/application/r_cui_image_adjust.c **** /******************************************************************************
  43:../src/renesas/application/r_cui_image_adjust.c **** Macro definitions
  44:../src/renesas/application/r_cui_image_adjust.c **** ******************************************************************************/
  45:../src/renesas/application/r_cui_image_adjust.c **** #define SDK_PRV_MAX_PRESET_NUM        (5)
  46:../src/renesas/application/r_cui_image_adjust.c **** #define SDK_PRV_KEY_INPUT_BUFF_NUM    (12)
  47:../src/renesas/application/r_cui_image_adjust.c **** 
  48:../src/renesas/application/r_cui_image_adjust.c **** #define SDK_PRV_SHIFT_3BYTES          (24)
  49:../src/renesas/application/r_cui_image_adjust.c **** #define SDK_PRV_SHIFT_2BYTES          (16)
  50:../src/renesas/application/r_cui_image_adjust.c **** #define SDK_PRV_SHIFT_1BYTES          (8)
  51:../src/renesas/application/r_cui_image_adjust.c **** #define SDK_PRV_SHIFT_0BYTES          (0)
  52:../src/renesas/application/r_cui_image_adjust.c **** 
  53:../src/renesas/application/r_cui_image_adjust.c **** #define SDK_PRV_MAX_REG_BIT_VAL_DIGIT (5)
  54:../src/renesas/application/r_cui_image_adjust.c **** 
  55:../src/renesas/application/r_cui_image_adjust.c **** /******************************************************************************
  56:../src/renesas/application/r_cui_image_adjust.c **** Typedef definitions
  57:../src/renesas/application/r_cui_image_adjust.c **** ******************************************************************************/
  58:../src/renesas/application/r_cui_image_adjust.c **** /* register(bit) specification */
  59:../src/renesas/application/r_cui_image_adjust.c **** typedef struct reg
  60:../src/renesas/application/r_cui_image_adjust.c **** {
  61:../src/renesas/application/r_cui_image_adjust.c ****     char_t *             reg_name;    /*  string of register-bit  */ 
  62:../src/renesas/application/r_cui_image_adjust.c ****     volatile uint32_t *  reg_addr;    /*  address of register     */ 
  63:../src/renesas/application/r_cui_image_adjust.c ****     int32_t              reg_min;     /*  Maximum value           */
  64:../src/renesas/application/r_cui_image_adjust.c ****     int32_t              reg_max;     /*  Minimum value           */
  65:../src/renesas/application/r_cui_image_adjust.c ****     int32_t              reg_default; /*  Default value           */
  66:../src/renesas/application/r_cui_image_adjust.c ****     uint32_t             bitshift;    /*  Position of bit         */
  67:../src/renesas/application/r_cui_image_adjust.c ****     uint32_t             bitmask;     /*  Mask value              */
  68:../src/renesas/application/r_cui_image_adjust.c ****     uint32_t             preset[SDK_PRV_MAX_PRESET_NUM]; /*  Preset value            */
  69:../src/renesas/application/r_cui_image_adjust.c **** }st_reg_t;
  70:../src/renesas/application/r_cui_image_adjust.c **** 
  71:../src/renesas/application/r_cui_image_adjust.c **** /* register(set) specification */
  72:../src/renesas/application/r_cui_image_adjust.c **** typedef struct all_reg{
  73:../src/renesas/application/r_cui_image_adjust.c ****     char_t *             reg_name;    /*  string of register-bit  */ 
  74:../src/renesas/application/r_cui_image_adjust.c ****     volatile uint32_t *  reg_addr;    /*  address of register     */ 
  75:../src/renesas/application/r_cui_image_adjust.c ****     int32_t              reg_default; /*  Default value           */
  76:../src/renesas/application/r_cui_image_adjust.c **** }st_all_reg_t;
  77:../src/renesas/application/r_cui_image_adjust.c **** 
  78:../src/renesas/application/r_cui_image_adjust.c **** /* menu specification */
  79:../src/renesas/application/r_cui_image_adjust.c **** typedef struct menu{
  80:../src/renesas/application/r_cui_image_adjust.c ****     uint32_t         stateid;     /*  menu ID                         */
  81:../src/renesas/application/r_cui_image_adjust.c ****     uint32_t         pattern;     /*  Kind of menu                    */
  82:../src/renesas/application/r_cui_image_adjust.c ****     uint32_t         selectnum;   /*  Number of list to move          */
  83:../src/renesas/application/r_cui_image_adjust.c ****     char_t const *   content;     /*  Title string                    */ 
  84:../src/renesas/application/r_cui_image_adjust.c ****     char_t const *   explanation; /*  Explanation string              */ 
  85:../src/renesas/application/r_cui_image_adjust.c ****     char_t const **  selectlist;  /*  Pointer to list string          */ 
  86:../src/renesas/application/r_cui_image_adjust.c ****     st_reg_t const * regstruct;   /*  Pointer to register struct      */ 
  87:../src/renesas/application/r_cui_image_adjust.c ****     uint32_t         regnum;      /*  Number of register struct list  */
  88:../src/renesas/application/r_cui_image_adjust.c **** }st_menu_t;
  89:../src/renesas/application/r_cui_image_adjust.c **** 
  90:../src/renesas/application/r_cui_image_adjust.c **** /* header information attribute specification */
  91:../src/renesas/application/r_cui_image_adjust.c **** typedef enum
  92:../src/renesas/application/r_cui_image_adjust.c **** {
  93:../src/renesas/application/r_cui_image_adjust.c ****     NOT_READ = 0,                                /* No need to read register */
  94:../src/renesas/application/r_cui_image_adjust.c ****     READ_REG                                     /* Need to read register    */
  95:../src/renesas/application/r_cui_image_adjust.c **** }e_header_attribute_t;
  96:../src/renesas/application/r_cui_image_adjust.c **** 
  97:../src/renesas/application/r_cui_image_adjust.c **** /* header information specification */
  98:../src/renesas/application/r_cui_image_adjust.c **** typedef struct header_info
  99:../src/renesas/application/r_cui_image_adjust.c **** {
 100:../src/renesas/application/r_cui_image_adjust.c ****     e_header_attribute_t    attribute;   /* Need to confirm register value or not     */
 101:../src/renesas/application/r_cui_image_adjust.c ****     st_reg_t const *        reg_struct;  /* Pointer to register struct                */  
 102:../src/renesas/application/r_cui_image_adjust.c ****     char_t *                string;      /* String to be output as header information */  
 103:../src/renesas/application/r_cui_image_adjust.c ****     char_t const **      string_sub;     /* Sub string for define macro name          */  
 104:../src/renesas/application/r_cui_image_adjust.c **** }st_header_info_t;
 105:../src/renesas/application/r_cui_image_adjust.c **** 
 106:../src/renesas/application/r_cui_image_adjust.c **** /******************************************************************************
 107:../src/renesas/application/r_cui_image_adjust.c **** Imported global variables and functions (from other files)
 108:../src/renesas/application/r_cui_image_adjust.c **** ******************************************************************************/
 109:../src/renesas/application/r_cui_image_adjust.c **** 
 110:../src/renesas/application/r_cui_image_adjust.c **** /******************************************************************************
 111:../src/renesas/application/r_cui_image_adjust.c **** Exported global variables (to be accessed by other files)
 112:../src/renesas/application/r_cui_image_adjust.c **** ******************************************************************************/
 113:../src/renesas/application/r_cui_image_adjust.c **** 
 114:../src/renesas/application/r_cui_image_adjust.c **** /******************************************************************************
 115:../src/renesas/application/r_cui_image_adjust.c **** Private global variables and functions
 116:../src/renesas/application/r_cui_image_adjust.c **** ******************************************************************************/
 117:../src/renesas/application/r_cui_image_adjust.c **** static uint32_t gs_cur_status; /* current menu */
 118:../src/renesas/application/r_cui_image_adjust.c **** static uint32_t gs_cur_index;  /* index of current_menu[] */
 119:../src/renesas/application/r_cui_image_adjust.c **** 
 120:../src/renesas/application/r_cui_image_adjust.c **** static char_t   gs_key_input_data[SDK_PRV_KEY_INPUT_BUFF_NUM];   /* input data */
 121:../src/renesas/application/r_cui_image_adjust.c **** static uint32_t gs_preset_value[CUI_MAX_MENUID];   /* current chosen setting */
 122:../src/renesas/application/r_cui_image_adjust.c **** 
 123:../src/renesas/application/r_cui_image_adjust.c **** /* Title of menu */
 124:../src/renesas/application/r_cui_image_adjust.c **** static char_t const gs_top_content[]                  = "Display Setting Top Menu";
 125:../src/renesas/application/r_cui_image_adjust.c **** static char_t const gs_bright_content[]               = "Brightness Setting";
 126:../src/renesas/application/r_cui_image_adjust.c **** static char_t const gs_bright_in_content[]            = "Brightness Setting(Input controller)";
 127:../src/renesas/application/r_cui_image_adjust.c **** static char_t const gs_bright_out_content[]           = "Brightness Setting(Output controller)";
 128:../src/renesas/application/r_cui_image_adjust.c **** static char_t const gs_contra_content[]               = "Contrast Setting";
 129:../src/renesas/application/r_cui_image_adjust.c **** static char_t const gs_contra_in_content[]            = "Contrast Setting(Input controller)";
 130:../src/renesas/application/r_cui_image_adjust.c **** static char_t const gs_contra_out_content[]           = "Contrast Setting(Output controller)";
 131:../src/renesas/application/r_cui_image_adjust.c **** static char_t const gs_sharp_content[]                = "Sharpness Setting";
 132:../src/renesas/application/r_cui_image_adjust.c **** static char_t const gs_gamma_content[]                = "Gamma correction";
 133:../src/renesas/application/r_cui_image_adjust.c **** static char_t const gs_dither_content[]               = "Dither Process";
 134:../src/renesas/application/r_cui_image_adjust.c **** static char_t const gs_rotation_content[]             = "Horizontal Mirroring and Rotation";
 135:../src/renesas/application/r_cui_image_adjust.c **** static char_t const gs_all_custom[]                   = "Custom Register Settings";
 136:../src/renesas/application/r_cui_image_adjust.c **** static char_t const gs_all_custom_reg[]               = "Register Setting of the  ";
 137:../src/renesas/application/r_cui_image_adjust.c **** 
 138:../src/renesas/application/r_cui_image_adjust.c **** /* Text string to show what user operate */
 139:../src/renesas/application/r_cui_image_adjust.c **** static char_t const gs_explanation_top_br_co[]        = "Please select the item you want to set.";
 140:../src/renesas/application/r_cui_image_adjust.c **** static char_t const gs_explanation_preset[]           = "Please select preset.";
 141:../src/renesas/application/r_cui_image_adjust.c **** static char_t const gs_explanation_customreg[]        = "Please select the register you want to set
 142:../src/renesas/application/r_cui_image_adjust.c **** static char_t const gs_explanation_custom[]           
 143:../src/renesas/application/r_cui_image_adjust.c ****     = "Please Input Value or Select Item\r\nConfirm by pressing the Enter key.";
 144:../src/renesas/application/r_cui_image_adjust.c **** 
 145:../src/renesas/application/r_cui_image_adjust.c **** /* list of preset */
 146:../src/renesas/application/r_cui_image_adjust.c **** static char_t const * gsp_top_select_list[]           
 147:../src/renesas/application/r_cui_image_adjust.c ****     = { "Brightness","Contrast","Sharpness","Gamma Correction","Dither process","Horizontal Mirrori
 148:../src/renesas/application/r_cui_image_adjust.c **** static char_t const * gsp_controller_select_list[]    
 149:../src/renesas/application/r_cui_image_adjust.c ****     = { "Input controller","Output controller"};
 150:../src/renesas/application/r_cui_image_adjust.c **** static char_t const * gsp_hml_select_list[]           
 151:../src/renesas/application/r_cui_image_adjust.c ****     = { "High","Middle","Low","Default(Hardware Initial Value Refer to the Hardware Manual)","Custo
 152:../src/renesas/application/r_cui_image_adjust.c **** static char_t const * gsp_sharp_select_list[]         
 153:../src/renesas/application/r_cui_image_adjust.c ****     = { "Strong Sharpness","Semi-Strong Sharpness","Weak Sharpness","Default(Sharpness  OFF)","Cust
 154:../src/renesas/application/r_cui_image_adjust.c **** static char_t const * gsp_gamma_select_list[]         
 155:../src/renesas/application/r_cui_image_adjust.c ****     = { "Pattern0","Pattern1","Pattern2","Pattern3","Default(Gamma correction Off)","Custom"};
 156:../src/renesas/application/r_cui_image_adjust.c **** static char_t const * gsp_dither_select_list[]        
 157:../src/renesas/application/r_cui_image_adjust.c ****     = { "Cutoff","Round off","2x2 Pattern Dither","Random Pattern Dither","Default(Cutoff)"};
 158:../src/renesas/application/r_cui_image_adjust.c **** static char_t const * gsp_rotation_select_list[]      
 159:../src/renesas/application/r_cui_image_adjust.c ****     = { "Horizontal Mirroring  ON", "Rotation(180 Degrees)", "Default(Hardware Initial Value Refer 
 160:../src/renesas/application/r_cui_image_adjust.c **** 
 161:../src/renesas/application/r_cui_image_adjust.c **** /* list of param output sub table */
 162:../src/renesas/application/r_cui_image_adjust.c **** static char_t const * gsp_bright_input_mode_list[]    
 163:../src/renesas/application/r_cui_image_adjust.c ****     = {"NOT SUPPORT","NOT SUPPORT","VDC_COLORMTX_YCBCR_GBR","VDC_COLORMTX_YCBCR_YCBCR"};
 164:../src/renesas/application/r_cui_image_adjust.c **** static char_t const * gsp_function_on_off_list[]      
 165:../src/renesas/application/r_cui_image_adjust.c ****     = {"VDC_OFF","VDC_ON"};
 166:../src/renesas/application/r_cui_image_adjust.c **** static char_t const * gsp_median_tap_sel_list []     
 167:../src/renesas/application/r_cui_image_adjust.c ****     = {"VDC_LTI_MDFIL_SEL_ADJ2","VDC_LTI_MDFIL_SEL_ADJ1"};
 168:../src/renesas/application/r_cui_image_adjust.c **** static char_t const * gsp_dither_mode_list []        
 169:../src/renesas/application/r_cui_image_adjust.c ****     = {"VDC_PDTH_MD_TRU","VDC_PDTH_MD_RDOF","VDC_PDTH_MD_2X2","VDC_PDTH_MD_RAND"};
 170:../src/renesas/application/r_cui_image_adjust.c **** 
 171:../src/renesas/application/r_cui_image_adjust.c **** /* registers */
 172:../src/renesas/application/r_cui_image_adjust.c **** 
 173:../src/renesas/application/r_cui_image_adjust.c **** /*  Brightness Setting(Input controller) */
 174:../src/renesas/application/r_cui_image_adjust.c **** static st_reg_t const gs_reg_bright_in[CUI_REGNUM_BRIGHT_IN] =
 175:../src/renesas/application/r_cui_image_adjust.c **** {
 176:../src/renesas/application/r_cui_image_adjust.c ****         /* register string                          register addr                    min     max   
 177:../src/renesas/application/r_cui_image_adjust.c ****     {   "IMGCNT_MTX_YG_ADJ0->IMGCNT_MTX_YG[7:0]",   &VDC6.IMGCNT_MTX_YG_ADJ0.LONG,   0,      255,  
 178:../src/renesas/application/r_cui_image_adjust.c **** };
 179:../src/renesas/application/r_cui_image_adjust.c **** 
 180:../src/renesas/application/r_cui_image_adjust.c **** /*  Brightness Setting(Output controller)   */
 181:../src/renesas/application/r_cui_image_adjust.c **** static st_reg_t const gs_reg_bright_out[CUI_REGNUM_BRIGHT_OUT] =
 182:../src/renesas/application/r_cui_image_adjust.c **** {
 183:../src/renesas/application/r_cui_image_adjust.c ****         /* register string                          register addr                    min     max   
 184:../src/renesas/application/r_cui_image_adjust.c ****     {   "OUT_BRIGHT1->PBRT_G[9:0]",                 &VDC6.OUT_BRIGHT1.LONG,          0,      1023, 
 185:../src/renesas/application/r_cui_image_adjust.c **** ,   {   "OUT_BRIGHT2->PBRT_B[9:0]",                 &VDC6.OUT_BRIGHT2.LONG,          0,      1023, 
 186:../src/renesas/application/r_cui_image_adjust.c **** ,   {   "OUT_BRIGHT2->PBRT_R[9:0]",                 &VDC6.OUT_BRIGHT2.LONG,          0,      1023, 
 187:../src/renesas/application/r_cui_image_adjust.c **** };
 188:../src/renesas/application/r_cui_image_adjust.c **** 
 189:../src/renesas/application/r_cui_image_adjust.c **** /*  Contrast Setting(Input controller)  */
 190:../src/renesas/application/r_cui_image_adjust.c **** static st_reg_t const gs_reg_cont_in[CUI_REGNUM_CONTRAST_IN] =
 191:../src/renesas/application/r_cui_image_adjust.c **** {
 192:../src/renesas/application/r_cui_image_adjust.c ****         /* register string                          register addr                    min     max   
 193:../src/renesas/application/r_cui_image_adjust.c ****     {   "IMGCNT_MTX_YG_ADJ0->IMGCNT_MTX_GG[10:0]",  &VDC6.IMGCNT_MTX_YG_ADJ0.LONG,   -1024,  1023, 
 194:../src/renesas/application/r_cui_image_adjust.c **** };
 195:../src/renesas/application/r_cui_image_adjust.c **** 
 196:../src/renesas/application/r_cui_image_adjust.c **** /*  Contrast Setting(Output controller) */
 197:../src/renesas/application/r_cui_image_adjust.c **** static st_reg_t const gs_reg_cont_out[CUI_REGNUM_CONTRAST_OUT] =
 198:../src/renesas/application/r_cui_image_adjust.c **** {
 199:../src/renesas/application/r_cui_image_adjust.c ****         /* register string                          register addr                    min     max   
 200:../src/renesas/application/r_cui_image_adjust.c ****     {   "OUT_CONTRAST->CONT_G[7:0]",                &VDC6.OUT_CONTRAST.LONG,         0,      255,  
 201:../src/renesas/application/r_cui_image_adjust.c **** ,   {   "OUT_CONTRAST->CONT_B[7:0]",                &VDC6.OUT_CONTRAST.LONG,         0,      255,  
 202:../src/renesas/application/r_cui_image_adjust.c **** ,   {   "OUT_CONTRAST->CONT_R[7:0]",                &VDC6.OUT_CONTRAST.LONG,         0,      255,  
 203:../src/renesas/application/r_cui_image_adjust.c **** };
 204:../src/renesas/application/r_cui_image_adjust.c **** 
 205:../src/renesas/application/r_cui_image_adjust.c **** /*  Sharpness Setting   */
 206:../src/renesas/application/r_cui_image_adjust.c **** static st_reg_t const gs_reg_sharpness[CUI_REGNUM_SHARP] =
 207:../src/renesas/application/r_cui_image_adjust.c **** {
 208:../src/renesas/application/r_cui_image_adjust.c ****         /* register string                          register addr                    min     max   
 209:../src/renesas/application/r_cui_image_adjust.c ****     {   "ADJ0_ENH_SHP1->SHP_H_ON",                  &VDC6.ADJ0_ENH_SHP1.LONG,        0,      1,    
 210:../src/renesas/application/r_cui_image_adjust.c **** ,   {   "ADJ0_ENH_SHP1->SHP_H1_CORE[6:0]",          &VDC6.ADJ0_ENH_SHP1.LONG,        0,      127,  
 211:../src/renesas/application/r_cui_image_adjust.c **** ,   {   "ADJ0_ENH_SHP2->SHP_H1_CLIP_O[7:0]",        &VDC6.ADJ0_ENH_SHP2.LONG,        0,      255,  
 212:../src/renesas/application/r_cui_image_adjust.c **** ,   {   "ADJ0_ENH_SHP2->SHP_H1_CLIP_U[7:0]",        &VDC6.ADJ0_ENH_SHP2.LONG,        0,      255,  
 213:../src/renesas/application/r_cui_image_adjust.c **** ,   {   "ADJ0_ENH_SHP2->SHP_H1_GAIN_O[7:0]",        &VDC6.ADJ0_ENH_SHP2.LONG,        0,      255,  
 214:../src/renesas/application/r_cui_image_adjust.c **** ,   {   "ADJ0_ENH_SHP2->SHP_H1_GAIN_U[7:0]",        &VDC6.ADJ0_ENH_SHP2.LONG,        0,      255,  
 215:../src/renesas/application/r_cui_image_adjust.c **** ,   {   "ADJ0_ENH_SHP3->SHP_H2_LPF_SEL",            &VDC6.ADJ0_ENH_SHP3.LONG,        0,      1,    
 216:../src/renesas/application/r_cui_image_adjust.c **** ,   {   "ADJ0_ENH_SHP3->SHP_H2_CORE[6:0]",          &VDC6.ADJ0_ENH_SHP3.LONG,        0,      127,  
 217:../src/renesas/application/r_cui_image_adjust.c **** ,   {   "ADJ0_ENH_SHP4->SHP_H2_CLIP_O[7:0]",        &VDC6.ADJ0_ENH_SHP4.LONG,        0,      255,  
 218:../src/renesas/application/r_cui_image_adjust.c **** ,   {   "ADJ0_ENH_SHP4->SHP_H2_CLIP_U[7:0]",        &VDC6.ADJ0_ENH_SHP4.LONG,        0,      255,  
 219:../src/renesas/application/r_cui_image_adjust.c **** ,   {   "ADJ0_ENH_SHP4->SHP_H2_GAIN_O[7:0]",        &VDC6.ADJ0_ENH_SHP4.LONG,        0,      255,  
 220:../src/renesas/application/r_cui_image_adjust.c **** ,   {   "ADJ0_ENH_SHP4->SHP_H2_GAIN_U[7:0]",        &VDC6.ADJ0_ENH_SHP4.LONG,        0,      255,  
 221:../src/renesas/application/r_cui_image_adjust.c **** ,   {   "ADJ0_ENH_SHP5->SHP_H3_CORE[6:0]",          &VDC6.ADJ0_ENH_SHP5.LONG,        0,      127,  
 222:../src/renesas/application/r_cui_image_adjust.c **** ,   {   "ADJ0_ENH_SHP6->SHP_H3_CLIP_O[7:0]",        &VDC6.ADJ0_ENH_SHP6.LONG,        0,      255,  
 223:../src/renesas/application/r_cui_image_adjust.c **** ,   {   "ADJ0_ENH_SHP6->SHP_H3_CLIP_U[7:0]",        &VDC6.ADJ0_ENH_SHP6.LONG,        0,      255,  
 224:../src/renesas/application/r_cui_image_adjust.c **** ,   {   "ADJ0_ENH_SHP6->SHP_H3_GAIN_O[7:0]",        &VDC6.ADJ0_ENH_SHP6.LONG,        0,      255,  
 225:../src/renesas/application/r_cui_image_adjust.c **** ,   {   "ADJ0_ENH_SHP6->SHP_H3_GAIN_U[7:0]",        &VDC6.ADJ0_ENH_SHP6.LONG,        0,      255,  
 226:../src/renesas/application/r_cui_image_adjust.c **** ,   {   "ADJ0_ENH_LTI1->LTI_H_ON",                  &VDC6.ADJ0_ENH_LTI1.LONG,        0,      1,    
 227:../src/renesas/application/r_cui_image_adjust.c **** ,   {   "ADJ0_ENH_LTI1->LTI_H2_LPF_SEL",            &VDC6.ADJ0_ENH_LTI1.LONG,        0,      1,    
 228:../src/renesas/application/r_cui_image_adjust.c **** ,   {   "ADJ0_ENH_LTI1->LTI_H2_INC_ZERO[7:0]",      &VDC6.ADJ0_ENH_LTI1.LONG,        0,      255,  
 229:../src/renesas/application/r_cui_image_adjust.c **** ,   {   "ADJ0_ENH_LTI1->LTI_H2_GAIN[7:0]",          &VDC6.ADJ0_ENH_LTI1.LONG,        0,      255,  
 230:../src/renesas/application/r_cui_image_adjust.c **** ,   {   "ADJ0_ENH_LTI1->LTI_H2_CORE[7:0]",          &VDC6.ADJ0_ENH_LTI1.LONG,        0,      255,  
 231:../src/renesas/application/r_cui_image_adjust.c **** ,   {   "ADJ0_ENH_LTI2->LTI_H4_MEDIAN_TAP_SEL",     &VDC6.ADJ0_ENH_LTI2.LONG,        0,      1,    
 232:../src/renesas/application/r_cui_image_adjust.c **** ,   {   "ADJ0_ENH_LTI2->LTI_H4_INC_ZERO[7:0]",      &VDC6.ADJ0_ENH_LTI2.LONG,        0,      255,  
 233:../src/renesas/application/r_cui_image_adjust.c **** ,   {   "ADJ0_ENH_LTI2->LTI_H4_GAIN[7:0]",          &VDC6.ADJ0_ENH_LTI2.LONG,        0,      255,  
 234:../src/renesas/application/r_cui_image_adjust.c **** ,   {   "ADJ0_ENH_LTI2->LTI_H4_CORE[7:0]",          &VDC6.ADJ0_ENH_LTI2.LONG,        0,      255,  
 235:../src/renesas/application/r_cui_image_adjust.c **** };
 236:../src/renesas/application/r_cui_image_adjust.c **** 
 237:../src/renesas/application/r_cui_image_adjust.c **** /*  Gamma correction    */
 238:../src/renesas/application/r_cui_image_adjust.c **** static st_reg_t const gs_reg_gamma[CUI_REGNUM_GAMMA] =
 239:../src/renesas/application/r_cui_image_adjust.c **** {
 240:../src/renesas/application/r_cui_image_adjust.c ****         /* register string                          register addr                    min     max   
 241:../src/renesas/application/r_cui_image_adjust.c ****     {   "GAM_SW->AM_ON",                            &VDC6.GAM_SW.LONG,               0,      1,    
 242:../src/renesas/application/r_cui_image_adjust.c **** ,   {   "GAM_G_AREA1->GAM_G_TH_01[7:0]",            &VDC6.GAM_G_AREA1.LONG,          0,      255,  
 243:../src/renesas/application/r_cui_image_adjust.c **** ,   {   "GAM_G_AREA1->GAM_G_TH_02[7:0]",            &VDC6.GAM_G_AREA1.LONG,          0,      255,  
 244:../src/renesas/application/r_cui_image_adjust.c **** ,   {   "GAM_G_AREA1->GAM_G_TH_03[7:0]",            &VDC6.GAM_G_AREA1.LONG,          0,      255,  
 245:../src/renesas/application/r_cui_image_adjust.c **** ,   {   "GAM_G_AREA2->GAM_G_TH_04[7:0]",            &VDC6.GAM_G_AREA2.LONG,          0,      255,  
 246:../src/renesas/application/r_cui_image_adjust.c **** ,   {   "GAM_G_AREA2->GAM_G_TH_05[7:0]",            &VDC6.GAM_G_AREA2.LONG,          0,      255,  
 247:../src/renesas/application/r_cui_image_adjust.c **** ,   {   "GAM_G_AREA2->GAM_G_TH_06[7:0]",            &VDC6.GAM_G_AREA2.LONG,          0,      255,  
 248:../src/renesas/application/r_cui_image_adjust.c **** ,   {   "GAM_G_AREA2->GAM_G_TH_07[7:0]",            &VDC6.GAM_G_AREA2.LONG,          0,      255,  
 249:../src/renesas/application/r_cui_image_adjust.c **** ,   {   "GAM_G_AREA3->GAM_G_TH_08[7:0]",            &VDC6.GAM_G_AREA3.LONG,          0,      255,  
 250:../src/renesas/application/r_cui_image_adjust.c **** ,   {   "GAM_G_AREA3->GAM_G_TH_09[7:0]",            &VDC6.GAM_G_AREA3.LONG,          0,      255,  
 251:../src/renesas/application/r_cui_image_adjust.c **** ,   {   "GAM_G_AREA3->GAM_G_TH_10[7:0]",            &VDC6.GAM_G_AREA3.LONG,          0,      255,  
 252:../src/renesas/application/r_cui_image_adjust.c **** ,   {   "GAM_G_AREA3->GAM_G_TH_11[7:0]",            &VDC6.GAM_G_AREA3.LONG,          0,      255,  
 253:../src/renesas/application/r_cui_image_adjust.c **** ,   {   "GAM_G_AREA4->GAM_G_TH_12[7:0]",            &VDC6.GAM_G_AREA4.LONG,          0,      255,  
 254:../src/renesas/application/r_cui_image_adjust.c **** ,   {   "GAM_G_AREA4->GAM_G_TH_13[7:0]",            &VDC6.GAM_G_AREA4.LONG,          0,      255,  
 255:../src/renesas/application/r_cui_image_adjust.c **** ,   {   "GAM_G_AREA4->GAM_G_TH_14[7:0]",            &VDC6.GAM_G_AREA4.LONG,          0,      255,  
 256:../src/renesas/application/r_cui_image_adjust.c **** ,   {   "GAM_G_AREA4->GAM_G_TH_15[7:0]",            &VDC6.GAM_G_AREA4.LONG,          0,      255,  
 257:../src/renesas/application/r_cui_image_adjust.c **** ,   {   "GAM_G_AREA5->GAM_G_TH_16[7:0]",            &VDC6.GAM_G_AREA5.LONG,          0,      255,  
 258:../src/renesas/application/r_cui_image_adjust.c **** ,   {   "GAM_G_AREA5->GAM_G_TH_17[7:0]",            &VDC6.GAM_G_AREA5.LONG,          0,      255,  
 259:../src/renesas/application/r_cui_image_adjust.c **** ,   {   "GAM_G_AREA5->GAM_G_TH_18[7:0]",            &VDC6.GAM_G_AREA5.LONG,          0,      255,  
 260:../src/renesas/application/r_cui_image_adjust.c **** ,   {   "GAM_G_AREA5->GAM_G_TH_19[7:0]",            &VDC6.GAM_G_AREA5.LONG,          0,      255,  
 261:../src/renesas/application/r_cui_image_adjust.c **** ,   {   "GAM_G_AREA6->GAM_G_TH_20[7:0]",            &VDC6.GAM_G_AREA6.LONG,          0,      255,  
 262:../src/renesas/application/r_cui_image_adjust.c **** ,   {   "GAM_G_AREA6->GAM_G_TH_21[7:0]",            &VDC6.GAM_G_AREA6.LONG,          0,      255,  
 263:../src/renesas/application/r_cui_image_adjust.c **** ,   {   "GAM_G_AREA6->GAM_G_TH_22[7:0]",            &VDC6.GAM_G_AREA6.LONG,          0,      255,  
 264:../src/renesas/application/r_cui_image_adjust.c **** ,   {   "GAM_G_AREA6->GAM_G_TH_23[7:0]",            &VDC6.GAM_G_AREA6.LONG,          0,      255,  
 265:../src/renesas/application/r_cui_image_adjust.c **** ,   {   "GAM_G_AREA7->GAM_G_TH_24[7:0]",            &VDC6.GAM_G_AREA7.LONG,          0,      255,  
 266:../src/renesas/application/r_cui_image_adjust.c **** ,   {   "GAM_G_AREA7->GAM_G_TH_25[7:0]",            &VDC6.GAM_G_AREA7.LONG,          0,      255,  
 267:../src/renesas/application/r_cui_image_adjust.c **** ,   {   "GAM_G_AREA7->GAM_G_TH_26[7:0]",            &VDC6.GAM_G_AREA7.LONG,          0,      255,  
 268:../src/renesas/application/r_cui_image_adjust.c **** ,   {   "GAM_G_AREA7->GAM_G_TH_27[7:0]",            &VDC6.GAM_G_AREA7.LONG,          0,      255,  
 269:../src/renesas/application/r_cui_image_adjust.c **** ,   {   "GAM_G_AREA8->GAM_G_TH_28[7:0]",            &VDC6.GAM_G_AREA8.LONG,          0,      255,  
 270:../src/renesas/application/r_cui_image_adjust.c **** ,   {   "GAM_G_AREA8->GAM_G_TH_29[7:0]",            &VDC6.GAM_G_AREA8.LONG,          0,      255,  
 271:../src/renesas/application/r_cui_image_adjust.c **** ,   {   "GAM_G_AREA8->GAM_G_TH_30[7:0]",            &VDC6.GAM_G_AREA8.LONG,          0,      255,  
 272:../src/renesas/application/r_cui_image_adjust.c **** ,   {   "GAM_G_AREA8->GAM_G_TH_31[7:0]",            &VDC6.GAM_G_AREA8.LONG,          0,      255,  
 273:../src/renesas/application/r_cui_image_adjust.c **** ,   {   "GAM_G_LUT1->GAM_G_GAIN_00[10:0]",          &VDC6.GAM_G_LUT1.LONG,           0,      2047, 
 274:../src/renesas/application/r_cui_image_adjust.c **** ,   {   "GAM_G_LUT1->GAM_G_GAIN_01[10:0]",          &VDC6.GAM_G_LUT1.LONG,           0,      2047, 
 275:../src/renesas/application/r_cui_image_adjust.c **** ,   {   "GAM_G_LUT2->GAM_G_GAIN_02[10:0]",          &VDC6.GAM_G_LUT2.LONG,           0,      2047, 
 276:../src/renesas/application/r_cui_image_adjust.c **** ,   {   "GAM_G_LUT2->GAM_G_GAIN_03[10:0]",          &VDC6.GAM_G_LUT2.LONG,           0,      2047, 
 277:../src/renesas/application/r_cui_image_adjust.c **** ,   {   "GAM_G_LUT3->GAM_G_GAIN_04[10:0]",          &VDC6.GAM_G_LUT3.LONG,           0,      2047, 
 278:../src/renesas/application/r_cui_image_adjust.c **** ,   {   "GAM_G_LUT3->GAM_G_GAIN_05[10:0]",          &VDC6.GAM_G_LUT3.LONG,           0,      2047, 
 279:../src/renesas/application/r_cui_image_adjust.c **** ,   {   "GAM_G_LUT4->GAM_G_GAIN_06[10:0]",          &VDC6.GAM_G_LUT4.LONG,           0,      2047, 
 280:../src/renesas/application/r_cui_image_adjust.c **** ,   {   "GAM_G_LUT4->GAM_G_GAIN_07[10:0]",          &VDC6.GAM_G_LUT4.LONG,           0,      2047, 
 281:../src/renesas/application/r_cui_image_adjust.c **** ,   {   "GAM_G_LUT5->GAM_G_GAIN_08[10:0]",          &VDC6.GAM_G_LUT5.LONG,           0,      2047, 
 282:../src/renesas/application/r_cui_image_adjust.c **** ,   {   "GAM_G_LUT5->GAM_G_GAIN_09[10:0]",          &VDC6.GAM_G_LUT5.LONG,           0,      2047, 
 283:../src/renesas/application/r_cui_image_adjust.c **** ,   {   "GAM_G_LUT6->GAM_G_GAIN_10[10:0]",          &VDC6.GAM_G_LUT6.LONG,           0,      2047, 
 284:../src/renesas/application/r_cui_image_adjust.c **** ,   {   "GAM_G_LUT6->GAM_G_GAIN_11[10:0]",          &VDC6.GAM_G_LUT6.LONG,           0,      2047, 
 285:../src/renesas/application/r_cui_image_adjust.c **** ,   {   "GAM_G_LUT7->GAM_G_GAIN_12[10:0]",          &VDC6.GAM_G_LUT7.LONG,           0,      2047, 
 286:../src/renesas/application/r_cui_image_adjust.c **** ,   {   "GAM_G_LUT7->GAM_G_GAIN_13[10:0]",          &VDC6.GAM_G_LUT7.LONG,           0,      2047, 
 287:../src/renesas/application/r_cui_image_adjust.c **** ,   {   "GAM_G_LUT8->GAM_G_GAIN_14[10:0]",          &VDC6.GAM_G_LUT8.LONG,           0,      2047, 
 288:../src/renesas/application/r_cui_image_adjust.c **** ,   {   "GAM_G_LUT8->GAM_G_GAIN_15[10:0]",          &VDC6.GAM_G_LUT8.LONG,           0,      2047, 
 289:../src/renesas/application/r_cui_image_adjust.c **** ,   {   "GAM_G_LUT9->GAM_G_GAIN_16[10:0]",          &VDC6.GAM_G_LUT9.LONG,           0,      2047, 
 290:../src/renesas/application/r_cui_image_adjust.c **** ,   {   "GAM_G_LUT9->GAM_G_GAIN_17[10:0]",          &VDC6.GAM_G_LUT9.LONG,           0,      2047, 
 291:../src/renesas/application/r_cui_image_adjust.c **** ,   {   "GAM_G_LUT10->GAM_G_GAIN_18[10:0]",         &VDC6.GAM_G_LUT10.LONG,          0,      2047, 
 292:../src/renesas/application/r_cui_image_adjust.c **** ,   {   "GAM_G_LUT10->GAM_G_GAIN_19[10:0]",         &VDC6.GAM_G_LUT10.LONG,          0,      2047, 
 293:../src/renesas/application/r_cui_image_adjust.c **** ,   {   "GAM_G_LUT11->GAM_G_GAIN_20[10:0]",         &VDC6.GAM_G_LUT11.LONG,          0,      2047, 
 294:../src/renesas/application/r_cui_image_adjust.c **** ,   {   "GAM_G_LUT11->GAM_G_GAIN_21[10:0]",         &VDC6.GAM_G_LUT11.LONG,          0,      2047, 
 295:../src/renesas/application/r_cui_image_adjust.c **** ,   {   "GAM_G_LUT12->GAM_G_GAIN_22[10:0]",         &VDC6.GAM_G_LUT12.LONG,          0,      2047, 
 296:../src/renesas/application/r_cui_image_adjust.c **** ,   {   "GAM_G_LUT12->GAM_G_GAIN_23[10:0]",         &VDC6.GAM_G_LUT12.LONG,          0,      2047, 
 297:../src/renesas/application/r_cui_image_adjust.c **** ,   {   "GAM_G_LUT13->GAM_G_GAIN_24[10:0]",         &VDC6.GAM_G_LUT13.LONG,          0,      2047, 
 298:../src/renesas/application/r_cui_image_adjust.c **** ,   {   "GAM_G_LUT13->GAM_G_GAIN_25[10:0]",         &VDC6.GAM_G_LUT13.LONG,          0,      2047, 
 299:../src/renesas/application/r_cui_image_adjust.c **** ,   {   "GAM_G_LUT14->GAM_G_GAIN_26[10:0]",         &VDC6.GAM_G_LUT14.LONG,          0,      2047, 
 300:../src/renesas/application/r_cui_image_adjust.c **** ,   {   "GAM_G_LUT14->GAM_G_GAIN_27[10:0]",         &VDC6.GAM_G_LUT14.LONG,          0,      2047, 
 301:../src/renesas/application/r_cui_image_adjust.c **** ,   {   "GAM_G_LUT15->GAM_G_GAIN_28[10:0]",         &VDC6.GAM_G_LUT15.LONG,          0,      2047, 
 302:../src/renesas/application/r_cui_image_adjust.c **** ,   {   "GAM_G_LUT15->GAM_G_GAIN_29[10:0]",         &VDC6.GAM_G_LUT15.LONG,          0,      2047, 
 303:../src/renesas/application/r_cui_image_adjust.c **** ,   {   "GAM_G_LUT16->GAM_G_GAIN_30[10:0]",         &VDC6.GAM_G_LUT16.LONG,          0,      2047, 
 304:../src/renesas/application/r_cui_image_adjust.c **** ,   {   "GAM_G_LUT16->GAM_G_GAIN_31[10:0]",         &VDC6.GAM_G_LUT16.LONG,          0,      2047, 
 305:../src/renesas/application/r_cui_image_adjust.c **** ,   {   "GAM_B_AREA1->GAM_B_TH_01[7:0]",            &VDC6.GAM_B_AREA1.LONG,          0,      255,  
 306:../src/renesas/application/r_cui_image_adjust.c **** ,   {   "GAM_B_AREA1->GAM_B_TH_02[7:0]",            &VDC6.GAM_B_AREA1.LONG,          0,      255,  
 307:../src/renesas/application/r_cui_image_adjust.c **** ,   {   "GAM_B_AREA1->GAM_B_TH_03[7:0]",            &VDC6.GAM_B_AREA1.LONG,          0,      255,  
 308:../src/renesas/application/r_cui_image_adjust.c **** ,   {   "GAM_B_AREA2->GAM_B_TH_04[7:0]",            &VDC6.GAM_B_AREA2.LONG,          0,      255,  
 309:../src/renesas/application/r_cui_image_adjust.c **** ,   {   "GAM_B_AREA2->GAM_B_TH_05[7:0]",            &VDC6.GAM_B_AREA2.LONG,          0,      255,  
 310:../src/renesas/application/r_cui_image_adjust.c **** ,   {   "GAM_B_AREA2->GAM_B_TH_06[7:0]",            &VDC6.GAM_B_AREA2.LONG,          0,      255,  
 311:../src/renesas/application/r_cui_image_adjust.c **** ,   {   "GAM_B_AREA2->GAM_B_TH_07[7:0]",            &VDC6.GAM_B_AREA2.LONG,          0,      255,  
 312:../src/renesas/application/r_cui_image_adjust.c **** ,   {   "GAM_B_AREA3->GAM_B_TH_08[7:0]",            &VDC6.GAM_B_AREA3.LONG,          0,      255,  
 313:../src/renesas/application/r_cui_image_adjust.c **** ,   {   "GAM_B_AREA3->GAM_B_TH_09[7:0]",            &VDC6.GAM_B_AREA3.LONG,          0,      255,  
 314:../src/renesas/application/r_cui_image_adjust.c **** ,   {   "GAM_B_AREA3->GAM_B_TH_10[7:0]",            &VDC6.GAM_B_AREA3.LONG,          0,      255,  
 315:../src/renesas/application/r_cui_image_adjust.c **** ,   {   "GAM_B_AREA3->GAM_B_TH_11[7:0]",            &VDC6.GAM_B_AREA3.LONG,          0,      255,  
 316:../src/renesas/application/r_cui_image_adjust.c **** ,   {   "GAM_B_AREA4->GAM_B_TH_12[7:0]",            &VDC6.GAM_B_AREA4.LONG,          0,      255,  
 317:../src/renesas/application/r_cui_image_adjust.c **** ,   {   "GAM_B_AREA4->GAM_B_TH_13[7:0]",            &VDC6.GAM_B_AREA4.LONG,          0,      255,  
 318:../src/renesas/application/r_cui_image_adjust.c **** ,   {   "GAM_B_AREA4->GAM_B_TH_14[7:0]",            &VDC6.GAM_B_AREA4.LONG,          0,      255,  
 319:../src/renesas/application/r_cui_image_adjust.c **** ,   {   "GAM_B_AREA4->GAM_B_TH_15[7:0]",            &VDC6.GAM_B_AREA4.LONG,          0,      255,  
 320:../src/renesas/application/r_cui_image_adjust.c **** ,   {   "GAM_B_AREA5->GAM_B_TH_16[7:0]",            &VDC6.GAM_B_AREA5.LONG,          0,      255,  
 321:../src/renesas/application/r_cui_image_adjust.c **** ,   {   "GAM_B_AREA5->GAM_B_TH_17[7:0]",            &VDC6.GAM_B_AREA5.LONG,          0,      255,  
 322:../src/renesas/application/r_cui_image_adjust.c **** ,   {   "GAM_B_AREA5->GAM_B_TH_18[7:0]",            &VDC6.GAM_B_AREA5.LONG,          0,      255,  
 323:../src/renesas/application/r_cui_image_adjust.c **** ,   {   "GAM_B_AREA5->GAM_B_TH_19[7:0]",            &VDC6.GAM_B_AREA5.LONG,          0,      255,  
 324:../src/renesas/application/r_cui_image_adjust.c **** ,   {   "GAM_B_AREA6->GAM_B_TH_20[7:0]",            &VDC6.GAM_B_AREA6.LONG,          0,      255,  
 325:../src/renesas/application/r_cui_image_adjust.c **** ,   {   "GAM_B_AREA6->GAM_B_TH_21[7:0]",            &VDC6.GAM_B_AREA6.LONG,          0,      255,  
 326:../src/renesas/application/r_cui_image_adjust.c **** ,   {   "GAM_B_AREA6->GAM_B_TH_22[7:0]",            &VDC6.GAM_B_AREA6.LONG,          0,      255,  
 327:../src/renesas/application/r_cui_image_adjust.c **** ,   {   "GAM_B_AREA6->GAM_B_TH_23[7:0]",            &VDC6.GAM_B_AREA6.LONG,          0,      255,  
 328:../src/renesas/application/r_cui_image_adjust.c **** ,   {   "GAM_B_AREA7->GAM_B_TH_24[7:0]",            &VDC6.GAM_B_AREA7.LONG,          0,      255,  
 329:../src/renesas/application/r_cui_image_adjust.c **** ,   {   "GAM_B_AREA7->GAM_B_TH_25[7:0]",            &VDC6.GAM_B_AREA7.LONG,          0,      255,  
 330:../src/renesas/application/r_cui_image_adjust.c **** ,   {   "GAM_B_AREA7->GAM_B_TH_26[7:0]",            &VDC6.GAM_B_AREA7.LONG,          0,      255,  
 331:../src/renesas/application/r_cui_image_adjust.c **** ,   {   "GAM_B_AREA7->GAM_B_TH_27[7:0]",            &VDC6.GAM_B_AREA7.LONG,          0,      255,  
 332:../src/renesas/application/r_cui_image_adjust.c **** ,   {   "GAM_B_AREA8->GAM_B_TH_28[7:0]",            &VDC6.GAM_B_AREA8.LONG,          0,      255,  
 333:../src/renesas/application/r_cui_image_adjust.c **** ,   {   "GAM_B_AREA8->GAM_B_TH_29[7:0]",            &VDC6.GAM_B_AREA8.LONG,          0,      255,  
 334:../src/renesas/application/r_cui_image_adjust.c **** ,   {   "GAM_B_AREA8->GAM_B_TH_30[7:0]",            &VDC6.GAM_B_AREA8.LONG,          0,      255,  
 335:../src/renesas/application/r_cui_image_adjust.c **** ,   {   "GAM_B_AREA8->GAM_B_TH_31[7:0]",            &VDC6.GAM_B_AREA8.LONG,          0,      255,  
 336:../src/renesas/application/r_cui_image_adjust.c **** ,   {   "GAM_B_LUT1->GAM_B_GAIN_00[10:0]",          &VDC6.GAM_B_LUT1.LONG,           0,      2047, 
 337:../src/renesas/application/r_cui_image_adjust.c **** ,   {   "GAM_B_LUT1->GAM_B_GAIN_01[10:0]",          &VDC6.GAM_B_LUT1.LONG,           0,      2047, 
 338:../src/renesas/application/r_cui_image_adjust.c **** ,   {   "GAM_B_LUT2->GAM_B_GAIN_02[10:0]",          &VDC6.GAM_B_LUT2.LONG,           0,      2047, 
 339:../src/renesas/application/r_cui_image_adjust.c **** ,   {   "GAM_B_LUT2->GAM_B_GAIN_03[10:0]",          &VDC6.GAM_B_LUT2.LONG,           0,      2047, 
 340:../src/renesas/application/r_cui_image_adjust.c **** ,   {   "GAM_B_LUT3->GAM_B_GAIN_04[10:0]",          &VDC6.GAM_B_LUT3.LONG,           0,      2047, 
 341:../src/renesas/application/r_cui_image_adjust.c **** ,   {   "GAM_B_LUT3->GAM_B_GAIN_05[10:0]",          &VDC6.GAM_B_LUT3.LONG,           0,      2047, 
 342:../src/renesas/application/r_cui_image_adjust.c **** ,   {   "GAM_B_LUT4->GAM_B_GAIN_06[10:0]",          &VDC6.GAM_B_LUT4.LONG,           0,      2047, 
 343:../src/renesas/application/r_cui_image_adjust.c **** ,   {   "GAM_B_LUT4->GAM_B_GAIN_07[10:0]",          &VDC6.GAM_B_LUT4.LONG,           0,      2047, 
 344:../src/renesas/application/r_cui_image_adjust.c **** ,   {   "GAM_B_LUT5->GAM_B_GAIN_08[10:0]",          &VDC6.GAM_B_LUT5.LONG,           0,      2047, 
 345:../src/renesas/application/r_cui_image_adjust.c **** ,   {   "GAM_B_LUT5->GAM_B_GAIN_09[10:0]",          &VDC6.GAM_B_LUT5.LONG,           0,      2047, 
 346:../src/renesas/application/r_cui_image_adjust.c **** ,   {   "GAM_B_LUT6->GAM_B_GAIN_10[10:0]",          &VDC6.GAM_B_LUT6.LONG,           0,      2047, 
 347:../src/renesas/application/r_cui_image_adjust.c **** ,   {   "GAM_B_LUT6->GAM_B_GAIN_11[10:0]",          &VDC6.GAM_B_LUT6.LONG,           0,      2047, 
 348:../src/renesas/application/r_cui_image_adjust.c **** ,   {   "GAM_B_LUT7->GAM_B_GAIN_12[10:0]",          &VDC6.GAM_B_LUT7.LONG,           0,      2047, 
 349:../src/renesas/application/r_cui_image_adjust.c **** ,   {   "GAM_B_LUT7->GAM_B_GAIN_13[10:0]",          &VDC6.GAM_B_LUT7.LONG,           0,      2047, 
 350:../src/renesas/application/r_cui_image_adjust.c **** ,   {   "GAM_B_LUT8->GAM_B_GAIN_14[10:0]",          &VDC6.GAM_B_LUT8.LONG,           0,      2047, 
 351:../src/renesas/application/r_cui_image_adjust.c **** ,   {   "GAM_B_LUT8->GAM_B_GAIN_15[10:0]",          &VDC6.GAM_B_LUT8.LONG,           0,      2047, 
 352:../src/renesas/application/r_cui_image_adjust.c **** ,   {   "GAM_B_LUT9->GAM_B_GAIN_16[10:0]",          &VDC6.GAM_B_LUT9.LONG,           0,      2047, 
 353:../src/renesas/application/r_cui_image_adjust.c **** ,   {   "GAM_B_LUT9->GAM_B_GAIN_17[10:0]",          &VDC6.GAM_B_LUT9.LONG,           0,      2047, 
 354:../src/renesas/application/r_cui_image_adjust.c **** ,   {   "GAM_B_LUT10->GAM_B_GAIN_18[10:0]",         &VDC6.GAM_B_LUT10.LONG,          0,      2047, 
 355:../src/renesas/application/r_cui_image_adjust.c **** ,   {   "GAM_B_LUT10->GAM_B_GAIN_19[10:0]",         &VDC6.GAM_B_LUT10.LONG,          0,      2047, 
 356:../src/renesas/application/r_cui_image_adjust.c **** ,   {   "GAM_B_LUT11->GAM_B_GAIN_20[10:0]",         &VDC6.GAM_B_LUT11.LONG,          0,      2047, 
 357:../src/renesas/application/r_cui_image_adjust.c **** ,   {   "GAM_B_LUT11->GAM_B_GAIN_21[10:0]",         &VDC6.GAM_B_LUT11.LONG,          0,      2047, 
 358:../src/renesas/application/r_cui_image_adjust.c **** ,   {   "GAM_B_LUT12->GAM_B_GAIN_22[10:0]",         &VDC6.GAM_B_LUT12.LONG,          0,      2047, 
 359:../src/renesas/application/r_cui_image_adjust.c **** ,   {   "GAM_B_LUT12->GAM_B_GAIN_23[10:0]",         &VDC6.GAM_B_LUT12.LONG,          0,      2047, 
 360:../src/renesas/application/r_cui_image_adjust.c **** ,   {   "GAM_B_LUT13->GAM_B_GAIN_24[10:0]",         &VDC6.GAM_B_LUT13.LONG,          0,      2047, 
 361:../src/renesas/application/r_cui_image_adjust.c **** ,   {   "GAM_B_LUT13->GAM_B_GAIN_25[10:0]",         &VDC6.GAM_B_LUT13.LONG,          0,      2047, 
 362:../src/renesas/application/r_cui_image_adjust.c **** ,   {   "GAM_B_LUT14->GAM_B_GAIN_26[10:0]",         &VDC6.GAM_B_LUT14.LONG,          0,      2047, 
 363:../src/renesas/application/r_cui_image_adjust.c **** ,   {   "GAM_B_LUT14->GAM_B_GAIN_27[10:0]",         &VDC6.GAM_B_LUT14.LONG,          0,      2047, 
 364:../src/renesas/application/r_cui_image_adjust.c **** ,   {   "GAM_B_LUT15->GAM_B_GAIN_28[10:0]",         &VDC6.GAM_B_LUT15.LONG,          0,      2047, 
 365:../src/renesas/application/r_cui_image_adjust.c **** ,   {   "GAM_B_LUT15->GAM_B_GAIN_29[10:0]",         &VDC6.GAM_B_LUT15.LONG,          0,      2047, 
 366:../src/renesas/application/r_cui_image_adjust.c **** ,   {   "GAM_B_LUT16->GAM_B_GAIN_30[10:0]",         &VDC6.GAM_B_LUT16.LONG,          0,      2047, 
 367:../src/renesas/application/r_cui_image_adjust.c **** ,   {   "GAM_B_LUT16->GAM_B_GAIN_31[10:0]",         &VDC6.GAM_B_LUT16.LONG,          0,      2047, 
 368:../src/renesas/application/r_cui_image_adjust.c **** ,   {   "GAM_R_AREA1->GAM_R_TH_01[7:0]",            &VDC6.GAM_R_AREA1.LONG,          0,      255,  
 369:../src/renesas/application/r_cui_image_adjust.c **** ,   {   "GAM_R_AREA1->GAM_R_TH_02[7:0]",            &VDC6.GAM_R_AREA1.LONG,          0,      255,  
 370:../src/renesas/application/r_cui_image_adjust.c **** ,   {   "GAM_R_AREA1->GAM_R_TH_03[7:0]",            &VDC6.GAM_R_AREA1.LONG,          0,      255,  
 371:../src/renesas/application/r_cui_image_adjust.c **** ,   {   "GAM_R_AREA2->GAM_R_TH_04[7:0]",            &VDC6.GAM_R_AREA2.LONG,          0,      255,  
 372:../src/renesas/application/r_cui_image_adjust.c **** ,   {   "GAM_R_AREA2->GAM_R_TH_05[7:0]",            &VDC6.GAM_R_AREA2.LONG,          0,      255,  
 373:../src/renesas/application/r_cui_image_adjust.c **** ,   {   "GAM_R_AREA2->GAM_R_TH_06[7:0]",            &VDC6.GAM_R_AREA2.LONG,          0,      255,  
 374:../src/renesas/application/r_cui_image_adjust.c **** ,   {   "GAM_R_AREA2->GAM_R_TH_07[7:0]",            &VDC6.GAM_R_AREA2.LONG,          0,      255,  
 375:../src/renesas/application/r_cui_image_adjust.c **** ,   {   "GAM_R_AREA3->GAM_R_TH_08[7:0]",            &VDC6.GAM_R_AREA3.LONG,          0,      255,  
 376:../src/renesas/application/r_cui_image_adjust.c **** ,   {   "GAM_R_AREA3->GAM_R_TH_09[7:0]",            &VDC6.GAM_R_AREA3.LONG,          0,      255,  
 377:../src/renesas/application/r_cui_image_adjust.c **** ,   {   "GAM_R_AREA3->GAM_R_TH_10[7:0]",            &VDC6.GAM_R_AREA3.LONG,          0,      255,  
 378:../src/renesas/application/r_cui_image_adjust.c **** ,   {   "GAM_R_AREA3->GAM_R_TH_11[7:0]",            &VDC6.GAM_R_AREA3.LONG,          0,      255,  
 379:../src/renesas/application/r_cui_image_adjust.c **** ,   {   "GAM_R_AREA4->GAM_R_TH_12[7:0]",            &VDC6.GAM_R_AREA4.LONG,          0,      255,  
 380:../src/renesas/application/r_cui_image_adjust.c **** ,   {   "GAM_R_AREA4->GAM_R_TH_13[7:0]",            &VDC6.GAM_R_AREA4.LONG,          0,      255,  
 381:../src/renesas/application/r_cui_image_adjust.c **** ,   {   "GAM_R_AREA4->GAM_R_TH_14[7:0]",            &VDC6.GAM_R_AREA4.LONG,          0,      255,  
 382:../src/renesas/application/r_cui_image_adjust.c **** ,   {   "GAM_R_AREA4->GAM_R_TH_15[7:0]",            &VDC6.GAM_R_AREA4.LONG,          0,      255,  
 383:../src/renesas/application/r_cui_image_adjust.c **** ,   {   "GAM_R_AREA5->GAM_R_TH_16[7:0]",            &VDC6.GAM_R_AREA5.LONG,          0,      255,  
 384:../src/renesas/application/r_cui_image_adjust.c **** ,   {   "GAM_R_AREA5->GAM_R_TH_17[7:0]",            &VDC6.GAM_R_AREA5.LONG,          0,      255,  
 385:../src/renesas/application/r_cui_image_adjust.c **** ,   {   "GAM_R_AREA5->GAM_R_TH_18[7:0]",            &VDC6.GAM_R_AREA5.LONG,          0,      255,  
 386:../src/renesas/application/r_cui_image_adjust.c **** ,   {   "GAM_R_AREA5->GAM_R_TH_19[7:0]",            &VDC6.GAM_R_AREA5.LONG,          0,      255,  
 387:../src/renesas/application/r_cui_image_adjust.c **** ,   {   "GAM_R_AREA6->GAM_R_TH_20[7:0]",            &VDC6.GAM_R_AREA6.LONG,          0,      255,  
 388:../src/renesas/application/r_cui_image_adjust.c **** ,   {   "GAM_R_AREA6->GAM_R_TH_21[7:0]",            &VDC6.GAM_R_AREA6.LONG,          0,      255,  
 389:../src/renesas/application/r_cui_image_adjust.c **** ,   {   "GAM_R_AREA6->GAM_R_TH_22[7:0]",            &VDC6.GAM_R_AREA6.LONG,          0,      255,  
 390:../src/renesas/application/r_cui_image_adjust.c **** ,   {   "GAM_R_AREA6->GAM_R_TH_23[7:0]",            &VDC6.GAM_R_AREA6.LONG,          0,      255,  
 391:../src/renesas/application/r_cui_image_adjust.c **** ,   {   "GAM_R_AREA7->GAM_R_TH_24[7:0]",            &VDC6.GAM_R_AREA7.LONG,          0,      255,  
 392:../src/renesas/application/r_cui_image_adjust.c **** ,   {   "GAM_R_AREA7->GAM_R_TH_25[7:0]",            &VDC6.GAM_R_AREA7.LONG,          0,      255,  
 393:../src/renesas/application/r_cui_image_adjust.c **** ,   {   "GAM_R_AREA7->GAM_R_TH_26[7:0]",            &VDC6.GAM_R_AREA7.LONG,          0,      255,  
 394:../src/renesas/application/r_cui_image_adjust.c **** ,   {   "GAM_R_AREA7->GAM_R_TH_27[7:0]",            &VDC6.GAM_R_AREA7.LONG,          0,      255,  
 395:../src/renesas/application/r_cui_image_adjust.c **** ,   {   "GAM_R_AREA8->GAM_R_TH_28[7:0]",            &VDC6.GAM_R_AREA8.LONG,          0,      255,  
 396:../src/renesas/application/r_cui_image_adjust.c **** ,   {   "GAM_R_AREA8->GAM_R_TH_29[7:0]",            &VDC6.GAM_R_AREA8.LONG,          0,      255,  
 397:../src/renesas/application/r_cui_image_adjust.c **** ,   {   "GAM_R_AREA8->GAM_R_TH_30[7:0]",            &VDC6.GAM_R_AREA8.LONG,          0,      255,  
 398:../src/renesas/application/r_cui_image_adjust.c **** ,   {   "GAM_R_AREA8->GAM_R_TH_31[7:0]",            &VDC6.GAM_R_AREA8.LONG,          0,      255,  
 399:../src/renesas/application/r_cui_image_adjust.c **** ,   {   "GAM_R_LUT1->GAM_R_GAIN_00[10:0]",          &VDC6.GAM_R_LUT1.LONG,           0,      2047, 
 400:../src/renesas/application/r_cui_image_adjust.c **** ,   {   "GAM_R_LUT1->GAM_R_GAIN_01[10:0]",          &VDC6.GAM_R_LUT1.LONG,           0,      2047, 
 401:../src/renesas/application/r_cui_image_adjust.c **** ,   {   "GAM_R_LUT2->GAM_R_GAIN_02[10:0]",          &VDC6.GAM_R_LUT2.LONG,           0,      2047, 
 402:../src/renesas/application/r_cui_image_adjust.c **** ,   {   "GAM_R_LUT2->GAM_R_GAIN_03[10:0]",          &VDC6.GAM_R_LUT2.LONG,           0,      2047, 
 403:../src/renesas/application/r_cui_image_adjust.c **** ,   {   "GAM_R_LUT3->GAM_R_GAIN_04[10:0]",          &VDC6.GAM_R_LUT3.LONG,           0,      2047, 
 404:../src/renesas/application/r_cui_image_adjust.c **** ,   {   "GAM_R_LUT3->GAM_R_GAIN_05[10:0]",          &VDC6.GAM_R_LUT3.LONG,           0,      2047, 
 405:../src/renesas/application/r_cui_image_adjust.c **** ,   {   "GAM_R_LUT4->GAM_R_GAIN_06[10:0]",          &VDC6.GAM_R_LUT4.LONG,           0,      2047, 
 406:../src/renesas/application/r_cui_image_adjust.c **** ,   {   "GAM_R_LUT4->GAM_R_GAIN_07[10:0]",          &VDC6.GAM_R_LUT4.LONG,           0,      2047, 
 407:../src/renesas/application/r_cui_image_adjust.c **** ,   {   "GAM_R_LUT5->GAM_R_GAIN_08[10:0]",          &VDC6.GAM_R_LUT5.LONG,           0,      2047, 
 408:../src/renesas/application/r_cui_image_adjust.c **** ,   {   "GAM_R_LUT5->GAM_R_GAIN_09[10:0]",          &VDC6.GAM_R_LUT5.LONG,           0,      2047, 
 409:../src/renesas/application/r_cui_image_adjust.c **** ,   {   "GAM_R_LUT6->GAM_R_GAIN_10[10:0]",          &VDC6.GAM_R_LUT6.LONG,           0,      2047, 
 410:../src/renesas/application/r_cui_image_adjust.c **** ,   {   "GAM_R_LUT6->GAM_R_GAIN_11[10:0]",          &VDC6.GAM_R_LUT6.LONG,           0,      2047, 
 411:../src/renesas/application/r_cui_image_adjust.c **** ,   {   "GAM_R_LUT7->GAM_R_GAIN_12[10:0]",          &VDC6.GAM_R_LUT7.LONG,           0,      2047, 
 412:../src/renesas/application/r_cui_image_adjust.c **** ,   {   "GAM_R_LUT7->GAM_R_GAIN_13[10:0]",          &VDC6.GAM_R_LUT7.LONG,           0,      2047, 
 413:../src/renesas/application/r_cui_image_adjust.c **** ,   {   "GAM_R_LUT8->GAM_R_GAIN_14[10:0]",          &VDC6.GAM_R_LUT8.LONG,           0,      2047, 
 414:../src/renesas/application/r_cui_image_adjust.c **** ,   {   "GAM_R_LUT8->GAM_R_GAIN_15[10:0]",          &VDC6.GAM_R_LUT8.LONG,           0,      2047, 
 415:../src/renesas/application/r_cui_image_adjust.c **** ,   {   "GAM_R_LUT9->GAM_R_GAIN_16[10:0]",          &VDC6.GAM_R_LUT9.LONG,           0,      2047, 
 416:../src/renesas/application/r_cui_image_adjust.c **** ,   {   "GAM_R_LUT9->GAM_R_GAIN_17[10:0]",          &VDC6.GAM_R_LUT9.LONG,           0,      2047, 
 417:../src/renesas/application/r_cui_image_adjust.c **** ,   {   "GAM_R_LUT10->GAM_R_GAIN_18[10:0]",         &VDC6.GAM_R_LUT10.LONG,          0,      2047, 
 418:../src/renesas/application/r_cui_image_adjust.c **** ,   {   "GAM_R_LUT10->GAM_R_GAIN_19[10:0]",         &VDC6.GAM_R_LUT10.LONG,          0,      2047, 
 419:../src/renesas/application/r_cui_image_adjust.c **** ,   {   "GAM_R_LUT11->GAM_R_GAIN_20[10:0]",         &VDC6.GAM_R_LUT11.LONG,          0,      2047, 
 420:../src/renesas/application/r_cui_image_adjust.c **** ,   {   "GAM_R_LUT11->GAM_R_GAIN_21[10:0]",         &VDC6.GAM_R_LUT11.LONG,          0,      2047, 
 421:../src/renesas/application/r_cui_image_adjust.c **** ,   {   "GAM_R_LUT12->GAM_R_GAIN_22[10:0]",         &VDC6.GAM_R_LUT12.LONG,          0,      2047, 
 422:../src/renesas/application/r_cui_image_adjust.c **** ,   {   "GAM_R_LUT12->GAM_R_GAIN_23[10:0]",         &VDC6.GAM_R_LUT12.LONG,          0,      2047, 
 423:../src/renesas/application/r_cui_image_adjust.c **** ,   {   "GAM_R_LUT13->GAM_R_GAIN_24[10:0]",         &VDC6.GAM_R_LUT13.LONG,          0,      2047, 
 424:../src/renesas/application/r_cui_image_adjust.c **** ,   {   "GAM_R_LUT13->GAM_R_GAIN_25[10:0]",         &VDC6.GAM_R_LUT13.LONG,          0,      2047, 
 425:../src/renesas/application/r_cui_image_adjust.c **** ,   {   "GAM_R_LUT14->GAM_R_GAIN_26[10:0]",         &VDC6.GAM_R_LUT14.LONG,          0,      2047, 
 426:../src/renesas/application/r_cui_image_adjust.c **** ,   {   "GAM_R_LUT14->GAM_R_GAIN_27[10:0]",         &VDC6.GAM_R_LUT14.LONG,          0,      2047, 
 427:../src/renesas/application/r_cui_image_adjust.c **** ,   {   "GAM_R_LUT15->GAM_R_GAIN_28[10:0]",         &VDC6.GAM_R_LUT15.LONG,          0,      2047, 
 428:../src/renesas/application/r_cui_image_adjust.c **** ,   {   "GAM_R_LUT15->GAM_R_GAIN_29[10:0]",         &VDC6.GAM_R_LUT15.LONG,          0,      2047, 
 429:../src/renesas/application/r_cui_image_adjust.c **** ,   {   "GAM_R_LUT16->GAM_R_GAIN_30[10:0]",         &VDC6.GAM_R_LUT16.LONG,          0,      2047, 
 430:../src/renesas/application/r_cui_image_adjust.c **** ,   {   "GAM_R_LUT16->GAM_R_GAIN_31[10:0]",         &VDC6.GAM_R_LUT16.LONG,          0,      2047, 
 431:../src/renesas/application/r_cui_image_adjust.c **** };
 432:../src/renesas/application/r_cui_image_adjust.c **** 
 433:../src/renesas/application/r_cui_image_adjust.c **** /*  Dither Process  */
 434:../src/renesas/application/r_cui_image_adjust.c **** static st_reg_t const gs_reg_dither[CUI_REGNUM_DITHER] =
 435:../src/renesas/application/r_cui_image_adjust.c **** {
 436:../src/renesas/application/r_cui_image_adjust.c ****         /* register string                          register addr                    min     max   
 437:../src/renesas/application/r_cui_image_adjust.c ****     {   "OUT_PDTHA->PDTH_SEL[1:0]",                 &VDC6.OUT_PDTHA.LONG,            0,      3,    
 438:../src/renesas/application/r_cui_image_adjust.c **** };
 439:../src/renesas/application/r_cui_image_adjust.c **** 
 440:../src/renesas/application/r_cui_image_adjust.c **** /*  Horizontal Mirroring and Rotation   */
 441:../src/renesas/application/r_cui_image_adjust.c **** /*  Caution: These palameters are under consideration */
 442:../src/renesas/application/r_cui_image_adjust.c **** static st_reg_t const gs_reg_rotation[CUI_REGNUM_ROTATION] =
 443:../src/renesas/application/r_cui_image_adjust.c **** {
 444:../src/renesas/application/r_cui_image_adjust.c ****         /* register string                          register addr                    min     max   
 445:../src/renesas/application/r_cui_image_adjust.c ****     {   "SC0_SCL1_WR1->SC0_RES_DS_WR_MD[2:0]",      &VDC6.SC0_SCL1_WR1.LONG,         0,      4,    
 446:../src/renesas/application/r_cui_image_adjust.c **** };
 447:../src/renesas/application/r_cui_image_adjust.c **** 
 448:../src/renesas/application/r_cui_image_adjust.c **** /*  INPUT Matrix Mode   */
 449:../src/renesas/application/r_cui_image_adjust.c **** static st_reg_t const gs_reg_input_mtx_mode[CUI_REGNUM_IN_MTX_MODE] =
 450:../src/renesas/application/r_cui_image_adjust.c **** {
 451:../src/renesas/application/r_cui_image_adjust.c ****         /* register string                          register addr                    min     max   
 452:../src/renesas/application/r_cui_image_adjust.c ****     {   "IMGCNT_MTX_MODE->IMGCNT_MTX_MD[1:0]",      &VDC6.IMGCNT_MTX_MODE.LONG,      0,      3,    
 453:../src/renesas/application/r_cui_image_adjust.c **** };
 454:../src/renesas/application/r_cui_image_adjust.c **** 
 455:../src/renesas/application/r_cui_image_adjust.c **** /* whole adjustable registers */
 456:../src/renesas/application/r_cui_image_adjust.c **** static st_header_info_t const gs_allparam [] =
 457:../src/renesas/application/r_cui_image_adjust.c **** {
 458:../src/renesas/application/r_cui_image_adjust.c ****     /*  attribute    reg_struct               string                                               
 459:../src/renesas/application/r_cui_image_adjust.c ****     {   NOT_READ,    NULL,                    "/***************************************************
 460:../src/renesas/application/r_cui_image_adjust.c **** ,   {   NOT_READ,    NULL,                    "* DISCLAIMER",                                      
 461:../src/renesas/application/r_cui_image_adjust.c **** ,   {   NOT_READ,    NULL,                    "* This software is supplied by Renesas Electronics C
 462:../src/renesas/application/r_cui_image_adjust.c **** ,   {   NOT_READ,    NULL,                    "* intended for use with Renesas products. No other u
 463:../src/renesas/application/r_cui_image_adjust.c **** ,   {   NOT_READ,    NULL,                    "* software is owned by Renesas Electronics Corporati
 464:../src/renesas/application/r_cui_image_adjust.c **** ,   {   NOT_READ,    NULL,                    "* all applicable laws, including copyright laws.",  
 465:../src/renesas/application/r_cui_image_adjust.c **** ,   {   NOT_READ,    NULL,                    "* THIS SOFTWARE IS PROVIDED \"AS IS\" AND RENESAS MA
 466:../src/renesas/application/r_cui_image_adjust.c **** ,   {   NOT_READ,    NULL,                    "* THIS SOFTWARE, WHETHER EXPRESS, IMPLIED OR STATUTO
 467:../src/renesas/application/r_cui_image_adjust.c **** ,   {   NOT_READ,    NULL,                    "* LIMITED TO WARRANTIES OF MERCHANTABILITY, FITNESS 
 468:../src/renesas/application/r_cui_image_adjust.c **** ,   {   NOT_READ,    NULL,                    "* AND NON-INFRINGEMENT. ALL SUCH WARRANTIES ARE EXPR
 469:../src/renesas/application/r_cui_image_adjust.c **** ,   {   NOT_READ,    NULL,                    "* TO THE MAXIMUM EXTENT PERMITTED NOT PROHIBITED BY 
 470:../src/renesas/application/r_cui_image_adjust.c **** ,   {   NOT_READ,    NULL,                    "* ELECTRONICS CORPORATION NOR ANY OF ITS AFFILIATED 
 471:../src/renesas/application/r_cui_image_adjust.c **** ,   {   NOT_READ,    NULL,                    "* FOR ANY DIRECT, INDIRECT, SPECIAL, INCIDENTAL OR C
 472:../src/renesas/application/r_cui_image_adjust.c **** ,   {   NOT_READ,    NULL,                    "* ANY REASON RELATED TO THIS SOFTWARE, EVEN IF RENES
 473:../src/renesas/application/r_cui_image_adjust.c **** ,   {   NOT_READ,    NULL,                    "* BEEN ADVISED OF THE POSSIBILITY OF SUCH DAMAGES.",
 474:../src/renesas/application/r_cui_image_adjust.c **** ,   {   NOT_READ,    NULL,                    "* Renesas reserves the right, without notice, to mak
 475:../src/renesas/application/r_cui_image_adjust.c **** ,   {   NOT_READ,    NULL,                    "* and to discontinue the availability of this softwa
 476:../src/renesas/application/r_cui_image_adjust.c **** ,   {   NOT_READ,    NULL,                    "* you agree to the additional terms and conditions f
 477:../src/renesas/application/r_cui_image_adjust.c **** ,   {   NOT_READ,    NULL,                    "* following link:",                                 
 478:../src/renesas/application/r_cui_image_adjust.c **** ,   {   NOT_READ,    NULL,                    "* http://www.renesas.com/disclaimer",               
 479:../src/renesas/application/r_cui_image_adjust.c **** ,   {   NOT_READ,    NULL,                    "*",                                                 
 480:../src/renesas/application/r_cui_image_adjust.c **** ,   {   NOT_READ,    NULL,                    "* Copyright (C) 2018 Renesas Electronics Corporation
 481:../src/renesas/application/r_cui_image_adjust.c **** ,   {   NOT_READ,    NULL,                    "****************************************************
 482:../src/renesas/application/r_cui_image_adjust.c **** ,   {   NOT_READ,    NULL,                    "/***************************************************
 483:../src/renesas/application/r_cui_image_adjust.c **** ,   {   NOT_READ,    NULL,                    "* File Name    : r_image_config.h",                 
 484:../src/renesas/application/r_cui_image_adjust.c **** ,   {   NOT_READ,    NULL,                    "* Description  : Defines for Image Correction",     
 485:../src/renesas/application/r_cui_image_adjust.c **** ,   {   NOT_READ,    NULL,                    "****************************************************
 486:../src/renesas/application/r_cui_image_adjust.c **** ,   {   NOT_READ,    NULL,                    "#ifndef IMG_CONFIG_H",                              
 487:../src/renesas/application/r_cui_image_adjust.c **** ,   {   NOT_READ,    NULL,                    "#define IMG_CONFIG_H",                              
 488:../src/renesas/application/r_cui_image_adjust.c **** ,   {   NOT_READ,    NULL,                    "\n/*************************************************
 489:../src/renesas/application/r_cui_image_adjust.c **** ,   {   NOT_READ,    NULL,                    "Includes   <System Includes> , \"Project Includes\""
 490:../src/renesas/application/r_cui_image_adjust.c **** ,   {   NOT_READ,    NULL,                    "****************************************************
 491:../src/renesas/application/r_cui_image_adjust.c **** ,   {   NOT_READ,    NULL,                    "#include    \"r_vdc.h\"",                           
 492:../src/renesas/application/r_cui_image_adjust.c **** ,   {   NOT_READ,    NULL,                    "#include    \"lcd_panel.h\"",                       
 493:../src/renesas/application/r_cui_image_adjust.c **** ,   {   NOT_READ,    NULL,                    "\n/*************************************************
 494:../src/renesas/application/r_cui_image_adjust.c **** ,   {   NOT_READ,    NULL,                    "Macro definitions",                                 
 495:../src/renesas/application/r_cui_image_adjust.c **** ,   {   NOT_READ,    NULL,                    "****************************************************
 496:../src/renesas/application/r_cui_image_adjust.c **** ,   {   NOT_READ,    NULL,                    "/* Brightness Setting */",                          
 497:../src/renesas/application/r_cui_image_adjust.c **** ,   {   NOT_READ,    NULL,                    "/* Contrast Setting */",                            
 498:../src/renesas/application/r_cui_image_adjust.c **** ,   {   NOT_READ,    NULL,                    "#define IMGC_BRIGHT_INPUTCTL_MODULE          (VDC_CO
 499:../src/renesas/application/r_cui_image_adjust.c **** ,   {   READ_REG,    &gs_reg_input_mtx_mode[0],"#define IMGC_BRIGHT_INPUTCTL_MODE            ",    
 500:../src/renesas/application/r_cui_image_adjust.c **** ,   {   READ_REG,    &gs_reg_bright_in[0],    "#define IMGC_BRIGHT_INPUTCTL_OFFSET_YG       ",     
 501:../src/renesas/application/r_cui_image_adjust.c **** ,   {   NOT_READ,    NULL,                    "#define IMGC_BRIGHT_INPUTCTL_OFFSET_B        (128u) 
 502:../src/renesas/application/r_cui_image_adjust.c **** ,   {   NOT_READ,    NULL,                    "#define IMGC_BRIGHT_INPUTCTL_OFFSET_R        (128u) 
 503:../src/renesas/application/r_cui_image_adjust.c **** ,   {   READ_REG,    &gs_reg_cont_in[0],         "#define IMGC_CONTRAST_INPUTCTL_GAIN_GG       ",  
 504:../src/renesas/application/r_cui_image_adjust.c **** ,   {   NOT_READ,    NULL,                    "#define IMGC_CONTRAST_INPUTCTL_GAIN_GB       (0u)   
 505:../src/renesas/application/r_cui_image_adjust.c **** ,   {   NOT_READ,    NULL,                    "#define IMGC_CONTRAST_INPUTCTL_GAIN_GR       (0u)   
 506:../src/renesas/application/r_cui_image_adjust.c **** ,   {   NOT_READ,    NULL,                    "#define IMGC_CONTRAST_INPUTCTL_GAIN_BG       (0u)   
 507:../src/renesas/application/r_cui_image_adjust.c **** ,   {   NOT_READ,    NULL,                    "#define IMGC_CONTRAST_INPUTCTL_GAIN_BB       (256u) 
 508:../src/renesas/application/r_cui_image_adjust.c **** ,   {   NOT_READ,    NULL,                    "#define IMGC_CONTRAST_INPUTCTL_GAIN_BR       (0u)   
 509:../src/renesas/application/r_cui_image_adjust.c **** ,   {   NOT_READ,    NULL,                    "#define IMGC_CONTRAST_INPUTCTL_GAIN_RG       (0u)   
 510:../src/renesas/application/r_cui_image_adjust.c **** ,   {   NOT_READ,    NULL,                    "#define IMGC_CONTRAST_INPUTCTL_GAIN_RB       (0u)   
 511:../src/renesas/application/r_cui_image_adjust.c **** ,   {   NOT_READ,    NULL,                    "#define IMGC_CONTRAST_INPUTCTL_GAIN_RR       (256u) 
 512:../src/renesas/application/r_cui_image_adjust.c **** ,   {   NOT_READ,    NULL,                    "\n#define IMGC_OUTCTL_CALIB_ROUTE              (VDC_
 513:../src/renesas/application/r_cui_image_adjust.c **** ,   {   READ_REG,    &gs_reg_bright_out[0],   "#define IMGC_BRIGHT_OUTCTL_OFFSET_G          ",     
 514:../src/renesas/application/r_cui_image_adjust.c **** ,   {   READ_REG,    &gs_reg_bright_out[1],   "#define IMGC_BRIGHT_OUTCTL_OFFSET_B          ",     
 515:../src/renesas/application/r_cui_image_adjust.c **** ,   {   READ_REG,    &gs_reg_bright_out[2],   "#define IMGC_BRIGHT_OUTCTL_OFFSET_R          ",     
 516:../src/renesas/application/r_cui_image_adjust.c **** ,   {   READ_REG,    &gs_reg_cont_out[0],     "#define IMGC_CONTRAST_OUTCTL_GAIN_G          ",     
 517:../src/renesas/application/r_cui_image_adjust.c **** ,   {   READ_REG,    &gs_reg_cont_out[1],     "#define IMGC_CONTRAST_OUTCTL_GAIN_B          ",     
 518:../src/renesas/application/r_cui_image_adjust.c **** ,   {   READ_REG,    &gs_reg_cont_out[2],     "#define IMGC_CONTRAST_OUTCTL_GAIN_R          ",     
 519:../src/renesas/application/r_cui_image_adjust.c **** ,   {   NOT_READ,    NULL,                    "\n/* Sharpness Setting */",                         
 520:../src/renesas/application/r_cui_image_adjust.c **** ,   {   NOT_READ,    NULL,                    "#define IMGC_IMG_IMPRV_ID                    (VDC_IM
 521:../src/renesas/application/r_cui_image_adjust.c **** ,   {   READ_REG,    &gs_reg_sharpness[0],    "#define IMGC_SHARPNESS_ACTIVE                ",     
 522:../src/renesas/application/r_cui_image_adjust.c **** ,   {   READ_REG,    &gs_reg_sharpness[1],    "#define IMGC_SHARPNESS_H1_CLIP_O             ",     
 523:../src/renesas/application/r_cui_image_adjust.c **** ,   {   READ_REG,    &gs_reg_sharpness[2],       "#define IMGC_SHARPNESS_H1_CLIP_U             ",  
 524:../src/renesas/application/r_cui_image_adjust.c **** ,   {   READ_REG,    &gs_reg_sharpness[3],       "#define IMGC_SHARPNESS_H1_GAIN_O             ",  
 525:../src/renesas/application/r_cui_image_adjust.c **** ,   {   READ_REG,    &gs_reg_sharpness[4],       "#define IMGC_SHARPNESS_H1_GAIN_U             ",  
 526:../src/renesas/application/r_cui_image_adjust.c **** ,   {   READ_REG,    &gs_reg_sharpness[5],       "#define IMGC_SHARPNESS_H1_CORE               ",  
 527:../src/renesas/application/r_cui_image_adjust.c **** ,   {   READ_REG,    &gs_reg_sharpness[6],       "#define IMGC_SHARPNESS_H2_LPF                ",  
 528:../src/renesas/application/r_cui_image_adjust.c **** ,   {   READ_REG,    &gs_reg_sharpness[7],       "#define IMGC_SHARPNESS_H2_CLIP_O             ",  
 529:../src/renesas/application/r_cui_image_adjust.c **** ,   {   READ_REG,    &gs_reg_sharpness[8],       "#define IMGC_SHARPNESS_H2_CLIP_U             ",  
 530:../src/renesas/application/r_cui_image_adjust.c **** ,   {   READ_REG,    &gs_reg_sharpness[9],       "#define IMGC_SHARPNESS_H2_GAIN_O             ",  
 531:../src/renesas/application/r_cui_image_adjust.c **** ,   {   READ_REG,    &gs_reg_sharpness[10],      "#define IMGC_SHARPNESS_H2_GAIN_U             ",  
 532:../src/renesas/application/r_cui_image_adjust.c **** ,   {   READ_REG,    &gs_reg_sharpness[11],      "#define IMGC_SHARPNESS_H2_CORE               ",  
 533:../src/renesas/application/r_cui_image_adjust.c **** ,   {   READ_REG,    &gs_reg_sharpness[12],      "#define IMGC_SHARPNESS_H3_CLIP_O             ",  
 534:../src/renesas/application/r_cui_image_adjust.c **** ,   {   READ_REG,    &gs_reg_sharpness[13],      "#define IMGC_SHARPNESS_H3_CLIP_U             ",  
 535:../src/renesas/application/r_cui_image_adjust.c **** ,   {   READ_REG,    &gs_reg_sharpness[14],      "#define IMGC_SHARPNESS_H3_GAIN_O             ",  
 536:../src/renesas/application/r_cui_image_adjust.c **** ,   {   READ_REG,    &gs_reg_sharpness[15],      "#define IMGC_SHARPNESS_H3_GAIN_U             ",  
 537:../src/renesas/application/r_cui_image_adjust.c **** ,   {   READ_REG,    &gs_reg_sharpness[16],      "#define IMGC_SHARPNESS_H3_CORE               ",  
 538:../src/renesas/application/r_cui_image_adjust.c **** ,   {   READ_REG,    &gs_reg_sharpness[17],      "#define IMGC_SHARPNESS_LTI_ACTIVE            ",  
 539:../src/renesas/application/r_cui_image_adjust.c **** ,   {   READ_REG,    &gs_reg_sharpness[18],      "#define IMGC_SHARPNESS_LTI_H2_LPF            ",  
 540:../src/renesas/application/r_cui_image_adjust.c **** ,   {   READ_REG,    &gs_reg_sharpness[19],      "#define IMGC_SHARPNESS_LTI_H2_ZERO           ",  
 541:../src/renesas/application/r_cui_image_adjust.c **** ,   {   READ_REG,    &gs_reg_sharpness[20],      "#define IMGC_SHARPNESS_LTI_H2_GAIN           ",  
 542:../src/renesas/application/r_cui_image_adjust.c **** ,   {   READ_REG,    &gs_reg_sharpness[21],      "#define IMGC_SHARPNESS_LTI_H2_CORE           ",  
 543:../src/renesas/application/r_cui_image_adjust.c **** ,   {   READ_REG,    &gs_reg_sharpness[22],      "#define IMGC_SHARPNESS_LTI_H4_MEDTAP_SEL     ",  
 544:../src/renesas/application/r_cui_image_adjust.c **** ,   {   READ_REG,    &gs_reg_sharpness[23],      "#define IMGC_SHARPNESS_LTI_H4_ZERO           ",  
 545:../src/renesas/application/r_cui_image_adjust.c **** ,   {   READ_REG,    &gs_reg_sharpness[24],      "#define IMGC_SHARPNESS_LTI_H4_GAIN           ",  
 546:../src/renesas/application/r_cui_image_adjust.c **** ,   {   READ_REG,    &gs_reg_sharpness[25],      "#define IMGC_SHARPNESS_LTI_H4_CORE           ",  
 547:../src/renesas/application/r_cui_image_adjust.c **** ,   {   NOT_READ,    NULL,                    "#define IMGC_SHARPNESS_VS                    (LCD_CH
 548:../src/renesas/application/r_cui_image_adjust.c **** ,   {   NOT_READ,    NULL,                    "#define IMGC_SHARPNESS_VW                    (LCD_CH
 549:../src/renesas/application/r_cui_image_adjust.c **** ,   {   NOT_READ,    NULL,                    "#define IMGC_SHARPNESS_HS                    (LCD_CH
 550:../src/renesas/application/r_cui_image_adjust.c **** ,   {   NOT_READ,    NULL,                    "#define IMGC_SHARPNESS_HW                    (LCD_CH
 551:../src/renesas/application/r_cui_image_adjust.c **** ,   {   NOT_READ,    NULL,                    "\n/* Gamma correction */",                          
 552:../src/renesas/application/r_cui_image_adjust.c **** ,   {   READ_REG,    &gs_reg_gamma[0],        "#define IMGC_GAMMA_ACTIVE                    ",     
 553:../src/renesas/application/r_cui_image_adjust.c **** ,   {   READ_REG,    &gs_reg_gamma[32],       "#define IMGC_GAMMA_G_GAIN_00                 ",     
 554:../src/renesas/application/r_cui_image_adjust.c **** ,   {   READ_REG,    &gs_reg_gamma[33],       "#define IMGC_GAMMA_G_GAIN_01                 ",     
 555:../src/renesas/application/r_cui_image_adjust.c **** ,   {   READ_REG,    &gs_reg_gamma[34],       "#define IMGC_GAMMA_G_GAIN_02                 ",     
 556:../src/renesas/application/r_cui_image_adjust.c **** ,   {   READ_REG,    &gs_reg_gamma[35],       "#define IMGC_GAMMA_G_GAIN_03                 ",     
 557:../src/renesas/application/r_cui_image_adjust.c **** ,   {   READ_REG,    &gs_reg_gamma[36],       "#define IMGC_GAMMA_G_GAIN_04                 ",     
 558:../src/renesas/application/r_cui_image_adjust.c **** ,   {   READ_REG,    &gs_reg_gamma[37],       "#define IMGC_GAMMA_G_GAIN_05                 ",     
 559:../src/renesas/application/r_cui_image_adjust.c **** ,   {   READ_REG,    &gs_reg_gamma[38],       "#define IMGC_GAMMA_G_GAIN_06                 ",     
 560:../src/renesas/application/r_cui_image_adjust.c **** ,   {   READ_REG,    &gs_reg_gamma[39],       "#define IMGC_GAMMA_G_GAIN_07                 ",     
 561:../src/renesas/application/r_cui_image_adjust.c **** ,   {   READ_REG,    &gs_reg_gamma[40],       "#define IMGC_GAMMA_G_GAIN_08                 ",     
 562:../src/renesas/application/r_cui_image_adjust.c **** ,   {   READ_REG,    &gs_reg_gamma[41],       "#define IMGC_GAMMA_G_GAIN_09                 ",     
 563:../src/renesas/application/r_cui_image_adjust.c **** ,   {   READ_REG,    &gs_reg_gamma[42],       "#define IMGC_GAMMA_G_GAIN_10                 ",     
 564:../src/renesas/application/r_cui_image_adjust.c **** ,   {   READ_REG,    &gs_reg_gamma[43],       "#define IMGC_GAMMA_G_GAIN_11                 ",     
 565:../src/renesas/application/r_cui_image_adjust.c **** ,   {   READ_REG,    &gs_reg_gamma[44],       "#define IMGC_GAMMA_G_GAIN_12                 ",     
 566:../src/renesas/application/r_cui_image_adjust.c **** ,   {   READ_REG,    &gs_reg_gamma[45],       "#define IMGC_GAMMA_G_GAIN_13                 ",     
 567:../src/renesas/application/r_cui_image_adjust.c **** ,   {   READ_REG,    &gs_reg_gamma[46],       "#define IMGC_GAMMA_G_GAIN_14                 ",     
 568:../src/renesas/application/r_cui_image_adjust.c **** ,   {   READ_REG,    &gs_reg_gamma[47],       "#define IMGC_GAMMA_G_GAIN_15                 ",     
 569:../src/renesas/application/r_cui_image_adjust.c **** ,   {   READ_REG,    &gs_reg_gamma[48],       "#define IMGC_GAMMA_G_GAIN_16                 ",     
 570:../src/renesas/application/r_cui_image_adjust.c **** ,   {   READ_REG,    &gs_reg_gamma[49],       "#define IMGC_GAMMA_G_GAIN_17                 ",     
 571:../src/renesas/application/r_cui_image_adjust.c **** ,   {   READ_REG,    &gs_reg_gamma[50],       "#define IMGC_GAMMA_G_GAIN_18                 ",     
 572:../src/renesas/application/r_cui_image_adjust.c **** ,   {   READ_REG,    &gs_reg_gamma[51],       "#define IMGC_GAMMA_G_GAIN_19                 ",     
 573:../src/renesas/application/r_cui_image_adjust.c **** ,   {   READ_REG,    &gs_reg_gamma[52],       "#define IMGC_GAMMA_G_GAIN_20                 ",     
 574:../src/renesas/application/r_cui_image_adjust.c **** ,   {   READ_REG,    &gs_reg_gamma[53],       "#define IMGC_GAMMA_G_GAIN_21                 ",     
 575:../src/renesas/application/r_cui_image_adjust.c **** ,   {   READ_REG,    &gs_reg_gamma[54],       "#define IMGC_GAMMA_G_GAIN_22                 ",     
 576:../src/renesas/application/r_cui_image_adjust.c **** ,   {   READ_REG,    &gs_reg_gamma[55],       "#define IMGC_GAMMA_G_GAIN_23                 ",     
 577:../src/renesas/application/r_cui_image_adjust.c **** ,   {   READ_REG,    &gs_reg_gamma[56],       "#define IMGC_GAMMA_G_GAIN_24                 ",     
 578:../src/renesas/application/r_cui_image_adjust.c **** ,   {   READ_REG,    &gs_reg_gamma[57],       "#define IMGC_GAMMA_G_GAIN_25                 ",     
 579:../src/renesas/application/r_cui_image_adjust.c **** ,   {   READ_REG,    &gs_reg_gamma[58],       "#define IMGC_GAMMA_G_GAIN_26                 ",     
 580:../src/renesas/application/r_cui_image_adjust.c **** ,   {   READ_REG,    &gs_reg_gamma[59],       "#define IMGC_GAMMA_G_GAIN_27                 ",     
 581:../src/renesas/application/r_cui_image_adjust.c **** ,   {   READ_REG,    &gs_reg_gamma[60],       "#define IMGC_GAMMA_G_GAIN_28                 ",     
 582:../src/renesas/application/r_cui_image_adjust.c **** ,   {   READ_REG,    &gs_reg_gamma[61],       "#define IMGC_GAMMA_G_GAIN_29                 ",     
 583:../src/renesas/application/r_cui_image_adjust.c **** ,   {   READ_REG,    &gs_reg_gamma[62],       "#define IMGC_GAMMA_G_GAIN_30                 ",     
 584:../src/renesas/application/r_cui_image_adjust.c **** ,   {   READ_REG,    &gs_reg_gamma[63],       "#define IMGC_GAMMA_G_GAIN_31                 ",     
 585:../src/renesas/application/r_cui_image_adjust.c **** ,   {   READ_REG,    &gs_reg_gamma[1],        "#define IMGC_GAMMA_G_TH_01                   ",     
 586:../src/renesas/application/r_cui_image_adjust.c **** ,   {   READ_REG,    &gs_reg_gamma[2],        "#define IMGC_GAMMA_G_TH_02                   ",     
 587:../src/renesas/application/r_cui_image_adjust.c **** ,   {   READ_REG,    &gs_reg_gamma[3],        "#define IMGC_GAMMA_G_TH_03                   ",     
 588:../src/renesas/application/r_cui_image_adjust.c **** ,   {   READ_REG,    &gs_reg_gamma[4],        "#define IMGC_GAMMA_G_TH_04                   ",     
 589:../src/renesas/application/r_cui_image_adjust.c **** ,   {   READ_REG,    &gs_reg_gamma[5],        "#define IMGC_GAMMA_G_TH_05                   ",     
 590:../src/renesas/application/r_cui_image_adjust.c **** ,   {   READ_REG,    &gs_reg_gamma[6],        "#define IMGC_GAMMA_G_TH_06                   ",     
 591:../src/renesas/application/r_cui_image_adjust.c **** ,   {   READ_REG,    &gs_reg_gamma[7],        "#define IMGC_GAMMA_G_TH_07                   ",     
 592:../src/renesas/application/r_cui_image_adjust.c **** ,   {   READ_REG,    &gs_reg_gamma[8],        "#define IMGC_GAMMA_G_TH_08                   ",     
 593:../src/renesas/application/r_cui_image_adjust.c **** ,   {   READ_REG,    &gs_reg_gamma[9],        "#define IMGC_GAMMA_G_TH_09                   ",     
 594:../src/renesas/application/r_cui_image_adjust.c **** ,   {   READ_REG,    &gs_reg_gamma[10],       "#define IMGC_GAMMA_G_TH_10                   ",     
 595:../src/renesas/application/r_cui_image_adjust.c **** ,   {   READ_REG,    &gs_reg_gamma[11],       "#define IMGC_GAMMA_G_TH_11                   ",     
 596:../src/renesas/application/r_cui_image_adjust.c **** ,   {   READ_REG,    &gs_reg_gamma[12],       "#define IMGC_GAMMA_G_TH_12                   ",     
 597:../src/renesas/application/r_cui_image_adjust.c **** ,   {   READ_REG,    &gs_reg_gamma[13],       "#define IMGC_GAMMA_G_TH_13                   ",     
 598:../src/renesas/application/r_cui_image_adjust.c **** ,   {   READ_REG,    &gs_reg_gamma[14],       "#define IMGC_GAMMA_G_TH_14                   ",     
 599:../src/renesas/application/r_cui_image_adjust.c **** ,   {   READ_REG,    &gs_reg_gamma[15],       "#define IMGC_GAMMA_G_TH_15                   ",     
 600:../src/renesas/application/r_cui_image_adjust.c **** ,   {   READ_REG,    &gs_reg_gamma[16],       "#define IMGC_GAMMA_G_TH_16                   ",     
 601:../src/renesas/application/r_cui_image_adjust.c **** ,   {   READ_REG,    &gs_reg_gamma[17],       "#define IMGC_GAMMA_G_TH_17                   ",     
 602:../src/renesas/application/r_cui_image_adjust.c **** ,   {   READ_REG,    &gs_reg_gamma[18],       "#define IMGC_GAMMA_G_TH_18                   ",     
 603:../src/renesas/application/r_cui_image_adjust.c **** ,   {   READ_REG,    &gs_reg_gamma[19],       "#define IMGC_GAMMA_G_TH_19                   ",     
 604:../src/renesas/application/r_cui_image_adjust.c **** ,   {   READ_REG,    &gs_reg_gamma[20],       "#define IMGC_GAMMA_G_TH_20                   ",     
 605:../src/renesas/application/r_cui_image_adjust.c **** ,   {   READ_REG,    &gs_reg_gamma[21],       "#define IMGC_GAMMA_G_TH_21                   ",     
 606:../src/renesas/application/r_cui_image_adjust.c **** ,   {   READ_REG,    &gs_reg_gamma[22],       "#define IMGC_GAMMA_G_TH_22                   ",     
 607:../src/renesas/application/r_cui_image_adjust.c **** ,   {   READ_REG,    &gs_reg_gamma[23],       "#define IMGC_GAMMA_G_TH_23                   ",     
 608:../src/renesas/application/r_cui_image_adjust.c **** ,   {   READ_REG,    &gs_reg_gamma[24],       "#define IMGC_GAMMA_G_TH_24                   ",     
 609:../src/renesas/application/r_cui_image_adjust.c **** ,   {   READ_REG,    &gs_reg_gamma[25],       "#define IMGC_GAMMA_G_TH_25                   ",     
 610:../src/renesas/application/r_cui_image_adjust.c **** ,   {   READ_REG,    &gs_reg_gamma[26],       "#define IMGC_GAMMA_G_TH_26                   ",     
 611:../src/renesas/application/r_cui_image_adjust.c **** ,   {   READ_REG,    &gs_reg_gamma[27],       "#define IMGC_GAMMA_G_TH_27                   ",     
 612:../src/renesas/application/r_cui_image_adjust.c **** ,   {   READ_REG,    &gs_reg_gamma[28],       "#define IMGC_GAMMA_G_TH_28                   ",     
 613:../src/renesas/application/r_cui_image_adjust.c **** ,   {   READ_REG,    &gs_reg_gamma[29],       "#define IMGC_GAMMA_G_TH_29                   ",     
 614:../src/renesas/application/r_cui_image_adjust.c **** ,   {   READ_REG,    &gs_reg_gamma[30],       "#define IMGC_GAMMA_G_TH_30                   ",     
 615:../src/renesas/application/r_cui_image_adjust.c **** ,   {   READ_REG,    &gs_reg_gamma[31],       "#define IMGC_GAMMA_G_TH_31                   ",     
 616:../src/renesas/application/r_cui_image_adjust.c **** ,   {   READ_REG,    &gs_reg_gamma[95],       "#define IMGC_GAMMA_B_GAIN_00                 ",     
 617:../src/renesas/application/r_cui_image_adjust.c **** ,   {   READ_REG,    &gs_reg_gamma[96],       "#define IMGC_GAMMA_B_GAIN_01                 ",     
 618:../src/renesas/application/r_cui_image_adjust.c **** ,   {   READ_REG,    &gs_reg_gamma[97],       "#define IMGC_GAMMA_B_GAIN_02                 ",     
 619:../src/renesas/application/r_cui_image_adjust.c **** ,   {   READ_REG,    &gs_reg_gamma[98],       "#define IMGC_GAMMA_B_GAIN_03                 ",     
 620:../src/renesas/application/r_cui_image_adjust.c **** ,   {   READ_REG,    &gs_reg_gamma[99],       "#define IMGC_GAMMA_B_GAIN_04                 ",     
 621:../src/renesas/application/r_cui_image_adjust.c **** ,   {   READ_REG,    &gs_reg_gamma[100],      "#define IMGC_GAMMA_B_GAIN_05                 ",     
 622:../src/renesas/application/r_cui_image_adjust.c **** ,   {   READ_REG,    &gs_reg_gamma[101],      "#define IMGC_GAMMA_B_GAIN_06                 ",     
 623:../src/renesas/application/r_cui_image_adjust.c **** ,   {   READ_REG,    &gs_reg_gamma[102],      "#define IMGC_GAMMA_B_GAIN_07                 ",     
 624:../src/renesas/application/r_cui_image_adjust.c **** ,   {   READ_REG,    &gs_reg_gamma[103],      "#define IMGC_GAMMA_B_GAIN_08                 ",     
 625:../src/renesas/application/r_cui_image_adjust.c **** ,   {   READ_REG,    &gs_reg_gamma[104],      "#define IMGC_GAMMA_B_GAIN_09                 ",     
 626:../src/renesas/application/r_cui_image_adjust.c **** ,   {   READ_REG,    &gs_reg_gamma[105],      "#define IMGC_GAMMA_B_GAIN_10                 ",     
 627:../src/renesas/application/r_cui_image_adjust.c **** ,   {   READ_REG,    &gs_reg_gamma[106],      "#define IMGC_GAMMA_B_GAIN_11                 ",     
 628:../src/renesas/application/r_cui_image_adjust.c **** ,   {   READ_REG,    &gs_reg_gamma[107],      "#define IMGC_GAMMA_B_GAIN_12                 ",     
 629:../src/renesas/application/r_cui_image_adjust.c **** ,   {   READ_REG,    &gs_reg_gamma[108],      "#define IMGC_GAMMA_B_GAIN_13                 ",     
 630:../src/renesas/application/r_cui_image_adjust.c **** ,   {   READ_REG,    &gs_reg_gamma[109],      "#define IMGC_GAMMA_B_GAIN_14                 ",     
 631:../src/renesas/application/r_cui_image_adjust.c **** ,   {   READ_REG,    &gs_reg_gamma[110],      "#define IMGC_GAMMA_B_GAIN_15                 ",     
 632:../src/renesas/application/r_cui_image_adjust.c **** ,   {   READ_REG,    &gs_reg_gamma[111],      "#define IMGC_GAMMA_B_GAIN_16                 ",     
 633:../src/renesas/application/r_cui_image_adjust.c **** ,   {   READ_REG,    &gs_reg_gamma[112],      "#define IMGC_GAMMA_B_GAIN_17                 ",     
 634:../src/renesas/application/r_cui_image_adjust.c **** ,   {   READ_REG,    &gs_reg_gamma[113],      "#define IMGC_GAMMA_B_GAIN_18                 ",     
 635:../src/renesas/application/r_cui_image_adjust.c **** ,   {   READ_REG,    &gs_reg_gamma[114],      "#define IMGC_GAMMA_B_GAIN_19                 ",     
 636:../src/renesas/application/r_cui_image_adjust.c **** ,   {   READ_REG,    &gs_reg_gamma[115],      "#define IMGC_GAMMA_B_GAIN_20                 ",     
 637:../src/renesas/application/r_cui_image_adjust.c **** ,   {   READ_REG,    &gs_reg_gamma[116],      "#define IMGC_GAMMA_B_GAIN_21                 ",     
 638:../src/renesas/application/r_cui_image_adjust.c **** ,   {   READ_REG,    &gs_reg_gamma[117],      "#define IMGC_GAMMA_B_GAIN_22                 ",     
 639:../src/renesas/application/r_cui_image_adjust.c **** ,   {   READ_REG,    &gs_reg_gamma[118],      "#define IMGC_GAMMA_B_GAIN_23                 ",     
 640:../src/renesas/application/r_cui_image_adjust.c **** ,   {   READ_REG,    &gs_reg_gamma[119],      "#define IMGC_GAMMA_B_GAIN_24                 ",     
 641:../src/renesas/application/r_cui_image_adjust.c **** ,   {   READ_REG,    &gs_reg_gamma[120],      "#define IMGC_GAMMA_B_GAIN_25                 ",     
 642:../src/renesas/application/r_cui_image_adjust.c **** ,   {   READ_REG,    &gs_reg_gamma[121],      "#define IMGC_GAMMA_B_GAIN_26                 ",     
 643:../src/renesas/application/r_cui_image_adjust.c **** ,   {   READ_REG,    &gs_reg_gamma[122],      "#define IMGC_GAMMA_B_GAIN_27                 ",     
 644:../src/renesas/application/r_cui_image_adjust.c **** ,   {   READ_REG,    &gs_reg_gamma[123],      "#define IMGC_GAMMA_B_GAIN_28                 ",     
 645:../src/renesas/application/r_cui_image_adjust.c **** ,   {   READ_REG,    &gs_reg_gamma[124],      "#define IMGC_GAMMA_B_GAIN_29                 ",     
 646:../src/renesas/application/r_cui_image_adjust.c **** ,   {   READ_REG,    &gs_reg_gamma[125],      "#define IMGC_GAMMA_B_GAIN_30                 ",     
 647:../src/renesas/application/r_cui_image_adjust.c **** ,   {   READ_REG,    &gs_reg_gamma[126],      "#define IMGC_GAMMA_B_GAIN_31                 ",     
 648:../src/renesas/application/r_cui_image_adjust.c **** ,   {   READ_REG,    &gs_reg_gamma[64],       "#define IMGC_GAMMA_B_TH_01                   ",     
 649:../src/renesas/application/r_cui_image_adjust.c **** ,   {   READ_REG,    &gs_reg_gamma[65],       "#define IMGC_GAMMA_B_TH_02                   ",     
 650:../src/renesas/application/r_cui_image_adjust.c **** ,   {   READ_REG,    &gs_reg_gamma[66],       "#define IMGC_GAMMA_B_TH_03                   ",     
 651:../src/renesas/application/r_cui_image_adjust.c **** ,   {   READ_REG,    &gs_reg_gamma[67],       "#define IMGC_GAMMA_B_TH_04                   ",     
 652:../src/renesas/application/r_cui_image_adjust.c **** ,   {   READ_REG,    &gs_reg_gamma[68],       "#define IMGC_GAMMA_B_TH_05                   ",     
 653:../src/renesas/application/r_cui_image_adjust.c **** ,   {   READ_REG,    &gs_reg_gamma[69],       "#define IMGC_GAMMA_B_TH_06                   ",     
 654:../src/renesas/application/r_cui_image_adjust.c **** ,   {   READ_REG,    &gs_reg_gamma[70],       "#define IMGC_GAMMA_B_TH_07                   ",     
 655:../src/renesas/application/r_cui_image_adjust.c **** ,   {   READ_REG,    &gs_reg_gamma[71],       "#define IMGC_GAMMA_B_TH_08                   ",     
 656:../src/renesas/application/r_cui_image_adjust.c **** ,   {   READ_REG,    &gs_reg_gamma[72],       "#define IMGC_GAMMA_B_TH_09                   ",     
 657:../src/renesas/application/r_cui_image_adjust.c **** ,   {   READ_REG,    &gs_reg_gamma[73],       "#define IMGC_GAMMA_B_TH_10                   ",     
 658:../src/renesas/application/r_cui_image_adjust.c **** ,   {   READ_REG,    &gs_reg_gamma[74],       "#define IMGC_GAMMA_B_TH_11                   ",     
 659:../src/renesas/application/r_cui_image_adjust.c **** ,   {   READ_REG,    &gs_reg_gamma[75],       "#define IMGC_GAMMA_B_TH_12                   ",     
 660:../src/renesas/application/r_cui_image_adjust.c **** ,   {   READ_REG,    &gs_reg_gamma[76],       "#define IMGC_GAMMA_B_TH_13                   ",     
 661:../src/renesas/application/r_cui_image_adjust.c **** ,   {   READ_REG,    &gs_reg_gamma[77],       "#define IMGC_GAMMA_B_TH_14                   ",     
 662:../src/renesas/application/r_cui_image_adjust.c **** ,   {   READ_REG,    &gs_reg_gamma[78],       "#define IMGC_GAMMA_B_TH_15                   ",     
 663:../src/renesas/application/r_cui_image_adjust.c **** ,   {   READ_REG,    &gs_reg_gamma[79],       "#define IMGC_GAMMA_B_TH_16                   ",     
 664:../src/renesas/application/r_cui_image_adjust.c **** ,   {   READ_REG,    &gs_reg_gamma[80],       "#define IMGC_GAMMA_B_TH_17                   ",     
 665:../src/renesas/application/r_cui_image_adjust.c **** ,   {   READ_REG,    &gs_reg_gamma[81],       "#define IMGC_GAMMA_B_TH_18                   ",     
 666:../src/renesas/application/r_cui_image_adjust.c **** ,   {   READ_REG,    &gs_reg_gamma[82],       "#define IMGC_GAMMA_B_TH_19                   ",     
 667:../src/renesas/application/r_cui_image_adjust.c **** ,   {   READ_REG,    &gs_reg_gamma[83],       "#define IMGC_GAMMA_B_TH_20                   ",     
 668:../src/renesas/application/r_cui_image_adjust.c **** ,   {   READ_REG,    &gs_reg_gamma[84],       "#define IMGC_GAMMA_B_TH_21                   ",     
 669:../src/renesas/application/r_cui_image_adjust.c **** ,   {   READ_REG,    &gs_reg_gamma[85],       "#define IMGC_GAMMA_B_TH_22                   ",     
 670:../src/renesas/application/r_cui_image_adjust.c **** ,   {   READ_REG,    &gs_reg_gamma[86],       "#define IMGC_GAMMA_B_TH_23                   ",     
 671:../src/renesas/application/r_cui_image_adjust.c **** ,   {   READ_REG,    &gs_reg_gamma[87],       "#define IMGC_GAMMA_B_TH_24                   ",     
 672:../src/renesas/application/r_cui_image_adjust.c **** ,   {   READ_REG,    &gs_reg_gamma[88],       "#define IMGC_GAMMA_B_TH_25                   ",     
 673:../src/renesas/application/r_cui_image_adjust.c **** ,   {   READ_REG,    &gs_reg_gamma[89],       "#define IMGC_GAMMA_B_TH_26                   ",     
 674:../src/renesas/application/r_cui_image_adjust.c **** ,   {   READ_REG,    &gs_reg_gamma[90],       "#define IMGC_GAMMA_B_TH_27                   ",     
 675:../src/renesas/application/r_cui_image_adjust.c **** ,   {   READ_REG,    &gs_reg_gamma[91],       "#define IMGC_GAMMA_B_TH_28                   ",     
 676:../src/renesas/application/r_cui_image_adjust.c **** ,   {   READ_REG,    &gs_reg_gamma[92],       "#define IMGC_GAMMA_B_TH_29                   ",     
 677:../src/renesas/application/r_cui_image_adjust.c **** ,   {   READ_REG,    &gs_reg_gamma[93],       "#define IMGC_GAMMA_B_TH_30                   ",     
 678:../src/renesas/application/r_cui_image_adjust.c **** ,   {   READ_REG,    &gs_reg_gamma[94],       "#define IMGC_GAMMA_B_TH_31                   ",     
 679:../src/renesas/application/r_cui_image_adjust.c **** ,   {   READ_REG,    &gs_reg_gamma[158],      "#define IMGC_GAMMA_R_GAIN_00                 ",     
 680:../src/renesas/application/r_cui_image_adjust.c **** ,   {   READ_REG,    &gs_reg_gamma[159],      "#define IMGC_GAMMA_R_GAIN_01                 ",     
 681:../src/renesas/application/r_cui_image_adjust.c **** ,   {   READ_REG,    &gs_reg_gamma[160],      "#define IMGC_GAMMA_R_GAIN_02                 ",     
 682:../src/renesas/application/r_cui_image_adjust.c **** ,   {   READ_REG,    &gs_reg_gamma[161],      "#define IMGC_GAMMA_R_GAIN_03                 ",     
 683:../src/renesas/application/r_cui_image_adjust.c **** ,   {   READ_REG,    &gs_reg_gamma[162],      "#define IMGC_GAMMA_R_GAIN_04                 ",     
 684:../src/renesas/application/r_cui_image_adjust.c **** ,   {   READ_REG,    &gs_reg_gamma[163],      "#define IMGC_GAMMA_R_GAIN_05                 ",     
 685:../src/renesas/application/r_cui_image_adjust.c **** ,   {   READ_REG,    &gs_reg_gamma[164],      "#define IMGC_GAMMA_R_GAIN_06                 ",     
 686:../src/renesas/application/r_cui_image_adjust.c **** ,   {   READ_REG,    &gs_reg_gamma[165],      "#define IMGC_GAMMA_R_GAIN_07                 ",     
 687:../src/renesas/application/r_cui_image_adjust.c **** ,   {   READ_REG,    &gs_reg_gamma[166],      "#define IMGC_GAMMA_R_GAIN_08                 ",     
 688:../src/renesas/application/r_cui_image_adjust.c **** ,   {   READ_REG,    &gs_reg_gamma[167],      "#define IMGC_GAMMA_R_GAIN_09                 ",     
 689:../src/renesas/application/r_cui_image_adjust.c **** ,   {   READ_REG,    &gs_reg_gamma[168],      "#define IMGC_GAMMA_R_GAIN_10                 ",     
 690:../src/renesas/application/r_cui_image_adjust.c **** ,   {   READ_REG,    &gs_reg_gamma[169],      "#define IMGC_GAMMA_R_GAIN_11                 ",     
 691:../src/renesas/application/r_cui_image_adjust.c **** ,   {   READ_REG,    &gs_reg_gamma[170],      "#define IMGC_GAMMA_R_GAIN_12                 ",     
 692:../src/renesas/application/r_cui_image_adjust.c **** ,   {   READ_REG,    &gs_reg_gamma[171],      "#define IMGC_GAMMA_R_GAIN_13                 ",     
 693:../src/renesas/application/r_cui_image_adjust.c **** ,   {   READ_REG,    &gs_reg_gamma[172],      "#define IMGC_GAMMA_R_GAIN_14                 ",     
 694:../src/renesas/application/r_cui_image_adjust.c **** ,   {   READ_REG,    &gs_reg_gamma[173],      "#define IMGC_GAMMA_R_GAIN_15                 ",     
 695:../src/renesas/application/r_cui_image_adjust.c **** ,   {   READ_REG,    &gs_reg_gamma[174],      "#define IMGC_GAMMA_R_GAIN_16                 ",     
 696:../src/renesas/application/r_cui_image_adjust.c **** ,   {   READ_REG,    &gs_reg_gamma[175],      "#define IMGC_GAMMA_R_GAIN_17                 ",     
 697:../src/renesas/application/r_cui_image_adjust.c **** ,   {   READ_REG,    &gs_reg_gamma[176],      "#define IMGC_GAMMA_R_GAIN_18                 ",     
 698:../src/renesas/application/r_cui_image_adjust.c **** ,   {   READ_REG,    &gs_reg_gamma[177],      "#define IMGC_GAMMA_R_GAIN_19                 ",     
 699:../src/renesas/application/r_cui_image_adjust.c **** ,   {   READ_REG,    &gs_reg_gamma[178],      "#define IMGC_GAMMA_R_GAIN_20                 ",     
 700:../src/renesas/application/r_cui_image_adjust.c **** ,   {   READ_REG,    &gs_reg_gamma[179],      "#define IMGC_GAMMA_R_GAIN_21                 ",     
 701:../src/renesas/application/r_cui_image_adjust.c **** ,   {   READ_REG,    &gs_reg_gamma[180],      "#define IMGC_GAMMA_R_GAIN_22                 ",     
 702:../src/renesas/application/r_cui_image_adjust.c **** ,   {   READ_REG,    &gs_reg_gamma[181],      "#define IMGC_GAMMA_R_GAIN_23                 ",     
 703:../src/renesas/application/r_cui_image_adjust.c **** ,   {   READ_REG,    &gs_reg_gamma[182],      "#define IMGC_GAMMA_R_GAIN_24                 ",     
 704:../src/renesas/application/r_cui_image_adjust.c **** ,   {   READ_REG,    &gs_reg_gamma[183],      "#define IMGC_GAMMA_R_GAIN_25                 ",     
 705:../src/renesas/application/r_cui_image_adjust.c **** ,   {   READ_REG,    &gs_reg_gamma[184],      "#define IMGC_GAMMA_R_GAIN_26                 ",     
 706:../src/renesas/application/r_cui_image_adjust.c **** ,   {   READ_REG,    &gs_reg_gamma[185],      "#define IMGC_GAMMA_R_GAIN_27                 ",     
 707:../src/renesas/application/r_cui_image_adjust.c **** ,   {   READ_REG,    &gs_reg_gamma[186],      "#define IMGC_GAMMA_R_GAIN_28                 ",     
 708:../src/renesas/application/r_cui_image_adjust.c **** ,   {   READ_REG,    &gs_reg_gamma[187],      "#define IMGC_GAMMA_R_GAIN_29                 ",     
 709:../src/renesas/application/r_cui_image_adjust.c **** ,   {   READ_REG,    &gs_reg_gamma[188],      "#define IMGC_GAMMA_R_GAIN_30                 ",     
 710:../src/renesas/application/r_cui_image_adjust.c **** ,   {   READ_REG,    &gs_reg_gamma[189],      "#define IMGC_GAMMA_R_GAIN_31                 ",     
 711:../src/renesas/application/r_cui_image_adjust.c **** ,   {   READ_REG,    &gs_reg_gamma[127],      "#define IMGC_GAMMA_R_TH_01                   ",     
 712:../src/renesas/application/r_cui_image_adjust.c **** ,   {   READ_REG,    &gs_reg_gamma[128],      "#define IMGC_GAMMA_R_TH_02                   ",     
 713:../src/renesas/application/r_cui_image_adjust.c **** ,   {   READ_REG,    &gs_reg_gamma[129],      "#define IMGC_GAMMA_R_TH_03                   ",     
 714:../src/renesas/application/r_cui_image_adjust.c **** ,   {   READ_REG,    &gs_reg_gamma[130],      "#define IMGC_GAMMA_R_TH_04                   ",     
 715:../src/renesas/application/r_cui_image_adjust.c **** ,   {   READ_REG,    &gs_reg_gamma[131],      "#define IMGC_GAMMA_R_TH_05                   ",     
 716:../src/renesas/application/r_cui_image_adjust.c **** ,   {   READ_REG,    &gs_reg_gamma[132],      "#define IMGC_GAMMA_R_TH_06                   ",     
 717:../src/renesas/application/r_cui_image_adjust.c **** ,   {   READ_REG,    &gs_reg_gamma[133],      "#define IMGC_GAMMA_R_TH_07                   ",     
 718:../src/renesas/application/r_cui_image_adjust.c **** ,   {   READ_REG,    &gs_reg_gamma[134],      "#define IMGC_GAMMA_R_TH_08                   ",     
 719:../src/renesas/application/r_cui_image_adjust.c **** ,   {   READ_REG,    &gs_reg_gamma[135],      "#define IMGC_GAMMA_R_TH_09                   ",     
 720:../src/renesas/application/r_cui_image_adjust.c **** ,   {   READ_REG,    &gs_reg_gamma[136],      "#define IMGC_GAMMA_R_TH_10                   ",     
 721:../src/renesas/application/r_cui_image_adjust.c **** ,   {   READ_REG,    &gs_reg_gamma[137],      "#define IMGC_GAMMA_R_TH_11                   ",     
 722:../src/renesas/application/r_cui_image_adjust.c **** ,   {   READ_REG,    &gs_reg_gamma[138],      "#define IMGC_GAMMA_R_TH_12                   ",     
 723:../src/renesas/application/r_cui_image_adjust.c **** ,   {   READ_REG,    &gs_reg_gamma[139],      "#define IMGC_GAMMA_R_TH_13                   ",     
 724:../src/renesas/application/r_cui_image_adjust.c **** ,   {   READ_REG,    &gs_reg_gamma[140],      "#define IMGC_GAMMA_R_TH_14                   ",     
 725:../src/renesas/application/r_cui_image_adjust.c **** ,   {   READ_REG,    &gs_reg_gamma[141],      "#define IMGC_GAMMA_R_TH_15                   ",     
 726:../src/renesas/application/r_cui_image_adjust.c **** ,   {   READ_REG,    &gs_reg_gamma[142],      "#define IMGC_GAMMA_R_TH_16                   ",     
 727:../src/renesas/application/r_cui_image_adjust.c **** ,   {   READ_REG,    &gs_reg_gamma[143],      "#define IMGC_GAMMA_R_TH_17                   ",     
 728:../src/renesas/application/r_cui_image_adjust.c **** ,   {   READ_REG,    &gs_reg_gamma[144],      "#define IMGC_GAMMA_R_TH_18                   ",     
 729:../src/renesas/application/r_cui_image_adjust.c **** ,   {   READ_REG,    &gs_reg_gamma[145],      "#define IMGC_GAMMA_R_TH_19                   ",     
 730:../src/renesas/application/r_cui_image_adjust.c **** ,   {   READ_REG,    &gs_reg_gamma[146],      "#define IMGC_GAMMA_R_TH_20                   ",     
 731:../src/renesas/application/r_cui_image_adjust.c **** ,   {   READ_REG,    &gs_reg_gamma[147],      "#define IMGC_GAMMA_R_TH_21                   ",     
 732:../src/renesas/application/r_cui_image_adjust.c **** ,   {   READ_REG,    &gs_reg_gamma[148],      "#define IMGC_GAMMA_R_TH_22                   ",     
 733:../src/renesas/application/r_cui_image_adjust.c **** ,   {   READ_REG,    &gs_reg_gamma[149],      "#define IMGC_GAMMA_R_TH_23                   ",     
 734:../src/renesas/application/r_cui_image_adjust.c **** ,   {   READ_REG,    &gs_reg_gamma[150],      "#define IMGC_GAMMA_R_TH_24                   ",     
 735:../src/renesas/application/r_cui_image_adjust.c **** ,   {   READ_REG,    &gs_reg_gamma[151],      "#define IMGC_GAMMA_R_TH_25                   ",     
 736:../src/renesas/application/r_cui_image_adjust.c **** ,   {   READ_REG,    &gs_reg_gamma[152],      "#define IMGC_GAMMA_R_TH_26                   ",     
 737:../src/renesas/application/r_cui_image_adjust.c **** ,   {   READ_REG,    &gs_reg_gamma[153],      "#define IMGC_GAMMA_R_TH_27                   ",     
 738:../src/renesas/application/r_cui_image_adjust.c **** ,   {   READ_REG,    &gs_reg_gamma[154],      "#define IMGC_GAMMA_R_TH_28                   ",     
 739:../src/renesas/application/r_cui_image_adjust.c **** ,   {   READ_REG,    &gs_reg_gamma[155],      "#define IMGC_GAMMA_R_TH_29                   ",     
 740:../src/renesas/application/r_cui_image_adjust.c **** ,   {   READ_REG,    &gs_reg_gamma[156],      "#define IMGC_GAMMA_R_TH_30                   ",     
 741:../src/renesas/application/r_cui_image_adjust.c **** ,   {   READ_REG,    &gs_reg_gamma[157],      "#define IMGC_GAMMA_R_TH_31                   ",     
 742:../src/renesas/application/r_cui_image_adjust.c **** ,   {   NOT_READ,    NULL,                    "\n/* Dither Process */",                            
 743:../src/renesas/application/r_cui_image_adjust.c **** ,   {   READ_REG,    &gs_reg_dither[0],       "#define IMGC_DITHER_MODE",                          
 744:../src/renesas/application/r_cui_image_adjust.c **** ,   {   NOT_READ,    NULL,                    "#define IMGC_DITHER_2X2_PA                   (3u)   
 745:../src/renesas/application/r_cui_image_adjust.c **** ,   {   NOT_READ,    NULL,                    "#define IMGC_DITHER_2X2_PB                   (0u)   
 746:../src/renesas/application/r_cui_image_adjust.c **** ,   {   NOT_READ,    NULL,                    "#define IMGC_DITHER_2X2_PC                   (2u)   
 747:../src/renesas/application/r_cui_image_adjust.c **** ,   {   NOT_READ,    NULL,                    "#define IMGC_DITHER_2X2_PD                   (1u)   
 748:../src/renesas/application/r_cui_image_adjust.c **** ,   {   NOT_READ,    NULL,                    "\n/* Horizontal Mirroring and Rotation */",         
 749:../src/renesas/application/r_cui_image_adjust.c **** ,   {   READ_REG,    &gs_reg_rotation[0],     "#define IMGC_ROTATION_MODE ",                       
 750:../src/renesas/application/r_cui_image_adjust.c **** ,   {   NOT_READ,    NULL,                    "\n#endif  /* IMG_CONFIG_H */",                      
 751:../src/renesas/application/r_cui_image_adjust.c **** };
 752:../src/renesas/application/r_cui_image_adjust.c **** 
 753:../src/renesas/application/r_cui_image_adjust.c **** /* whole update registers */
 754:../src/renesas/application/r_cui_image_adjust.c **** static st_all_reg_t const gs_update_reg [] =
 755:../src/renesas/application/r_cui_image_adjust.c **** {
 756:../src/renesas/application/r_cui_image_adjust.c ****     /* Cast to an appropriate type */
 757:../src/renesas/application/r_cui_image_adjust.c ****     {   "VDC6.INP_UPDATE",          &VDC6.INP_UPDATE.LONG,           0x00000011  }/* Cast to an app
 758:../src/renesas/application/r_cui_image_adjust.c **** ,   {   "VDC6.IMGCNT_UPDATE",       &VDC6.IMGCNT_UPDATE.LONG,        0x00000001  }/* Cast to an app
 759:../src/renesas/application/r_cui_image_adjust.c **** ,   {   "VDC6.SC0_SCL0_UPDATE",     &VDC6.SC0_SCL0_UPDATE.LONG,      0x00003111  }/* Cast to an app
 760:../src/renesas/application/r_cui_image_adjust.c **** ,   {   "VDC6.SC0_SCL1_UPDATE",     &VDC6.SC0_SCL1_UPDATE.LONG,      0x00110011  }/* Cast to an app
 761:../src/renesas/application/r_cui_image_adjust.c **** ,   {   "VDC6.ADJ0_UPDATE",         &VDC6.ADJ0_UPDATE.LONG,          0x00000001  }/* Cast to an app
 762:../src/renesas/application/r_cui_image_adjust.c **** ,   {   "VDC6.OUT_UPDATE",          &VDC6.OUT_UPDATE.LONG,           0x00000001  }/* Cast to an app
 763:../src/renesas/application/r_cui_image_adjust.c **** ,   {   "VDC6.GAM_G_UPDATE",        &VDC6.GAM_G_UPDATE.LONG,         0x00000001  }/* Cast to an app
 764:../src/renesas/application/r_cui_image_adjust.c **** ,   {   "VDC6.GAM_B_UPDATE",        &VDC6.GAM_B_UPDATE.LONG,         0x00000001  }/* Cast to an app
 765:../src/renesas/application/r_cui_image_adjust.c **** ,   {   "VDC6.GAM_R_UPDATE",        &VDC6.GAM_R_UPDATE.LONG,         0x00000001  }/* Cast to an app
 766:../src/renesas/application/r_cui_image_adjust.c **** };
 767:../src/renesas/application/r_cui_image_adjust.c **** 
 768:../src/renesas/application/r_cui_image_adjust.c **** /* menu specification */
 769:../src/renesas/application/r_cui_image_adjust.c **** static const st_menu_t current_menu[CUI_MAX_MENUID]=
 770:../src/renesas/application/r_cui_image_adjust.c **** {
 771:../src/renesas/application/r_cui_image_adjust.c ****         /* menu ID                  kind of menu                number of branch            text1  
 772:../src/renesas/application/r_cui_image_adjust.c ****     {   CUI_STATE_TOP,              CUI_PATTERN_TRANSITION,     CUI_SELNUM_TOP,             gs_top_
 773:../src/renesas/application/r_cui_image_adjust.c **** ,   {   CUI_STATE_BRIGHT,           CUI_PATTERN_TRANSITION,     CUI_SELNUM_BRIGHT,          gs_brig
 774:../src/renesas/application/r_cui_image_adjust.c **** ,   {   CUI_STATE_BRIGHT_IN,        CUI_PATTERN_PRESET,         CUI_SELNUM_HML,             gs_brig
 775:../src/renesas/application/r_cui_image_adjust.c **** ,   {   CUI_STATE_BRIGHT_OUT,       CUI_PATTERN_PRESET,         CUI_SELNUM_HML,             gs_brig
 776:../src/renesas/application/r_cui_image_adjust.c **** ,   {   CUI_STATE_BRIGHT_IN_C,      CUI_PATTERN_REGISTERLIST,   CUI_REGNUM_BRIGHT_IN,       gs_all_
 777:../src/renesas/application/r_cui_image_adjust.c **** ,   {   CUI_STATE_BRIGHT_IN_C_0,    CUI_PATTERN_REGISTERSET,    0,                          gs_all_
 778:../src/renesas/application/r_cui_image_adjust.c **** ,   {   CUI_STATE_BRIGHT_OUT_C,     CUI_PATTERN_REGISTERLIST,   CUI_REGNUM_BRIGHT_OUT,      gs_all_
 779:../src/renesas/application/r_cui_image_adjust.c **** ,   {   CUI_STATE_BRIGHT_OUT_C_0,   CUI_PATTERN_REGISTERSET,    0,                          gs_all_
 780:../src/renesas/application/r_cui_image_adjust.c **** ,   {   CUI_STATE_BRIGHT_OUT_C_1,   CUI_PATTERN_REGISTERSET,    0,                          gs_all_
 781:../src/renesas/application/r_cui_image_adjust.c **** ,   {   CUI_STATE_BRIGHT_OUT_C_2,   CUI_PATTERN_REGISTERSET,    0,                          gs_all_
 782:../src/renesas/application/r_cui_image_adjust.c **** ,   {   CUI_STATE_CONTRAST,         CUI_PATTERN_TRANSITION,     CUI_SELNUM_CONTRAST,        gs_cont
 783:../src/renesas/application/r_cui_image_adjust.c **** ,   {   CUI_STATE_CONTRAST_IN,      CUI_PATTERN_PRESET,         CUI_SELNUM_HML,             gs_cont
 784:../src/renesas/application/r_cui_image_adjust.c **** ,   {   CUI_STATE_CONTRAST_OUT,     CUI_PATTERN_PRESET,         CUI_SELNUM_HML,             gs_cont
 785:../src/renesas/application/r_cui_image_adjust.c **** ,   {   CUI_STATE_CONTRAST_IN_C,    CUI_PATTERN_REGISTERLIST,   CUI_REGNUM_CONTRAST_IN,     gs_all_
 786:../src/renesas/application/r_cui_image_adjust.c **** ,   {   CUI_STATE_CONTRAST_IN_C_0,  CUI_PATTERN_REGISTERSET,    0,                          gs_all_
 787:../src/renesas/application/r_cui_image_adjust.c **** ,   {   CUI_STATE_CONTRAST_OUT_C,   CUI_PATTERN_REGISTERLIST,   CUI_REGNUM_CONTRAST_OUT,    gs_all_
 788:../src/renesas/application/r_cui_image_adjust.c **** ,   {   CUI_STATE_CONTRAST_OUT_C_0, CUI_PATTERN_REGISTERSET,    0,                          gs_all_
 789:../src/renesas/application/r_cui_image_adjust.c **** ,   {   CUI_STATE_CONTRAST_OUT_C_1, CUI_PATTERN_REGISTERSET,    0,                          gs_all_
 790:../src/renesas/application/r_cui_image_adjust.c **** ,   {   CUI_STATE_CONTRAST_OUT_C_2, CUI_PATTERN_REGISTERSET,    0,                          gs_all_
 791:../src/renesas/application/r_cui_image_adjust.c **** ,   {   CUI_STATE_SHARPNESS,        CUI_PATTERN_PRESET,         CUI_SELNUM_SHARP,           gs_shar
 792:../src/renesas/application/r_cui_image_adjust.c **** ,   {   CUI_STATE_SHARPNESS_C,      CUI_PATTERN_REGISTERLIST,   CUI_REGNUM_SHARP,           gs_all_
 793:../src/renesas/application/r_cui_image_adjust.c **** ,   {   CUI_STATE_SHARPNESS_C_0,    CUI_PATTERN_REGISTERSET,    0,                          gs_all_
 794:../src/renesas/application/r_cui_image_adjust.c **** ,   {   CUI_STATE_SHARPNESS_C_1,    CUI_PATTERN_REGISTERSET,    0,                          gs_all_
 795:../src/renesas/application/r_cui_image_adjust.c **** ,   {   CUI_STATE_SHARPNESS_C_2,    CUI_PATTERN_REGISTERSET,    0,                          gs_all_
 796:../src/renesas/application/r_cui_image_adjust.c **** ,   {   CUI_STATE_SHARPNESS_C_3,    CUI_PATTERN_REGISTERSET,    0,                          gs_all_
 797:../src/renesas/application/r_cui_image_adjust.c **** ,   {   CUI_STATE_SHARPNESS_C_4,    CUI_PATTERN_REGISTERSET,    0,                          gs_all_
 798:../src/renesas/application/r_cui_image_adjust.c **** ,   {   CUI_STATE_SHARPNESS_C_5,    CUI_PATTERN_REGISTERSET,    0,                          gs_all_
 799:../src/renesas/application/r_cui_image_adjust.c **** ,   {   CUI_STATE_SHARPNESS_C_6,    CUI_PATTERN_REGISTERSET,    0,                          gs_all_
 800:../src/renesas/application/r_cui_image_adjust.c **** ,   {   CUI_STATE_SHARPNESS_C_7,    CUI_PATTERN_REGISTERSET,    0,                          gs_all_
 801:../src/renesas/application/r_cui_image_adjust.c **** ,   {   CUI_STATE_SHARPNESS_C_8,    CUI_PATTERN_REGISTERSET,    0,                          gs_all_
 802:../src/renesas/application/r_cui_image_adjust.c **** ,   {   CUI_STATE_SHARPNESS_C_9,    CUI_PATTERN_REGISTERSET,    0,                          gs_all_
 803:../src/renesas/application/r_cui_image_adjust.c **** ,   {   CUI_STATE_SHARPNESS_C_10,   CUI_PATTERN_REGISTERSET,    0,                          gs_all_
 804:../src/renesas/application/r_cui_image_adjust.c **** ,   {   CUI_STATE_SHARPNESS_C_11,   CUI_PATTERN_REGISTERSET,    0,                          gs_all_
 805:../src/renesas/application/r_cui_image_adjust.c **** ,   {   CUI_STATE_SHARPNESS_C_12,   CUI_PATTERN_REGISTERSET,    0,                          gs_all_
 806:../src/renesas/application/r_cui_image_adjust.c **** ,   {   CUI_STATE_SHARPNESS_C_13,   CUI_PATTERN_REGISTERSET,    0,                          gs_all_
 807:../src/renesas/application/r_cui_image_adjust.c **** ,   {   CUI_STATE_SHARPNESS_C_14,   CUI_PATTERN_REGISTERSET,    0,                          gs_all_
 808:../src/renesas/application/r_cui_image_adjust.c **** ,   {   CUI_STATE_SHARPNESS_C_15,   CUI_PATTERN_REGISTERSET,    0,                          gs_all_
 809:../src/renesas/application/r_cui_image_adjust.c **** ,   {   CUI_STATE_SHARPNESS_C_16,   CUI_PATTERN_REGISTERSET,    0,                          gs_all_
 810:../src/renesas/application/r_cui_image_adjust.c **** ,   {   CUI_STATE_SHARPNESS_C_17,   CUI_PATTERN_REGISTERSET,    0,                          gs_all_
 811:../src/renesas/application/r_cui_image_adjust.c **** ,   {   CUI_STATE_SHARPNESS_C_18,   CUI_PATTERN_REGISTERSET,    0,                          gs_all_
 812:../src/renesas/application/r_cui_image_adjust.c **** ,   {   CUI_STATE_SHARPNESS_C_19,   CUI_PATTERN_REGISTERSET,    0,                          gs_all_
 813:../src/renesas/application/r_cui_image_adjust.c **** ,   {   CUI_STATE_SHARPNESS_C_20,   CUI_PATTERN_REGISTERSET,    0,                          gs_all_
 814:../src/renesas/application/r_cui_image_adjust.c **** ,   {   CUI_STATE_SHARPNESS_C_21,   CUI_PATTERN_REGISTERSET,    0,                          gs_all_
 815:../src/renesas/application/r_cui_image_adjust.c **** ,   {   CUI_STATE_SHARPNESS_C_22,   CUI_PATTERN_REGISTERSET,    0,                          gs_all_
 816:../src/renesas/application/r_cui_image_adjust.c **** ,   {   CUI_STATE_SHARPNESS_C_23,   CUI_PATTERN_REGISTERSET,    0,                          gs_all_
 817:../src/renesas/application/r_cui_image_adjust.c **** ,   {   CUI_STATE_SHARPNESS_C_24,   CUI_PATTERN_REGISTERSET,    0,                          gs_all_
 818:../src/renesas/application/r_cui_image_adjust.c **** ,   {   CUI_STATE_SHARPNESS_C_25,   CUI_PATTERN_REGISTERSET,    0,                          gs_all_
 819:../src/renesas/application/r_cui_image_adjust.c **** ,   {   CUI_STATE_GAMMA,            CUI_PATTERN_PRESET,         CUI_SELNUM_GAMMA,           gs_gamm
 820:../src/renesas/application/r_cui_image_adjust.c **** ,   {   CUI_STATE_DITHER,           CUI_PATTERN_PRESET,         CUI_SELNUM_DITHER,          gs_dith
 821:../src/renesas/application/r_cui_image_adjust.c **** ,   {   CUI_STATE_ROTATION,         CUI_PATTERN_PRESET,         CUI_SELNUM_ROTATION,        gs_rota
 822:../src/renesas/application/r_cui_image_adjust.c **** ,   {   CUI_STATE_ROTATION_C,       CUI_PATTERN_REGISTERLIST,   CUI_REGNUM_ROTATION,        gs_all_
 823:../src/renesas/application/r_cui_image_adjust.c **** ,   {   CUI_STATE_ROTATION_C_0,     CUI_PATTERN_REGISTERSET,    0,                          gs_all_
 824:../src/renesas/application/r_cui_image_adjust.c **** };
 825:../src/renesas/application/r_cui_image_adjust.c **** 
 826:../src/renesas/application/r_cui_image_adjust.c **** void cui_task(void *params);  
 827:../src/renesas/application/r_cui_image_adjust.c **** static void cui_local_init(void);
 828:../src/renesas/application/r_cui_image_adjust.c **** static uint32_t cui_menu_index_get(void);
 829:../src/renesas/application/r_cui_image_adjust.c **** static void cui_menu_disp(void);
 830:../src/renesas/application/r_cui_image_adjust.c **** static void cui_menu_disp_title(st_reg_t const * p_regstruct);
 831:../src/renesas/application/r_cui_image_adjust.c **** static void cui_menu_disp_explanation(st_reg_t const * p_regstruct);
 832:../src/renesas/application/r_cui_image_adjust.c **** static int32_t cui_get_target_bit_value(st_reg_t const *p_reg_info);
 833:../src/renesas/application/r_cui_image_adjust.c **** static void cui_serial_input(char_t * key_input);
 834:../src/renesas/application/r_cui_image_adjust.c **** static uint32_t cui_input_judge(char_t * key_input);
 835:../src/renesas/application/r_cui_image_adjust.c **** static uint32_t cui_state_transition(char_t * key_input);
 836:../src/renesas/application/r_cui_image_adjust.c **** static uint32_t cui_conv_num_to_char (uint32_t conv_num , char_t* buff, uint32_t* digit);
 837:../src/renesas/application/r_cui_image_adjust.c **** static uint32_t cui_conv_char_to_num (int32_t* conv_num , char_t* key_input);
 838:../src/renesas/application/r_cui_image_adjust.c **** static void cui_registerset(uint32_t reg_value, volatile uint32_t * reg_addr, uint32_t bit_mask, ui
 839:../src/renesas/application/r_cui_image_adjust.c **** static void cui_set_update_register (void);
 840:../src/renesas/application/r_cui_image_adjust.c **** 
 841:../src/renesas/application/r_cui_image_adjust.c **** 
 842:../src/renesas/application/r_cui_image_adjust.c **** /******************************************************************************
 843:../src/renesas/application/r_cui_image_adjust.c ****  * Function Name: CreateCuiTask
 844:../src/renesas/application/r_cui_image_adjust.c ****  * Description  : .
 845:../src/renesas/application/r_cui_image_adjust.c ****  * Arguments    : .
 846:../src/renesas/application/r_cui_image_adjust.c ****  * Return Value : .
 847:../src/renesas/application/r_cui_image_adjust.c ****  *****************************************************************************/
 848:../src/renesas/application/r_cui_image_adjust.c **** void CreateCuiTask(void) 
 849:../src/renesas/application/r_cui_image_adjust.c **** {
 850:../src/renesas/application/r_cui_image_adjust.c ****     printf("Camera and Display Application \r\n");
 851:../src/renesas/application/r_cui_image_adjust.c **** 
 852:../src/renesas/application/r_cui_image_adjust.c ****     os_task_t* p_graphics_task;
 853:../src/renesas/application/r_cui_image_adjust.c **** 
 854:../src/renesas/application/r_cui_image_adjust.c ****     /* Cast to an appropriate type */
 855:../src/renesas/application/r_cui_image_adjust.c ****     p_graphics_task = NULL;
 856:../src/renesas/application/r_cui_image_adjust.c **** 
 857:../src/renesas/application/r_cui_image_adjust.c ****     /* Cast to an appropriate type */
 858:../src/renesas/application/r_cui_image_adjust.c ****     p_graphics_task = R_OS_TaskCreate("Graphics", cui_task, NULL, R_OS_ABSTRACTION_DEFAULT_STACK_SI
 859:../src/renesas/application/r_cui_image_adjust.c **** 
 860:../src/renesas/application/r_cui_image_adjust.c ****     /* Cast to an appropriate type */
 861:../src/renesas/application/r_cui_image_adjust.c ****     if (NULL == p_graphics_task)
 862:../src/renesas/application/r_cui_image_adjust.c ****     {
 863:../src/renesas/application/r_cui_image_adjust.c ****         printf("Camera driver can not be loaded, demo system does not work correctly\r\n");
 864:../src/renesas/application/r_cui_image_adjust.c ****     }
 865:../src/renesas/application/r_cui_image_adjust.c **** }
 866:../src/renesas/application/r_cui_image_adjust.c **** /*******************************************************************************
 867:../src/renesas/application/r_cui_image_adjust.c ****  End of function CreateCuiTask
 868:../src/renesas/application/r_cui_image_adjust.c ****  ******************************************************************************/
 869:../src/renesas/application/r_cui_image_adjust.c **** /******************************************************************************
 870:../src/renesas/application/r_cui_image_adjust.c **** * Function Name:    cui_task
 871:../src/renesas/application/r_cui_image_adjust.c **** * Description :     main task of CUI operation
 872:../src/renesas/application/r_cui_image_adjust.c **** * Arguments :       none
 873:../src/renesas/application/r_cui_image_adjust.c **** * Return Value :    none
 874:../src/renesas/application/r_cui_image_adjust.c **** ******************************************************************************/
 875:../src/renesas/application/r_cui_image_adjust.c **** void cui_task(void *params) 
 876:../src/renesas/application/r_cui_image_adjust.c **** {
 877:../src/renesas/application/r_cui_image_adjust.c ****     uint32_t result = RESULT_OK;
 878:../src/renesas/application/r_cui_image_adjust.c ****     uint8_t test = 0;
 879:../src/renesas/application/r_cui_image_adjust.c ****     static uint8_t count_var = 0;
 880:../src/renesas/application/r_cui_image_adjust.c ****     char instruction_array[11] = {'0','1','2','3','4','5','D','C','b','T'};
 881:../src/renesas/application/r_cui_image_adjust.c ****     uint8_t instruction_order_array[91] = {/* Brightness */0,0,0,7,8,1,7,8,2,7,8,6,7,8,8,1,0,7,8,1,
 882:../src/renesas/application/r_cui_image_adjust.c ****                                             /* Contrast */ 1,0,0,7,8,1,7,8,2,7,8,6,7,8,8,1,0,7,8,1,
 883:../src/renesas/application/r_cui_image_adjust.c ****                                             /* Sharpness */                        2,0,7,8,1,7,8,2,
 884:../src/renesas/application/r_cui_image_adjust.c ****                                             /* Gamma Correction */                 3,0,1,2,3,6,8,
 885:../src/renesas/application/r_cui_image_adjust.c ****                                             /* Dither */                           4,0,1,2,3,6,8,
 886:../src/renesas/application/r_cui_image_adjust.c ****                                             /* Horizontal Mirroring and Rotation */5,8
 887:../src/renesas/application/r_cui_image_adjust.c **** 
 888:../src/renesas/application/r_cui_image_adjust.c ****                                             };
 889:../src/renesas/application/r_cui_image_adjust.c **** 
 890:../src/renesas/application/r_cui_image_adjust.c ****     /* Unused parameter */
 891:../src/renesas/application/r_cui_image_adjust.c ****     UNUSED_PARAM(params);
 892:../src/renesas/application/r_cui_image_adjust.c **** 
 893:../src/renesas/application/r_cui_image_adjust.c ****     /* Initialise */
 894:../src/renesas/application/r_cui_image_adjust.c ****     cui_local_init();
 895:../src/renesas/application/r_cui_image_adjust.c **** 
 896:../src/renesas/application/r_cui_image_adjust.c **** 
 897:../src/renesas/application/r_cui_image_adjust.c ****     while(1)
 898:../src/renesas/application/r_cui_image_adjust.c ****     {
 899:../src/renesas/application/r_cui_image_adjust.c ****         /* Get index of menu */
 900:../src/renesas/application/r_cui_image_adjust.c ****         gs_cur_index = cui_menu_index_get();
 901:../src/renesas/application/r_cui_image_adjust.c **** 
 902:../src/renesas/application/r_cui_image_adjust.c ****         /* Display menu */
 903:../src/renesas/application/r_cui_image_adjust.c ****         cui_menu_disp();
 904:../src/renesas/application/r_cui_image_adjust.c **** 
 905:../src/renesas/application/r_cui_image_adjust.c ****         do
 906:../src/renesas/application/r_cui_image_adjust.c ****         {
 907:../src/renesas/application/r_cui_image_adjust.c ****             R_OS_TaskSleep(1);
 908:../src/renesas/application/r_cui_image_adjust.c **** 
 909:../src/renesas/application/r_cui_image_adjust.c ****             /* Get command from serial */
 910:../src/renesas/application/r_cui_image_adjust.c ****             cui_serial_input(gs_key_input_data);
 911:../src/renesas/application/r_cui_image_adjust.c **** 
 912:../src/renesas/application/r_cui_image_adjust.c ****             /* Check string */
 913:../src/renesas/application/r_cui_image_adjust.c ****             result = cui_input_judge(gs_key_input_data);
 914:../src/renesas/application/r_cui_image_adjust.c **** 
 915:../src/renesas/application/r_cui_image_adjust.c ****             if (RESULT_OK == result)
 916:../src/renesas/application/r_cui_image_adjust.c ****             {
 917:../src/renesas/application/r_cui_image_adjust.c ****                 /* action */
 918:../src/renesas/application/r_cui_image_adjust.c ****                 result = cui_state_transition(gs_key_input_data);
 919:../src/renesas/application/r_cui_image_adjust.c ****             }
 920:../src/renesas/application/r_cui_image_adjust.c ****             else
 921:../src/renesas/application/r_cui_image_adjust.c ****             {
 922:../src/renesas/application/r_cui_image_adjust.c ****                 __asm("nop");
 923:../src/renesas/application/r_cui_image_adjust.c ****             }
 924:../src/renesas/application/r_cui_image_adjust.c **** 
 925:../src/renesas/application/r_cui_image_adjust.c ****             if (RESULT_OK == result)
 926:../src/renesas/application/r_cui_image_adjust.c ****             {
 927:../src/renesas/application/r_cui_image_adjust.c ****                 __asm("nop");
 928:../src/renesas/application/r_cui_image_adjust.c ****             }
 929:../src/renesas/application/r_cui_image_adjust.c ****             else
 930:../src/renesas/application/r_cui_image_adjust.c ****             {
 931:../src/renesas/application/r_cui_image_adjust.c ****                 printf("ERROR : Invalid value\r\n\r\n");
 932:../src/renesas/application/r_cui_image_adjust.c ****             }
 933:../src/renesas/application/r_cui_image_adjust.c **** 
 934:../src/renesas/application/r_cui_image_adjust.c ****         }
 935:../src/renesas/application/r_cui_image_adjust.c ****         while (RESULT_OK != result);
 936:../src/renesas/application/r_cui_image_adjust.c ****     }
 937:../src/renesas/application/r_cui_image_adjust.c **** }
 938:../src/renesas/application/r_cui_image_adjust.c **** /*******************************************************************************
 939:../src/renesas/application/r_cui_image_adjust.c ****  End of function cui_task
 940:../src/renesas/application/r_cui_image_adjust.c ****  ******************************************************************************/
 941:../src/renesas/application/r_cui_image_adjust.c **** 
 942:../src/renesas/application/r_cui_image_adjust.c **** /******************************************************************************
 943:../src/renesas/application/r_cui_image_adjust.c **** * Function Name:    cui_local_init
 944:../src/renesas/application/r_cui_image_adjust.c **** * Description :     initialize local variables
 945:../src/renesas/application/r_cui_image_adjust.c **** * Arguments :       none
 946:../src/renesas/application/r_cui_image_adjust.c **** * Return Value :    none
 947:../src/renesas/application/r_cui_image_adjust.c **** ******************************************************************************/
 948:../src/renesas/application/r_cui_image_adjust.c **** static void cui_local_init(void)
 949:../src/renesas/application/r_cui_image_adjust.c **** {
 950:../src/renesas/application/r_cui_image_adjust.c ****     int32_t i;
 951:../src/renesas/application/r_cui_image_adjust.c ****     uint32_t work_buff[CUI_REGNUM_GAMMA] = {0};
 952:../src/renesas/application/r_cui_image_adjust.c ****     uint32_t work_loop = 0;
 953:../src/renesas/application/r_cui_image_adjust.c ****     uint32_t work_loop_2 = 0;
 954:../src/renesas/application/r_cui_image_adjust.c ****     uint32_t work_tmp = 0;
 955:../src/renesas/application/r_cui_image_adjust.c ****     uint32_t preset_check_result = RESULT_OK;
 956:../src/renesas/application/r_cui_image_adjust.c **** 
 957:../src/renesas/application/r_cui_image_adjust.c ****     /* current menu */
 958:../src/renesas/application/r_cui_image_adjust.c ****     gs_cur_status = CUI_STATE_TOP;
 959:../src/renesas/application/r_cui_image_adjust.c **** 
 960:../src/renesas/application/r_cui_image_adjust.c ****     /* index of current_menu[] */
 961:../src/renesas/application/r_cui_image_adjust.c ****     gs_cur_index = cui_menu_index_get();
 962:../src/renesas/application/r_cui_image_adjust.c **** 
 963:../src/renesas/application/r_cui_image_adjust.c ****     /* input data */
 964:../src/renesas/application/r_cui_image_adjust.c ****     for(i = 0; i < SDK_PRV_KEY_INPUT_BUFF_NUM; i++)
 965:../src/renesas/application/r_cui_image_adjust.c ****     {
 966:../src/renesas/application/r_cui_image_adjust.c ****         gs_key_input_data[i] = 0;
 967:../src/renesas/application/r_cui_image_adjust.c ****     }
 968:../src/renesas/application/r_cui_image_adjust.c **** 
 969:../src/renesas/application/r_cui_image_adjust.c ****     /* current chosen setting */
 970:../src/renesas/application/r_cui_image_adjust.c ****     for(i = 0; i < CUI_MAX_MENUID; i++)
 971:../src/renesas/application/r_cui_image_adjust.c ****     {
 972:../src/renesas/application/r_cui_image_adjust.c ****         if (CUI_PATTERN_PRESET == current_menu[i].pattern )
 973:../src/renesas/application/r_cui_image_adjust.c ****         {
 974:../src/renesas/application/r_cui_image_adjust.c ****             st_reg_t const * p_regstruct = current_menu[i].regstruct;
 975:../src/renesas/application/r_cui_image_adjust.c **** 
 976:../src/renesas/application/r_cui_image_adjust.c ****             /* read current reg val */
 977:../src/renesas/application/r_cui_image_adjust.c ****             for (work_loop = 0; work_loop < current_menu[i].regnum; work_loop++)
 978:../src/renesas/application/r_cui_image_adjust.c ****             {
 979:../src/renesas/application/r_cui_image_adjust.c ****                 work_tmp = *(p_regstruct[work_loop].reg_addr);
 980:../src/renesas/application/r_cui_image_adjust.c ****                 work_buff[work_loop] = ((work_tmp >> p_regstruct[work_loop].bitshift)
 981:../src/renesas/application/r_cui_image_adjust.c ****                         &  p_regstruct[work_loop].bitmask);
 982:../src/renesas/application/r_cui_image_adjust.c ****             }
 983:../src/renesas/application/r_cui_image_adjust.c **** 
 984:../src/renesas/application/r_cui_image_adjust.c ****             /* check preset/default/custum */
 985:../src/renesas/application/r_cui_image_adjust.c ****             for (work_loop_2 = 0; work_loop_2 <= current_menu[i].selectnum; work_loop_2++)
 986:../src/renesas/application/r_cui_image_adjust.c ****             {
 987:../src/renesas/application/r_cui_image_adjust.c ****                 preset_check_result = RESULT_OK;
 988:../src/renesas/application/r_cui_image_adjust.c ****                 for (work_loop = 0; work_loop < current_menu[i].regnum; work_loop++)
 989:../src/renesas/application/r_cui_image_adjust.c ****                 {
 990:../src/renesas/application/r_cui_image_adjust.c ****                     if (work_buff[work_loop] != p_regstruct[work_loop].preset[work_loop_2])
 991:../src/renesas/application/r_cui_image_adjust.c ****                     {
 992:../src/renesas/application/r_cui_image_adjust.c ****                         preset_check_result = RESULT_NG;
 993:../src/renesas/application/r_cui_image_adjust.c ****                         break;
 994:../src/renesas/application/r_cui_image_adjust.c ****                     }
 995:../src/renesas/application/r_cui_image_adjust.c ****                 }
 996:../src/renesas/application/r_cui_image_adjust.c ****                 if (RESULT_OK == preset_check_result)
 997:../src/renesas/application/r_cui_image_adjust.c ****                 {
 998:../src/renesas/application/r_cui_image_adjust.c ****                     /* discovered preset num or custom */
 999:../src/renesas/application/r_cui_image_adjust.c ****                     break;
1000:../src/renesas/application/r_cui_image_adjust.c ****                 }
1001:../src/renesas/application/r_cui_image_adjust.c ****                 else
1002:../src/renesas/application/r_cui_image_adjust.c ****                 {
1003:../src/renesas/application/r_cui_image_adjust.c ****                     __asm("nop");
1004:../src/renesas/application/r_cui_image_adjust.c ****                 }
1005:../src/renesas/application/r_cui_image_adjust.c ****             }
1006:../src/renesas/application/r_cui_image_adjust.c **** 
1007:../src/renesas/application/r_cui_image_adjust.c ****             if (work_loop_2 > current_menu[i].selectnum)
1008:../src/renesas/application/r_cui_image_adjust.c ****             {
1009:../src/renesas/application/r_cui_image_adjust.c ****                 /* set custom */
1010:../src/renesas/application/r_cui_image_adjust.c ****                 gs_preset_value[i] = current_menu[i].selectnum + 1;
1011:../src/renesas/application/r_cui_image_adjust.c ****             }
1012:../src/renesas/application/r_cui_image_adjust.c ****             else
1013:../src/renesas/application/r_cui_image_adjust.c ****             {
1014:../src/renesas/application/r_cui_image_adjust.c ****                 /* set preset num or default */
1015:../src/renesas/application/r_cui_image_adjust.c ****                 gs_preset_value[i] = work_loop_2;
1016:../src/renesas/application/r_cui_image_adjust.c ****             }
1017:../src/renesas/application/r_cui_image_adjust.c ****         }
1018:../src/renesas/application/r_cui_image_adjust.c ****         else
1019:../src/renesas/application/r_cui_image_adjust.c ****         {
1020:../src/renesas/application/r_cui_image_adjust.c ****             gs_preset_value[i] = current_menu[i].selectnum;
1021:../src/renesas/application/r_cui_image_adjust.c ****         }
1022:../src/renesas/application/r_cui_image_adjust.c ****     }
1023:../src/renesas/application/r_cui_image_adjust.c **** }
1024:../src/renesas/application/r_cui_image_adjust.c **** /*******************************************************************************
1025:../src/renesas/application/r_cui_image_adjust.c ****  End of function cui_local_init
1026:../src/renesas/application/r_cui_image_adjust.c ****  ******************************************************************************/
1027:../src/renesas/application/r_cui_image_adjust.c **** 
1028:../src/renesas/application/r_cui_image_adjust.c **** /******************************************************************************
1029:../src/renesas/application/r_cui_image_adjust.c **** * Function Name:    cui_menu_index_get
1030:../src/renesas/application/r_cui_image_adjust.c **** * Description :     get index of current menu
1031:../src/renesas/application/r_cui_image_adjust.c **** * Arguments :       none
1032:../src/renesas/application/r_cui_image_adjust.c **** * Return Value :    none
1033:../src/renesas/application/r_cui_image_adjust.c **** ******************************************************************************/
1034:../src/renesas/application/r_cui_image_adjust.c **** static uint32_t cui_menu_index_get (void)
1035:../src/renesas/application/r_cui_image_adjust.c **** {
  25              		.loc 1 1035 0
  26              		.cfi_startproc
  27              		@ args = 0, pretend = 0, frame = 0
  28              		@ frame_needed = 0, uses_anonymous_args = 0
  29              		@ link register save eliminated.
  30              	.LVL0:
1036:../src/renesas/application/r_cui_image_adjust.c ****     uint32_t i;
1037:../src/renesas/application/r_cui_image_adjust.c **** 
1038:../src/renesas/application/r_cui_image_adjust.c ****     for (i = 0; i < CUI_MAX_MENUID; i++)
  31              		.loc 1 1038 0
  32 0000 0000A0E3 		mov	r0, #0
  33              	.LVL1:
  34              	.L2:
  35              		.loc 1 1038 0 is_stmt 0 discriminator 1
  36 0004 330050E3 		cmp	r0, #51
  37 0008 0A00008A 		bhi	.L3
1039:../src/renesas/application/r_cui_image_adjust.c ****     {
1040:../src/renesas/application/r_cui_image_adjust.c ****         if (current_menu[i].stateid == gs_cur_status)
  38              		.loc 1 1040 0 is_stmt 1
  39 000c 003000E3 		movw	r3, #:lower16:.LANCHOR0
  40 0010 003040E3 		movt	r3, #:upper16:.LANCHOR0
  41 0014 802293E7 		ldr	r2, [r3, r0, lsl #5]
  42 0018 003000E3 		movw	r3, #:lower16:.LANCHOR1
  43 001c 003040E3 		movt	r3, #:upper16:.LANCHOR1
  44 0020 003093E5 		ldr	r3, [r3]
  45 0024 030052E1 		cmp	r2, r3
  46 0028 0200000A 		beq	.L3
1041:../src/renesas/application/r_cui_image_adjust.c ****         {
1042:../src/renesas/application/r_cui_image_adjust.c ****             break;
1043:../src/renesas/application/r_cui_image_adjust.c ****         }
1044:../src/renesas/application/r_cui_image_adjust.c ****         else
1045:../src/renesas/application/r_cui_image_adjust.c ****         {
1046:../src/renesas/application/r_cui_image_adjust.c ****             __asm("nop");
  47              		.loc 1 1046 0 discriminator 2
  48              		.syntax divided
  49              	@ 1046 "../src/renesas/application/r_cui_image_adjust.c" 1
  50 002c 00F020E3 		nop
  51              	@ 0 "" 2
1038:../src/renesas/application/r_cui_image_adjust.c ****     {
  52              		.loc 1 1038 0 discriminator 2
  53              		.arm
  54              		.syntax unified
  55 0030 010080E2 		add	r0, r0, #1
  56              	.LVL2:
  57 0034 F2FFFFEA 		b	.L2
  58              	.L3:
1047:../src/renesas/application/r_cui_image_adjust.c ****         }
1048:../src/renesas/application/r_cui_image_adjust.c ****     }
1049:../src/renesas/application/r_cui_image_adjust.c ****     if (CUI_MAX_MENUID == i)
  59              		.loc 1 1049 0
  60 0038 340050E3 		cmp	r0, #52
  61 003c 0100000A 		beq	.L7
1050:../src/renesas/application/r_cui_image_adjust.c ****     {
1051:../src/renesas/application/r_cui_image_adjust.c ****         i = 0;
1052:../src/renesas/application/r_cui_image_adjust.c ****         gs_cur_status = CUI_STATE_TOP;
1053:../src/renesas/application/r_cui_image_adjust.c ****     }
1054:../src/renesas/application/r_cui_image_adjust.c ****     else
1055:../src/renesas/application/r_cui_image_adjust.c ****     {
1056:../src/renesas/application/r_cui_image_adjust.c ****         __asm("nop");
  62              		.loc 1 1056 0
  63              		.syntax divided
  64              	@ 1056 "../src/renesas/application/r_cui_image_adjust.c" 1
  65 0040 00F020E3 		nop
  66              	@ 0 "" 2
1057:../src/renesas/application/r_cui_image_adjust.c ****     }
1058:../src/renesas/application/r_cui_image_adjust.c **** 
1059:../src/renesas/application/r_cui_image_adjust.c ****     return i;
1060:../src/renesas/application/r_cui_image_adjust.c **** }
  67              		.loc 1 1060 0
  68              		.arm
  69              		.syntax unified
  70 0044 1EFF2FE1 		bx	lr
  71              	.L7:
  72              	.LVL3:
1052:../src/renesas/application/r_cui_image_adjust.c ****     }
  73              		.loc 1 1052 0
  74 0048 003000E3 		movw	r3, #:lower16:.LANCHOR1
  75 004c 003040E3 		movt	r3, #:upper16:.LANCHOR1
  76 0050 0020E0E3 		mvn	r2, #0
  77 0054 002083E5 		str	r2, [r3]
1051:../src/renesas/application/r_cui_image_adjust.c ****         gs_cur_status = CUI_STATE_TOP;
  78              		.loc 1 1051 0
  79 0058 0000A0E3 		mov	r0, #0
  80 005c 1EFF2FE1 		bx	lr
  81              		.cfi_endproc
  82              	.LFE4:
  84              		.section	.text.cui_local_init,"ax",%progbits
  85              		.align	2
  86              		.syntax unified
  87              		.arm
  88              		.fpu neon
  90              	cui_local_init:
  91              	.LFB3:
 949:../src/renesas/application/r_cui_image_adjust.c ****     int32_t i;
  92              		.loc 1 949 0
  93              		.cfi_startproc
  94              		@ args = 0, pretend = 0, frame = 760
  95              		@ frame_needed = 0, uses_anonymous_args = 0
  96 0000 70402DE9 		push	{r4, r5, r6, lr}
  97              		.cfi_def_cfa_offset 16
  98              		.cfi_offset 4, -16
  99              		.cfi_offset 5, -12
 100              		.cfi_offset 6, -8
 101              		.cfi_offset 14, -4
 102 0004 BEDF4DE2 		sub	sp, sp, #760
 103              		.cfi_def_cfa_offset 776
 951:../src/renesas/application/r_cui_image_adjust.c ****     uint32_t work_loop = 0;
 104              		.loc 1 951 0
 105 0008 BE2FA0E3 		mov	r2, #760
 106 000c 0010A0E3 		mov	r1, #0
 107 0010 0D00A0E1 		mov	r0, sp
 108 0014 FEFFFFEB 		bl	memset
 109              	.LVL4:
 958:../src/renesas/application/r_cui_image_adjust.c **** 
 110              		.loc 1 958 0
 111 0018 003000E3 		movw	r3, #:lower16:.LANCHOR1
 112 001c 003040E3 		movt	r3, #:upper16:.LANCHOR1
 113 0020 0020E0E3 		mvn	r2, #0
 114 0024 002083E5 		str	r2, [r3]
 961:../src/renesas/application/r_cui_image_adjust.c **** 
 115              		.loc 1 961 0
 116 0028 FEFFFFEB 		bl	cui_menu_index_get
 117              	.LVL5:
 118 002c 003000E3 		movw	r3, #:lower16:.LANCHOR2
 119 0030 003040E3 		movt	r3, #:upper16:.LANCHOR2
 120 0034 000083E5 		str	r0, [r3]
 121              	.LVL6:
 964:../src/renesas/application/r_cui_image_adjust.c ****     {
 122              		.loc 1 964 0
 123 0038 0030A0E3 		mov	r3, #0
 124 003c 040000EA 		b	.L9
 125              	.LVL7:
 126              	.L10:
 966:../src/renesas/application/r_cui_image_adjust.c ****     }
 127              		.loc 1 966 0 discriminator 3
 128 0040 002000E3 		movw	r2, #:lower16:.LANCHOR3
 129 0044 002040E3 		movt	r2, #:upper16:.LANCHOR3
 130 0048 0010A0E3 		mov	r1, #0
 131 004c 0310C2E7 		strb	r1, [r2, r3]
 964:../src/renesas/application/r_cui_image_adjust.c ****     {
 132              		.loc 1 964 0 discriminator 3
 133 0050 013083E2 		add	r3, r3, #1
 134              	.LVL8:
 135              	.L9:
 964:../src/renesas/application/r_cui_image_adjust.c ****     {
 136              		.loc 1 964 0 is_stmt 0 discriminator 1
 137 0054 0B0053E3 		cmp	r3, #11
 138 0058 F8FFFFDA 		ble	.L10
 139 005c 00C0A0E3 		mov	ip, #0
 140 0060 3C0000EA 		b	.L11
 141              	.LVL9:
 142              	.L28:
 143              	.LBB2:
 974:../src/renesas/application/r_cui_image_adjust.c **** 
 144              		.loc 1 974 0 is_stmt 1
 145 0064 003000E3 		movw	r3, #:lower16:.LANCHOR0
 146 0068 003040E3 		movt	r3, #:upper16:.LANCHOR0
 147 006c 8C3283E0 		add	r3, r3, ip, lsl #5
 148 0070 180093E5 		ldr	r0, [r3, #24]
 149              	.LVL10:
 977:../src/renesas/application/r_cui_image_adjust.c ****             {
 150              		.loc 1 977 0
 151 0074 0020A0E3 		mov	r2, #0
 152 0078 0B0000EA 		b	.L13
 153              	.LVL11:
 154              	.L14:
 979:../src/renesas/application/r_cui_image_adjust.c ****                 work_buff[work_loop] = ((work_tmp >> p_regstruct[work_loop].bitshift)
 155              		.loc 1 979 0 discriminator 3
 156 007c 821082E0 		add	r1, r2, r2, lsl #1
 157 0080 0132A0E1 		lsl	r3, r1, #4
 158 0084 033080E0 		add	r3, r0, r3
 159 0088 041093E5 		ldr	r1, [r3, #4]
 160 008c 00E091E5 		ldr	lr, [r1]
 161              	.LVL12:
 980:../src/renesas/application/r_cui_image_adjust.c ****                         &  p_regstruct[work_loop].bitmask);
 162              		.loc 1 980 0 discriminator 3
 163 0090 141093E5 		ldr	r1, [r3, #20]
 981:../src/renesas/application/r_cui_image_adjust.c ****             }
 164              		.loc 1 981 0 discriminator 3
 165 0094 183093E5 		ldr	r3, [r3, #24]
 166 0098 3E3103E0 		and	r3, r3, lr, lsr r1
 980:../src/renesas/application/r_cui_image_adjust.c ****                         &  p_regstruct[work_loop].bitmask);
 167              		.loc 1 980 0 discriminator 3
 168 009c BE1F8DE2 		add	r1, sp, #760
 169 00a0 021181E0 		add	r1, r1, r2, lsl #2
 170 00a4 F83201E5 		str	r3, [r1, #-760]
 977:../src/renesas/application/r_cui_image_adjust.c ****             {
 171              		.loc 1 977 0 discriminator 3
 172 00a8 012082E2 		add	r2, r2, #1
 173              	.LVL13:
 174              	.L13:
 977:../src/renesas/application/r_cui_image_adjust.c ****             {
 175              		.loc 1 977 0 is_stmt 0 discriminator 1
 176 00ac 003000E3 		movw	r3, #:lower16:.LANCHOR0
 177 00b0 003040E3 		movt	r3, #:upper16:.LANCHOR0
 178 00b4 8C3283E0 		add	r3, r3, ip, lsl #5
 179 00b8 1CE093E5 		ldr	lr, [r3, #28]
 180 00bc 0E0052E1 		cmp	r2, lr
 181 00c0 EDFFFF3A 		bcc	.L14
 182 00c4 0050A0E3 		mov	r5, #0
 183 00c8 040000EA 		b	.L15
 184              	.LVL14:
 185              	.L26:
 987:../src/renesas/application/r_cui_image_adjust.c ****                 for (work_loop = 0; work_loop < current_menu[i].regnum; work_loop++)
 186              		.loc 1 987 0 is_stmt 1
 187 00cc 0030A0E3 		mov	r3, #0
 188              	.L16:
 189              	.LVL15:
 996:../src/renesas/application/r_cui_image_adjust.c ****                 {
 190              		.loc 1 996 0
 191 00d0 000053E3 		cmp	r3, #0
 192 00d4 1800000A 		beq	.L18
1003:../src/renesas/application/r_cui_image_adjust.c ****                 }
 193              		.loc 1 1003 0 discriminator 2
 194              		.syntax divided
 195              	@ 1003 "../src/renesas/application/r_cui_image_adjust.c" 1
 196 00d8 00F020E3 		nop
 197              	@ 0 "" 2
 985:../src/renesas/application/r_cui_image_adjust.c ****             {
 198              		.loc 1 985 0 discriminator 2
 199              		.arm
 200              		.syntax unified
 201 00dc 015085E2 		add	r5, r5, #1
 202              	.LVL16:
 203              	.L15:
 985:../src/renesas/application/r_cui_image_adjust.c ****             {
 204              		.loc 1 985 0 is_stmt 0 discriminator 1
 205 00e0 003000E3 		movw	r3, #:lower16:.LANCHOR0
 206 00e4 003040E3 		movt	r3, #:upper16:.LANCHOR0
 207 00e8 8C3283E0 		add	r3, r3, ip, lsl #5
 208 00ec 086093E5 		ldr	r6, [r3, #8]
 209 00f0 060055E1 		cmp	r5, r6
 210 00f4 1000008A 		bhi	.L18
 211 00f8 0020A0E3 		mov	r2, #0
 212              	.LVL17:
 213              	.L19:
 988:../src/renesas/application/r_cui_image_adjust.c ****                 {
 214              		.loc 1 988 0 is_stmt 1 discriminator 1
 215 00fc 0E0052E1 		cmp	r2, lr
 216 0100 F1FFFF2A 		bcs	.L26
 990:../src/renesas/application/r_cui_image_adjust.c ****                     {
 217              		.loc 1 990 0
 218 0104 BE3F8DE2 		add	r3, sp, #760
 219 0108 023183E0 		add	r3, r3, r2, lsl #2
 220 010c F84213E5 		ldr	r4, [r3, #-760]
 221 0110 821082E0 		add	r1, r2, r2, lsl #1
 222 0114 0132A0E1 		lsl	r3, r1, #4
 223 0118 033080E0 		add	r3, r0, r3
 224 011c 061085E2 		add	r1, r5, #6
 225 0120 013183E0 		add	r3, r3, r1, lsl #2
 226 0124 043093E5 		ldr	r3, [r3, #4]
 227 0128 030054E1 		cmp	r4, r3
 988:../src/renesas/application/r_cui_image_adjust.c ****                 {
 228              		.loc 1 988 0 discriminator 2
 229 012c 01208202 		addeq	r2, r2, #1
 230              	.LVL18:
 231 0130 F1FFFF0A 		beq	.L19
 232              	.L23:
 992:../src/renesas/application/r_cui_image_adjust.c ****                         break;
 233              		.loc 1 992 0
 234 0134 0130A0E3 		mov	r3, #1
 235 0138 E4FFFFEA 		b	.L16
 236              	.L18:
1007:../src/renesas/application/r_cui_image_adjust.c ****             {
 237              		.loc 1 1007 0
 238 013c 060055E1 		cmp	r5, r6
 239 0140 1400009A 		bls	.L20
1010:../src/renesas/application/r_cui_image_adjust.c ****             }
 240              		.loc 1 1010 0
 241 0144 016086E2 		add	r6, r6, #1
 242 0148 003000E3 		movw	r3, #:lower16:.LANCHOR4
 243 014c 003040E3 		movt	r3, #:upper16:.LANCHOR4
 244 0150 0C6183E7 		str	r6, [r3, ip, lsl #2]
 245              	.LVL19:
 246              	.L21:
 247              	.LBE2:
 970:../src/renesas/application/r_cui_image_adjust.c ****     {
 248              		.loc 1 970 0 discriminator 2
 249 0154 01C08CE2 		add	ip, ip, #1
 250              	.LVL20:
 251              	.L11:
 970:../src/renesas/application/r_cui_image_adjust.c ****     {
 252              		.loc 1 970 0 is_stmt 0 discriminator 1
 253 0158 33005CE3 		cmp	ip, #51
 254 015c 110000CA 		bgt	.L27
 972:../src/renesas/application/r_cui_image_adjust.c ****         {
 255              		.loc 1 972 0 is_stmt 1
 256 0160 003000E3 		movw	r3, #:lower16:.LANCHOR0
 257 0164 003040E3 		movt	r3, #:upper16:.LANCHOR0
 258 0168 8C3283E0 		add	r3, r3, ip, lsl #5
 259 016c 043093E5 		ldr	r3, [r3, #4]
 260 0170 020053E3 		cmp	r3, #2
 261 0174 BAFFFF0A 		beq	.L28
1020:../src/renesas/application/r_cui_image_adjust.c ****         }
 262              		.loc 1 1020 0
 263 0178 003000E3 		movw	r3, #:lower16:.LANCHOR0
 264 017c 003040E3 		movt	r3, #:upper16:.LANCHOR0
 265 0180 8C3283E0 		add	r3, r3, ip, lsl #5
 266 0184 082093E5 		ldr	r2, [r3, #8]
 267 0188 003000E3 		movw	r3, #:lower16:.LANCHOR4
 268 018c 003040E3 		movt	r3, #:upper16:.LANCHOR4
 269 0190 0C2183E7 		str	r2, [r3, ip, lsl #2]
 270 0194 EEFFFFEA 		b	.L21
 271              	.LVL21:
 272              	.L20:
 273              	.LBB3:
1015:../src/renesas/application/r_cui_image_adjust.c ****             }
 274              		.loc 1 1015 0
 275 0198 003000E3 		movw	r3, #:lower16:.LANCHOR4
 276 019c 003040E3 		movt	r3, #:upper16:.LANCHOR4
 277 01a0 0C5183E7 		str	r5, [r3, ip, lsl #2]
 278 01a4 EAFFFFEA 		b	.L21
 279              	.LVL22:
 280              	.L27:
 281              	.LBE3:
1023:../src/renesas/application/r_cui_image_adjust.c **** /*******************************************************************************
 282              		.loc 1 1023 0
 283 01a8 BEDF8DE2 		add	sp, sp, #760
 284              		.cfi_def_cfa_offset 16
 285              		@ sp needed
 286 01ac 7080BDE8 		pop	{r4, r5, r6, pc}
 287              		.cfi_endproc
 288              	.LFE3:
 290              		.section	.text.cui_get_target_bit_value,"ax",%progbits
 291              		.align	2
 292              		.syntax unified
 293              		.arm
 294              		.fpu neon
 296              	cui_get_target_bit_value:
 297              	.LFB8:
1061:../src/renesas/application/r_cui_image_adjust.c **** /*******************************************************************************
1062:../src/renesas/application/r_cui_image_adjust.c ****  End of function cui_menu_index_get
1063:../src/renesas/application/r_cui_image_adjust.c ****  ******************************************************************************/
1064:../src/renesas/application/r_cui_image_adjust.c **** 
1065:../src/renesas/application/r_cui_image_adjust.c **** /******************************************************************************
1066:../src/renesas/application/r_cui_image_adjust.c **** * Function Name:    cui_menu_disp
1067:../src/renesas/application/r_cui_image_adjust.c **** * Description :     Display menu
1068:../src/renesas/application/r_cui_image_adjust.c **** * Arguments :       none
1069:../src/renesas/application/r_cui_image_adjust.c **** * Return Value :    none
1070:../src/renesas/application/r_cui_image_adjust.c **** ******************************************************************************/
1071:../src/renesas/application/r_cui_image_adjust.c **** static void cui_menu_disp(void)
1072:../src/renesas/application/r_cui_image_adjust.c **** {
1073:../src/renesas/application/r_cui_image_adjust.c ****     /* Menu title */
1074:../src/renesas/application/r_cui_image_adjust.c ****     cui_menu_disp_title(current_menu[gs_cur_index].regstruct);
1075:../src/renesas/application/r_cui_image_adjust.c **** 
1076:../src/renesas/application/r_cui_image_adjust.c ****     /* Menu explanation */
1077:../src/renesas/application/r_cui_image_adjust.c ****     cui_menu_disp_explanation(current_menu[gs_cur_index].regstruct);
1078:../src/renesas/application/r_cui_image_adjust.c **** 
1079:../src/renesas/application/r_cui_image_adjust.c ****     printf("R : Show each value of the customizable registers.\r\n");
1080:../src/renesas/application/r_cui_image_adjust.c **** 
1081:../src/renesas/application/r_cui_image_adjust.c ****     if (CUI_STATE_TOP == gs_cur_status)
1082:../src/renesas/application/r_cui_image_adjust.c ****     {
1083:../src/renesas/application/r_cui_image_adjust.c ****         printf("D : All Default Settings.\r\n");
1084:../src/renesas/application/r_cui_image_adjust.c ****     }
1085:../src/renesas/application/r_cui_image_adjust.c ****     else
1086:../src/renesas/application/r_cui_image_adjust.c ****     {
1087:../src/renesas/application/r_cui_image_adjust.c ****         printf("B : Go to Back Menu.\r\n");
1088:../src/renesas/application/r_cui_image_adjust.c ****         printf("T : Go to Top Menu.\r\n");
1089:../src/renesas/application/r_cui_image_adjust.c ****     }
1090:../src/renesas/application/r_cui_image_adjust.c **** }
1091:../src/renesas/application/r_cui_image_adjust.c **** /******************************************************************************
1092:../src/renesas/application/r_cui_image_adjust.c **** End of function cui_menu_disp
1093:../src/renesas/application/r_cui_image_adjust.c **** ******************************************************************************/
1094:../src/renesas/application/r_cui_image_adjust.c **** 
1095:../src/renesas/application/r_cui_image_adjust.c **** /******************************************************************************
1096:../src/renesas/application/r_cui_image_adjust.c **** * Function Name:    cui_menu_disp_title
1097:../src/renesas/application/r_cui_image_adjust.c **** * Description :     Display each menu title part.
1098:../src/renesas/application/r_cui_image_adjust.c **** * Arguments :       st_reg_t const * p_regstruct: Pointer to register struct of
1099:../src/renesas/application/r_cui_image_adjust.c ****                                                each menu.
1100:../src/renesas/application/r_cui_image_adjust.c **** * Return Value :    none
1101:../src/renesas/application/r_cui_image_adjust.c **** ******************************************************************************/
1102:../src/renesas/application/r_cui_image_adjust.c **** static void cui_menu_disp_title(st_reg_t const * p_regstruct)
1103:../src/renesas/application/r_cui_image_adjust.c **** {
1104:../src/renesas/application/r_cui_image_adjust.c ****     /*** start printing menu ***/
1105:../src/renesas/application/r_cui_image_adjust.c ****     printf("\r\n");
1106:../src/renesas/application/r_cui_image_adjust.c ****     printf("---------------------------------------\r\n");
1107:../src/renesas/application/r_cui_image_adjust.c **** 
1108:../src/renesas/application/r_cui_image_adjust.c ****     /* Menu title */
1109:../src/renesas/application/r_cui_image_adjust.c ****     if (CUI_PATTERN_PRESET == current_menu[gs_cur_index].pattern)
1110:../src/renesas/application/r_cui_image_adjust.c ****     {
1111:../src/renesas/application/r_cui_image_adjust.c ****         printf("%s\r\n", current_menu[gs_cur_index].content);
1112:../src/renesas/application/r_cui_image_adjust.c ****         printf("Current Setting : %s\r\n", current_menu[gs_cur_index].selectlist[gs_preset_value[gs
1113:../src/renesas/application/r_cui_image_adjust.c ****     }
1114:../src/renesas/application/r_cui_image_adjust.c ****     else if (CUI_PATTERN_REGISTERSET == current_menu[gs_cur_index].pattern)
1115:../src/renesas/application/r_cui_image_adjust.c ****     {
1116:../src/renesas/application/r_cui_image_adjust.c ****         /* calculate value to print */
1117:../src/renesas/application/r_cui_image_adjust.c ****         int32_t target_val;
1118:../src/renesas/application/r_cui_image_adjust.c ****         target_val = cui_get_target_bit_value(p_regstruct);
1119:../src/renesas/application/r_cui_image_adjust.c ****         printf("%s %s\r\n", current_menu[gs_cur_index].content, p_regstruct->reg_name);
1120:../src/renesas/application/r_cui_image_adjust.c **** 
1121:../src/renesas/application/r_cui_image_adjust.c ****         /* Cast to an appropriate type */
1122:../src/renesas/application/r_cui_image_adjust.c ****         printf("Current Setting : %d\r\n", (int) target_val);
1123:../src/renesas/application/r_cui_image_adjust.c ****     }
1124:../src/renesas/application/r_cui_image_adjust.c ****     else
1125:../src/renesas/application/r_cui_image_adjust.c ****     {
1126:../src/renesas/application/r_cui_image_adjust.c ****         printf("%s\r\n", current_menu[gs_cur_index].content);
1127:../src/renesas/application/r_cui_image_adjust.c ****     }
1128:../src/renesas/application/r_cui_image_adjust.c ****     printf("---------------------------------------\r\n");
1129:../src/renesas/application/r_cui_image_adjust.c **** }
1130:../src/renesas/application/r_cui_image_adjust.c **** /******************************************************************************
1131:../src/renesas/application/r_cui_image_adjust.c **** End of function cui_menu_disp_title
1132:../src/renesas/application/r_cui_image_adjust.c **** ******************************************************************************/
1133:../src/renesas/application/r_cui_image_adjust.c **** 
1134:../src/renesas/application/r_cui_image_adjust.c **** /******************************************************************************
1135:../src/renesas/application/r_cui_image_adjust.c **** * Function Name:    cui_menu_disp_explanation
1136:../src/renesas/application/r_cui_image_adjust.c **** * Description :     Display each menu explanation part.
1137:../src/renesas/application/r_cui_image_adjust.c **** * Arguments :       st_reg_t const * p_regstruct: Pointer to register struct of
1138:../src/renesas/application/r_cui_image_adjust.c ****                                                each menu.
1139:../src/renesas/application/r_cui_image_adjust.c **** * Return Value :    none
1140:../src/renesas/application/r_cui_image_adjust.c **** ******************************************************************************/
1141:../src/renesas/application/r_cui_image_adjust.c **** static void cui_menu_disp_explanation(st_reg_t const * p_regstruct)
1142:../src/renesas/application/r_cui_image_adjust.c **** {
1143:../src/renesas/application/r_cui_image_adjust.c ****     uint32_t i = 0; /* Loop counter */
1144:../src/renesas/application/r_cui_image_adjust.c **** 
1145:../src/renesas/application/r_cui_image_adjust.c **** #if (TARGET_INPUT == INPUT_CMOS_CAM_1)
1146:../src/renesas/application/r_cui_image_adjust.c ****     printf("%s\r\n", current_menu[gs_cur_index].explanation);
1147:../src/renesas/application/r_cui_image_adjust.c **** #else
1148:../src/renesas/application/r_cui_image_adjust.c ****     if (CUI_STATE_ROTATION == current_menu[gs_cur_index].stateid)
1149:../src/renesas/application/r_cui_image_adjust.c ****     {
1150:../src/renesas/application/r_cui_image_adjust.c ****         /* DO NOTHING */
1151:../src/renesas/application/r_cui_image_adjust.c ****         ;
1152:../src/renesas/application/r_cui_image_adjust.c ****     }
1153:../src/renesas/application/r_cui_image_adjust.c ****     else
1154:../src/renesas/application/r_cui_image_adjust.c ****     {
1155:../src/renesas/application/r_cui_image_adjust.c ****         printf("%s\r\n", current_menu[gs_cur_index].explanation);
1156:../src/renesas/application/r_cui_image_adjust.c ****     }
1157:../src/renesas/application/r_cui_image_adjust.c **** #endif
1158:../src/renesas/application/r_cui_image_adjust.c ****     if ((CUI_STATE_BRIGHT == current_menu[gs_cur_index].stateid) ||
1159:../src/renesas/application/r_cui_image_adjust.c ****         (CUI_STATE_CONTRAST == current_menu[gs_cur_index].stateid))
1160:../src/renesas/application/r_cui_image_adjust.c ****     {
1161:../src/renesas/application/r_cui_image_adjust.c ****         printf("Please refer to the Application Note with regard to the Register setting block.\r\n
1162:../src/renesas/application/r_cui_image_adjust.c ****         printf("(Input controller - Output controller)\r\n");
1163:../src/renesas/application/r_cui_image_adjust.c ****     }
1164:../src/renesas/application/r_cui_image_adjust.c ****     else if (CUI_STATE_GAMMA == current_menu[gs_cur_index].stateid)
1165:../src/renesas/application/r_cui_image_adjust.c ****     {
1166:../src/renesas/application/r_cui_image_adjust.c ****         printf("Please refer the startup guide about Pattern0-Pattern3\r\n");
1167:../src/renesas/application/r_cui_image_adjust.c ****     }
1168:../src/renesas/application/r_cui_image_adjust.c ****     else
1169:../src/renesas/application/r_cui_image_adjust.c ****     {
1170:../src/renesas/application/r_cui_image_adjust.c ****         __asm("nop");
1171:../src/renesas/application/r_cui_image_adjust.c ****     }
1172:../src/renesas/application/r_cui_image_adjust.c **** 
1173:../src/renesas/application/r_cui_image_adjust.c ****     /* list of registers */
1174:../src/renesas/application/r_cui_image_adjust.c ****     if (CUI_PATTERN_REGISTERLIST == current_menu[gs_cur_index].pattern)
1175:../src/renesas/application/r_cui_image_adjust.c ****     {
1176:../src/renesas/application/r_cui_image_adjust.c ****         /* print list */
1177:../src/renesas/application/r_cui_image_adjust.c ****         for (i = 0; i < current_menu[gs_cur_index].regnum; i++)
1178:../src/renesas/application/r_cui_image_adjust.c ****         {
1179:../src/renesas/application/r_cui_image_adjust.c ****             /* calculate value to print */
1180:../src/renesas/application/r_cui_image_adjust.c ****             int32_t target_val;
1181:../src/renesas/application/r_cui_image_adjust.c ****             target_val = cui_get_target_bit_value(p_regstruct + i);
1182:../src/renesas/application/r_cui_image_adjust.c **** 
1183:../src/renesas/application/r_cui_image_adjust.c ****             /* Cast to an appropriate type */
1184:../src/renesas/application/r_cui_image_adjust.c ****             printf("%d : %s = %d\r\n", (int)i, p_regstruct[i].reg_name, (int)target_val);
1185:../src/renesas/application/r_cui_image_adjust.c ****         }
1186:../src/renesas/application/r_cui_image_adjust.c ****     }
1187:../src/renesas/application/r_cui_image_adjust.c ****     /* menu to set custom register value */
1188:../src/renesas/application/r_cui_image_adjust.c ****     else if (CUI_PATTERN_REGISTERSET == current_menu[gs_cur_index].pattern)
1189:../src/renesas/application/r_cui_image_adjust.c ****     {
1190:../src/renesas/application/r_cui_image_adjust.c ****         /* max value and min value */
1191:../src/renesas/application/r_cui_image_adjust.c ****         printf("%d - %d :Input Value\r\n", (int)p_regstruct->reg_min, (int)p_regstruct->reg_max);
1192:../src/renesas/application/r_cui_image_adjust.c ****         printf("D : Default(Hardware Initial Value Refer to the Hardware Manual)\r\n");
1193:../src/renesas/application/r_cui_image_adjust.c ****     }
1194:../src/renesas/application/r_cui_image_adjust.c ****     /* menu to select preset settings */
1195:../src/renesas/application/r_cui_image_adjust.c ****     else if (CUI_PATTERN_PRESET == current_menu[gs_cur_index].pattern)
1196:../src/renesas/application/r_cui_image_adjust.c ****     {
1197:../src/renesas/application/r_cui_image_adjust.c **** #if (TARGET_INPUT == INPUT_CMOS_CAM_1)
1198:../src/renesas/application/r_cui_image_adjust.c ****         for (i = 0; i < current_menu[gs_cur_index].selectnum; i++)
1199:../src/renesas/application/r_cui_image_adjust.c ****         {
1200:../src/renesas/application/r_cui_image_adjust.c ****             printf("%d : %s\r\n", i, current_menu[gs_cur_index].selectlist[i]);
1201:../src/renesas/application/r_cui_image_adjust.c ****         }
1202:../src/renesas/application/r_cui_image_adjust.c ****         /* print command D and C. */
1203:../src/renesas/application/r_cui_image_adjust.c ****         printf("D : %s\r\n", current_menu[gs_cur_index].selectlist[i]);
1204:../src/renesas/application/r_cui_image_adjust.c ****         /* GAMMA does not have Custom menu */
1205:../src/renesas/application/r_cui_image_adjust.c ****         if ((CUI_STATE_GAMMA  != current_menu[gs_cur_index].stateid) &&
1206:../src/renesas/application/r_cui_image_adjust.c ****             (CUI_STATE_DITHER != current_menu[gs_cur_index].stateid))
1207:../src/renesas/application/r_cui_image_adjust.c ****         {
1208:../src/renesas/application/r_cui_image_adjust.c ****             printf("C : Custom\r\n");
1209:../src/renesas/application/r_cui_image_adjust.c ****         }
1210:../src/renesas/application/r_cui_image_adjust.c ****         else
1211:../src/renesas/application/r_cui_image_adjust.c ****         {
1212:../src/renesas/application/r_cui_image_adjust.c ****             /* DO NOTHING */
1213:../src/renesas/application/r_cui_image_adjust.c ****             ;
1214:../src/renesas/application/r_cui_image_adjust.c ****         }
1215:../src/renesas/application/r_cui_image_adjust.c **** #else
1216:../src/renesas/application/r_cui_image_adjust.c ****         if (CUI_STATE_ROTATION == current_menu[gs_cur_index].stateid)
1217:../src/renesas/application/r_cui_image_adjust.c ****         {
1218:../src/renesas/application/r_cui_image_adjust.c ****             printf("This function can not be used in case of camera input INPUT_CMOS_CAM_2 or INPUT
1219:../src/renesas/application/r_cui_image_adjust.c ****             printf("If you would like to to use this function, you need to change the TARGET_INPUT 
1220:../src/renesas/application/r_cui_image_adjust.c ****             printf("from INPUT_CMOS_CAM_2 or INPUT_CMOS_CAM_3 to INPUT_CMOS_CAM_1.\r\n");
1221:../src/renesas/application/r_cui_image_adjust.c ****         }
1222:../src/renesas/application/r_cui_image_adjust.c ****         else
1223:../src/renesas/application/r_cui_image_adjust.c ****         {
1224:../src/renesas/application/r_cui_image_adjust.c ****             for (i = 0; i < current_menu[gs_cur_index].selectnum; i++)
1225:../src/renesas/application/r_cui_image_adjust.c ****             {
1226:../src/renesas/application/r_cui_image_adjust.c ****                 /* Cast to an appropriate type */
1227:../src/renesas/application/r_cui_image_adjust.c ****                 printf("%d : %s\r\n", (int)i, current_menu[gs_cur_index].selectlist[i]);
1228:../src/renesas/application/r_cui_image_adjust.c ****             }
1229:../src/renesas/application/r_cui_image_adjust.c ****             /* print command D and C. */
1230:../src/renesas/application/r_cui_image_adjust.c ****             printf("D : %s\r\n", current_menu[gs_cur_index].selectlist[i]);
1231:../src/renesas/application/r_cui_image_adjust.c ****             /* GAMMA does not have Custom menu */
1232:../src/renesas/application/r_cui_image_adjust.c ****             if ((CUI_STATE_GAMMA  != current_menu[gs_cur_index].stateid) &&
1233:../src/renesas/application/r_cui_image_adjust.c ****                 (CUI_STATE_DITHER != current_menu[gs_cur_index].stateid))
1234:../src/renesas/application/r_cui_image_adjust.c ****             {
1235:../src/renesas/application/r_cui_image_adjust.c ****                 printf("C : Custom\r\n");
1236:../src/renesas/application/r_cui_image_adjust.c ****             }
1237:../src/renesas/application/r_cui_image_adjust.c ****             else
1238:../src/renesas/application/r_cui_image_adjust.c ****             {
1239:../src/renesas/application/r_cui_image_adjust.c ****                 /* DO NOTHING */
1240:../src/renesas/application/r_cui_image_adjust.c ****                 ;
1241:../src/renesas/application/r_cui_image_adjust.c ****             }
1242:../src/renesas/application/r_cui_image_adjust.c ****         }
1243:../src/renesas/application/r_cui_image_adjust.c **** #endif
1244:../src/renesas/application/r_cui_image_adjust.c ****     }
1245:../src/renesas/application/r_cui_image_adjust.c ****     /* CUI_PATTERN_TRANSITION */
1246:../src/renesas/application/r_cui_image_adjust.c ****     else
1247:../src/renesas/application/r_cui_image_adjust.c ****     {
1248:../src/renesas/application/r_cui_image_adjust.c ****         for (i = 0; i < current_menu[gs_cur_index].selectnum; i++)
1249:../src/renesas/application/r_cui_image_adjust.c ****         {
1250:../src/renesas/application/r_cui_image_adjust.c ****             /* Cast to an appropriate type */
1251:../src/renesas/application/r_cui_image_adjust.c ****             printf("%d : %s\r\n", (int)i, current_menu[gs_cur_index].selectlist[i]);
1252:../src/renesas/application/r_cui_image_adjust.c ****         }
1253:../src/renesas/application/r_cui_image_adjust.c ****     }
1254:../src/renesas/application/r_cui_image_adjust.c ****     printf("----------------------------------------\r\n");
1255:../src/renesas/application/r_cui_image_adjust.c **** }
1256:../src/renesas/application/r_cui_image_adjust.c **** /******************************************************************************
1257:../src/renesas/application/r_cui_image_adjust.c **** End of function cui_menu_disp_explanation
1258:../src/renesas/application/r_cui_image_adjust.c **** ******************************************************************************/
1259:../src/renesas/application/r_cui_image_adjust.c **** 
1260:../src/renesas/application/r_cui_image_adjust.c **** /******************************************************************************
1261:../src/renesas/application/r_cui_image_adjust.c **** * Function Name:    cui_get_target_bit_value
1262:../src/renesas/application/r_cui_image_adjust.c **** * Description :     Get target bit value of target register and return
1263:../src/renesas/application/r_cui_image_adjust.c ****                     the value by Dec
1264:../src/renesas/application/r_cui_image_adjust.c **** * Arguments :       st_reg_t const * p_reg_info: Pointer to register struct that
1265:../src/renesas/application/r_cui_image_adjust.c ****                                               include target bit.
1266:../src/renesas/application/r_cui_image_adjust.c **** * Return Value :    The value of target bit by Dec.
1267:../src/renesas/application/r_cui_image_adjust.c **** ******************************************************************************/
1268:../src/renesas/application/r_cui_image_adjust.c **** static int32_t cui_get_target_bit_value(st_reg_t const *p_reg_info)
1269:../src/renesas/application/r_cui_image_adjust.c **** {
 298              		.loc 1 1269 0
 299              		.cfi_startproc
 300              		@ args = 0, pretend = 0, frame = 0
 301              		@ frame_needed = 0, uses_anonymous_args = 0
 302              		@ link register save eliminated.
 303              	.LVL23:
 304 0000 0030A0E1 		mov	r3, r0
1270:../src/renesas/application/r_cui_image_adjust.c ****     /* calculate value of target bits */
1271:../src/renesas/application/r_cui_image_adjust.c ****     int32_t target_bit_val = *(p_reg_info->reg_addr);
 305              		.loc 1 1271 0
 306 0004 042090E5 		ldr	r2, [r0, #4]
 307 0008 002092E5 		ldr	r2, [r2]
 308              	.LVL24:
1272:../src/renesas/application/r_cui_image_adjust.c ****     target_bit_val >>= p_reg_info->bitshift;
 309              		.loc 1 1272 0
 310 000c 140090E5 		ldr	r0, [r0, #20]
 311              	.LVL25:
1273:../src/renesas/application/r_cui_image_adjust.c ****     target_bit_val &= p_reg_info->bitmask;
 312              		.loc 1 1273 0
 313 0010 181093E5 		ldr	r1, [r3, #24]
 314 0014 522001E0 		and	r2, r1, r2, asr r0
 315              	.LVL26:
 316 0018 0200A0E1 		mov	r0, r2
 317              	.LVL27:
1274:../src/renesas/application/r_cui_image_adjust.c **** 
1275:../src/renesas/application/r_cui_image_adjust.c ****     /* minus value */
1276:../src/renesas/application/r_cui_image_adjust.c ****     if ((p_reg_info->reg_min < 0) && (p_reg_info->reg_max < target_bit_val))
 318              		.loc 1 1276 0
 319 001c 08C093E5 		ldr	ip, [r3, #8]
 320 0020 00005CE3 		cmp	ip, #0
 321 0024 010000BA 		blt	.L32
 322              	.LVL28:
 323              	.L30:
1277:../src/renesas/application/r_cui_image_adjust.c ****     {
1278:../src/renesas/application/r_cui_image_adjust.c ****         target_bit_val = (target_bit_val - p_reg_info->bitmask) - 1;
1279:../src/renesas/application/r_cui_image_adjust.c ****     }
1280:../src/renesas/application/r_cui_image_adjust.c ****     else
1281:../src/renesas/application/r_cui_image_adjust.c ****     {
1282:../src/renesas/application/r_cui_image_adjust.c ****         __asm("nop");
 324              		.loc 1 1282 0
 325              		.syntax divided
 326              	@ 1282 "../src/renesas/application/r_cui_image_adjust.c" 1
 327 0028 00F020E3 		nop
 328              	@ 0 "" 2
 329              	.LVL29:
1283:../src/renesas/application/r_cui_image_adjust.c ****     }
1284:../src/renesas/application/r_cui_image_adjust.c ****     return(target_bit_val);
1285:../src/renesas/application/r_cui_image_adjust.c **** }
 330              		.loc 1 1285 0
 331              		.arm
 332              		.syntax unified
 333 002c 1EFF2FE1 		bx	lr
 334              	.LVL30:
 335              	.L32:
1276:../src/renesas/application/r_cui_image_adjust.c ****     {
 336              		.loc 1 1276 0 discriminator 1
 337 0030 0C3093E5 		ldr	r3, [r3, #12]
 338              	.LVL31:
 339 0034 030052E1 		cmp	r2, r3
 340 0038 FAFFFFDA 		ble	.L30
1278:../src/renesas/application/r_cui_image_adjust.c ****     }
 341              		.loc 1 1278 0
 342 003c 012042E0 		sub	r2, r2, r1
 343 0040 010042E2 		sub	r0, r2, #1
 344              	.LVL32:
 345 0044 1EFF2FE1 		bx	lr
 346              		.cfi_endproc
 347              	.LFE8:
 349              		.section	.text.cui_input_judge,"ax",%progbits
 350              		.align	2
 351              		.syntax unified
 352              		.arm
 353              		.fpu neon
 355              	cui_input_judge:
 356              	.LFB10:
1286:../src/renesas/application/r_cui_image_adjust.c **** /******************************************************************************
1287:../src/renesas/application/r_cui_image_adjust.c **** End of function cui_get_target_bit_value
1288:../src/renesas/application/r_cui_image_adjust.c **** ******************************************************************************/
1289:../src/renesas/application/r_cui_image_adjust.c **** 
1290:../src/renesas/application/r_cui_image_adjust.c **** /******************************************************************************
1291:../src/renesas/application/r_cui_image_adjust.c **** * Function Name:    cui_serial_input
1292:../src/renesas/application/r_cui_image_adjust.c **** * Description :     receive serial input
1293:../src/renesas/application/r_cui_image_adjust.c **** * Arguments :       char_t * key_input (O)  pointer to store input.
1294:../src/renesas/application/r_cui_image_adjust.c **** * Return Value :    none
1295:../src/renesas/application/r_cui_image_adjust.c **** ******************************************************************************/
1296:../src/renesas/application/r_cui_image_adjust.c **** static void cui_serial_input(char_t * key_input)
1297:../src/renesas/application/r_cui_image_adjust.c **** {
1298:../src/renesas/application/r_cui_image_adjust.c ****     uint32_t index = 0;
1299:../src/renesas/application/r_cui_image_adjust.c ****     int input_data = 0; 
1300:../src/renesas/application/r_cui_image_adjust.c ****     uint32_t result = RESULT_OK;
1301:../src/renesas/application/r_cui_image_adjust.c **** 
1302:../src/renesas/application/r_cui_image_adjust.c ****     /* Ensure that the parameter is not null */
1303:../src/renesas/application/r_cui_image_adjust.c ****     if (NULL == key_input)
1304:../src/renesas/application/r_cui_image_adjust.c ****     {
1305:../src/renesas/application/r_cui_image_adjust.c ****         __asm("nop");
1306:../src/renesas/application/r_cui_image_adjust.c ****     }
1307:../src/renesas/application/r_cui_image_adjust.c ****     else
1308:../src/renesas/application/r_cui_image_adjust.c ****     {
1309:../src/renesas/application/r_cui_image_adjust.c ****         do
1310:../src/renesas/application/r_cui_image_adjust.c ****         {
1311:../src/renesas/application/r_cui_image_adjust.c ****             /* print prompt */
1312:../src/renesas/application/r_cui_image_adjust.c ****             printf(">>");
1313:../src/renesas/application/r_cui_image_adjust.c **** 
1314:../src/renesas/application/r_cui_image_adjust.c ****             /* initialize */
1315:../src/renesas/application/r_cui_image_adjust.c ****             for(index = 0; index < SDK_PRV_KEY_INPUT_BUFF_NUM; index++)
1316:../src/renesas/application/r_cui_image_adjust.c ****             {
1317:../src/renesas/application/r_cui_image_adjust.c ****                 key_input[index] = '\0';
1318:../src/renesas/application/r_cui_image_adjust.c ****             }
1319:../src/renesas/application/r_cui_image_adjust.c **** 
1320:../src/renesas/application/r_cui_image_adjust.c ****             index = 0;
1321:../src/renesas/application/r_cui_image_adjust.c ****             result = RESULT_OK;
1322:../src/renesas/application/r_cui_image_adjust.c **** 
1323:../src/renesas/application/r_cui_image_adjust.c ****             while(index < SDK_PRV_KEY_INPUT_BUFF_NUM)
1324:../src/renesas/application/r_cui_image_adjust.c ****             {
1325:../src/renesas/application/r_cui_image_adjust.c ****                 /* Get character from UART */
1326:../src/renesas/application/r_cui_image_adjust.c ****                 input_data = getchar();
1327:../src/renesas/application/r_cui_image_adjust.c **** 
1328:../src/renesas/application/r_cui_image_adjust.c ****                 /* 0x08 (BS) 0x7F(DEL)*/
1329:../src/renesas/application/r_cui_image_adjust.c ****                 if ((ASCII_BS == input_data) || (ASCII_DEL == input_data))
1330:../src/renesas/application/r_cui_image_adjust.c ****                 {
1331:../src/renesas/application/r_cui_image_adjust.c ****                     if (index > 0)
1332:../src/renesas/application/r_cui_image_adjust.c ****                     {
1333:../src/renesas/application/r_cui_image_adjust.c ****                         key_input[index] = '\0';
1334:../src/renesas/application/r_cui_image_adjust.c ****                         index--;
1335:../src/renesas/application/r_cui_image_adjust.c **** 
1336:../src/renesas/application/r_cui_image_adjust.c ****                         putchar(ASCII_BS);
1337:../src/renesas/application/r_cui_image_adjust.c ****                         putchar(ASCII_SP);
1338:../src/renesas/application/r_cui_image_adjust.c ****                         putchar(ASCII_BS);
1339:../src/renesas/application/r_cui_image_adjust.c **** 
1340:../src/renesas/application/r_cui_image_adjust.c ****                     }
1341:../src/renesas/application/r_cui_image_adjust.c ****                     else
1342:../src/renesas/application/r_cui_image_adjust.c ****                     {
1343:../src/renesas/application/r_cui_image_adjust.c ****                         __asm("nop");
1344:../src/renesas/application/r_cui_image_adjust.c ****                     }
1345:../src/renesas/application/r_cui_image_adjust.c ****                 }
1346:../src/renesas/application/r_cui_image_adjust.c **** #ifdef CR_MODE
1347:../src/renesas/application/r_cui_image_adjust.c ****                 /* 0x0D (CR) */
1348:../src/renesas/application/r_cui_image_adjust.c ****                 else if (ASCII_CR == input_data)
1349:../src/renesas/application/r_cui_image_adjust.c ****                 {
1350:../src/renesas/application/r_cui_image_adjust.c ****                     if (index == 0)
1351:../src/renesas/application/r_cui_image_adjust.c ****                     {
1352:../src/renesas/application/r_cui_image_adjust.c ****                         /* Only CR case */
1353:../src/renesas/application/r_cui_image_adjust.c ****                         result = RESULT_NG;
1354:../src/renesas/application/r_cui_image_adjust.c ****                     }
1355:../src/renesas/application/r_cui_image_adjust.c ****                     else
1356:../src/renesas/application/r_cui_image_adjust.c ****                     {
1357:../src/renesas/application/r_cui_image_adjust.c ****                         /* Normal case */
1358:../src/renesas/application/r_cui_image_adjust.c ****                         key_input[index] = (char_t)input_data;
1359:../src/renesas/application/r_cui_image_adjust.c ****                     }
1360:../src/renesas/application/r_cui_image_adjust.c ****                     printf("\r\n");
1361:../src/renesas/application/r_cui_image_adjust.c ****                     break;
1362:../src/renesas/application/r_cui_image_adjust.c ****                 }
1363:../src/renesas/application/r_cui_image_adjust.c **** 
1364:../src/renesas/application/r_cui_image_adjust.c **** #else
1365:../src/renesas/application/r_cui_image_adjust.c ****                 /* 0x0D (CR) */
1366:../src/renesas/application/r_cui_image_adjust.c ****                 else if (ASCII_CR == input_data)
1367:../src/renesas/application/r_cui_image_adjust.c ****                 {
1368:../src/renesas/application/r_cui_image_adjust.c ****                     key_input[index] = (char_t)input_data;
1369:../src/renesas/application/r_cui_image_adjust.c ****                     putchar(key_input[index]);
1370:../src/renesas/application/r_cui_image_adjust.c ****                     index++;
1371:../src/renesas/application/r_cui_image_adjust.c ****                 }
1372:../src/renesas/application/r_cui_image_adjust.c **** 
1373:../src/renesas/application/r_cui_image_adjust.c ****                 /* 0x0A (LF) */
1374:../src/renesas/application/r_cui_image_adjust.c ****                 else if (ASCII_LF == input_data)
1375:../src/renesas/application/r_cui_image_adjust.c ****                 {
1376:../src/renesas/application/r_cui_image_adjust.c ****                     if (index < 1)
1377:../src/renesas/application/r_cui_image_adjust.c ****                     {
1378:../src/renesas/application/r_cui_image_adjust.c ****                         /* Only LF case */
1379:../src/renesas/application/r_cui_image_adjust.c ****                         result = RESULT_NG;
1380:../src/renesas/application/r_cui_image_adjust.c ****                     }
1381:../src/renesas/application/r_cui_image_adjust.c ****                     else if (key_input[index-1] != ASCII_CR )
1382:../src/renesas/application/r_cui_image_adjust.c ****                     {
1383:../src/renesas/application/r_cui_image_adjust.c ****                         /* Without CR case */
1384:../src/renesas/application/r_cui_image_adjust.c ****                         result = RESULT_NG;
1385:../src/renesas/application/r_cui_image_adjust.c ****                     }
1386:../src/renesas/application/r_cui_image_adjust.c ****                     else
1387:../src/renesas/application/r_cui_image_adjust.c ****                     {
1388:../src/renesas/application/r_cui_image_adjust.c ****                         if(index == 1)
1389:../src/renesas/application/r_cui_image_adjust.c ****                         {
1390:../src/renesas/application/r_cui_image_adjust.c ****                             /* Only CR+LF case */
1391:../src/renesas/application/r_cui_image_adjust.c ****                             result = RESULT_NG;
1392:../src/renesas/application/r_cui_image_adjust.c ****                         }
1393:../src/renesas/application/r_cui_image_adjust.c ****                         else
1394:../src/renesas/application/r_cui_image_adjust.c ****                         {
1395:../src/renesas/application/r_cui_image_adjust.c ****                             /* DO NOTHING */
1396:../src/renesas/application/r_cui_image_adjust.c ****                             ;
1397:../src/renesas/application/r_cui_image_adjust.c ****                         }
1398:../src/renesas/application/r_cui_image_adjust.c **** 
1399:../src/renesas/application/r_cui_image_adjust.c ****                         /* Normal case */
1400:../src/renesas/application/r_cui_image_adjust.c ****                         key_input[index] = (char_t)input_data;
1401:../src/renesas/application/r_cui_image_adjust.c ****                         putchar(key_input[index]);
1402:../src/renesas/application/r_cui_image_adjust.c ****                     }
1403:../src/renesas/application/r_cui_image_adjust.c ****                     break;
1404:../src/renesas/application/r_cui_image_adjust.c ****                 }
1405:../src/renesas/application/r_cui_image_adjust.c **** #endif /* CR_MODE */
1406:../src/renesas/application/r_cui_image_adjust.c **** 
1407:../src/renesas/application/r_cui_image_adjust.c ****                 /* 0x20(SPACE)-0x7E(~) */
1408:../src/renesas/application/r_cui_image_adjust.c ****                 else if ((input_data >= ASCII_SP) && (input_data <= ASCII_TILDE))
1409:../src/renesas/application/r_cui_image_adjust.c ****                 {
1410:../src/renesas/application/r_cui_image_adjust.c ****                     if (index < CUI_MAX_INPUT_NUM)
1411:../src/renesas/application/r_cui_image_adjust.c ****                     {
1412:../src/renesas/application/r_cui_image_adjust.c ****                         /* Cast to an appropriate type */
1413:../src/renesas/application/r_cui_image_adjust.c ****                         key_input[index] = (char_t)input_data;
1414:../src/renesas/application/r_cui_image_adjust.c ****                         putchar(key_input[index]);
1415:../src/renesas/application/r_cui_image_adjust.c ****                         index++;
1416:../src/renesas/application/r_cui_image_adjust.c ****                     }
1417:../src/renesas/application/r_cui_image_adjust.c ****                     else
1418:../src/renesas/application/r_cui_image_adjust.c ****                     {
1419:../src/renesas/application/r_cui_image_adjust.c **** #ifdef CR_MODE
1420:../src/renesas/application/r_cui_image_adjust.c ****                         /* Key input over MAX */
1421:../src/renesas/application/r_cui_image_adjust.c ****                         key_input[SDK_PRV_KEY_INPUT_BUFF_NUM - 1] = ASCII_CR;
1422:../src/renesas/application/r_cui_image_adjust.c ****                         printf("\r\n");
1423:../src/renesas/application/r_cui_image_adjust.c ****                         break;
1424:../src/renesas/application/r_cui_image_adjust.c **** #else
1425:../src/renesas/application/r_cui_image_adjust.c ****                         /* Key input over MAX */
1426:../src/renesas/application/r_cui_image_adjust.c ****                         key_input[SDK_PRV_KEY_INPUT_BUFF_NUM - 2] = ASCII_CR;
1427:../src/renesas/application/r_cui_image_adjust.c ****                         key_input[SDK_PRV_KEY_INPUT_BUFF_NUM - 1] = ASCII_LF;
1428:../src/renesas/application/r_cui_image_adjust.c ****                         printf("\r\n");
1429:../src/renesas/application/r_cui_image_adjust.c ****                         break;
1430:../src/renesas/application/r_cui_image_adjust.c **** #endif
1431:../src/renesas/application/r_cui_image_adjust.c ****                     }
1432:../src/renesas/application/r_cui_image_adjust.c ****                 }
1433:../src/renesas/application/r_cui_image_adjust.c ****                 else
1434:../src/renesas/application/r_cui_image_adjust.c ****                 {
1435:../src/renesas/application/r_cui_image_adjust.c ****                     __asm("nop");
1436:../src/renesas/application/r_cui_image_adjust.c ****                 }
1437:../src/renesas/application/r_cui_image_adjust.c ****             }
1438:../src/renesas/application/r_cui_image_adjust.c ****         } while (result == RESULT_NG);
1439:../src/renesas/application/r_cui_image_adjust.c ****     }
1440:../src/renesas/application/r_cui_image_adjust.c **** 
1441:../src/renesas/application/r_cui_image_adjust.c ****     return;
1442:../src/renesas/application/r_cui_image_adjust.c **** }
1443:../src/renesas/application/r_cui_image_adjust.c **** /******************************************************************************
1444:../src/renesas/application/r_cui_image_adjust.c **** End of function cui_serial_input
1445:../src/renesas/application/r_cui_image_adjust.c **** ******************************************************************************/
1446:../src/renesas/application/r_cui_image_adjust.c **** 
1447:../src/renesas/application/r_cui_image_adjust.c **** /******************************************************************************
1448:../src/renesas/application/r_cui_image_adjust.c **** * Function Name:    cui_input_judge
1449:../src/renesas/application/r_cui_image_adjust.c **** * Description :     Judge input data
1450:../src/renesas/application/r_cui_image_adjust.c **** * Arguments :       char_t * key_input (I)  pointer to store input.
1451:../src/renesas/application/r_cui_image_adjust.c **** * Return Value :    uint32_t RESULT_OK / RESULT_NG
1452:../src/renesas/application/r_cui_image_adjust.c **** ******************************************************************************/
1453:../src/renesas/application/r_cui_image_adjust.c **** static uint32_t cui_input_judge(char_t * key_input)
1454:../src/renesas/application/r_cui_image_adjust.c **** {
 357              		.loc 1 1454 0
 358              		.cfi_startproc
 359              		@ args = 0, pretend = 0, frame = 0
 360              		@ frame_needed = 0, uses_anonymous_args = 0
 361              		@ link register save eliminated.
 362              	.LVL33:
1455:../src/renesas/application/r_cui_image_adjust.c ****     uint32_t result = RESULT_OK;
1456:../src/renesas/application/r_cui_image_adjust.c ****     uint32_t index = 0;
1457:../src/renesas/application/r_cui_image_adjust.c ****     uint32_t num_figure = 0;
1458:../src/renesas/application/r_cui_image_adjust.c **** 
1459:../src/renesas/application/r_cui_image_adjust.c ****     /* Checking for NULL key_input */
1460:../src/renesas/application/r_cui_image_adjust.c ****     if (NULL == key_input)
 363              		.loc 1 1460 0
 364 0000 000050E3 		cmp	r0, #0
 365 0004 4C00000A 		beq	.L48
1461:../src/renesas/application/r_cui_image_adjust.c ****     {
1462:../src/renesas/application/r_cui_image_adjust.c ****         __asm("nop");
1463:../src/renesas/application/r_cui_image_adjust.c ****     }
1464:../src/renesas/application/r_cui_image_adjust.c ****     else
1465:../src/renesas/application/r_cui_image_adjust.c ****     {
1466:../src/renesas/application/r_cui_image_adjust.c ****         switch(key_input[0])
 366              		.loc 1 1466 0
 367 0008 0030D0E5 		ldrb	r3, [r0]	@ zero_extendqisi2
 368 000c 2D3043E2 		sub	r3, r3, #45
 369 0010 470053E3 		cmp	r3, #71
 370 0014 03F19F97 		ldrls	pc, [pc, r3, asl #2]
 371 0018 660000EA 		b	.L42
 372              	.L37:
 373 001c 64010000 		.word	.L36
 374 0020 B8010000 		.word	.L42
 375 0024 B8010000 		.word	.L42
 376 0028 78010000 		.word	.L43
 377 002c 78010000 		.word	.L43
 378 0030 78010000 		.word	.L43
 379 0034 78010000 		.word	.L43
 380 0038 78010000 		.word	.L43
 381 003c 78010000 		.word	.L43
 382 0040 78010000 		.word	.L43
 383 0044 78010000 		.word	.L43
 384 0048 78010000 		.word	.L43
 385 004c 78010000 		.word	.L43
 386 0050 B8010000 		.word	.L42
 387 0054 B8010000 		.word	.L42
 388 0058 B8010000 		.word	.L42
 389 005c B8010000 		.word	.L42
 390 0060 B8010000 		.word	.L42
 391 0064 B8010000 		.word	.L42
 392 0068 B8010000 		.word	.L42
 393 006c B8010000 		.word	.L42
 394 0070 48010000 		.word	.L39
 395 0074 48010000 		.word	.L39
 396 0078 48010000 		.word	.L39
 397 007c B8010000 		.word	.L42
 398 0080 B8010000 		.word	.L42
 399 0084 B8010000 		.word	.L42
 400 0088 B8010000 		.word	.L42
 401 008c B8010000 		.word	.L42
 402 0090 B8010000 		.word	.L42
 403 0094 B8010000 		.word	.L42
 404 0098 B8010000 		.word	.L42
 405 009c B8010000 		.word	.L42
 406 00a0 B8010000 		.word	.L42
 407 00a4 B8010000 		.word	.L42
 408 00a8 B8010000 		.word	.L42
 409 00ac B8010000 		.word	.L42
 410 00b0 48010000 		.word	.L39
 411 00b4 B8010000 		.word	.L42
 412 00b8 48010000 		.word	.L39
 413 00bc B8010000 		.word	.L42
 414 00c0 B8010000 		.word	.L42
 415 00c4 B8010000 		.word	.L42
 416 00c8 B8010000 		.word	.L42
 417 00cc B8010000 		.word	.L42
 418 00d0 B8010000 		.word	.L42
 419 00d4 B8010000 		.word	.L42
 420 00d8 B8010000 		.word	.L42
 421 00dc B8010000 		.word	.L42
 422 00e0 B8010000 		.word	.L42
 423 00e4 B8010000 		.word	.L42
 424 00e8 B8010000 		.word	.L42
 425 00ec B8010000 		.word	.L42
 426 00f0 48010000 		.word	.L39
 427 00f4 48010000 		.word	.L39
 428 00f8 48010000 		.word	.L39
 429 00fc B8010000 		.word	.L42
 430 0100 B8010000 		.word	.L42
 431 0104 B8010000 		.word	.L42
 432 0108 B8010000 		.word	.L42
 433 010c B8010000 		.word	.L42
 434 0110 B8010000 		.word	.L42
 435 0114 B8010000 		.word	.L42
 436 0118 B8010000 		.word	.L42
 437 011c B8010000 		.word	.L42
 438 0120 B8010000 		.word	.L42
 439 0124 B8010000 		.word	.L42
 440 0128 B8010000 		.word	.L42
 441 012c B8010000 		.word	.L42
 442 0130 48010000 		.word	.L39
 443 0134 B8010000 		.word	.L42
 444 0138 48010000 		.word	.L39
 445              	.L48:
1462:../src/renesas/application/r_cui_image_adjust.c ****     }
 446              		.loc 1 1462 0
 447              		.syntax divided
 448              	@ 1462 "../src/renesas/application/r_cui_image_adjust.c" 1
 449 013c 00F020E3 		nop
 450              	@ 0 "" 2
1455:../src/renesas/application/r_cui_image_adjust.c ****     uint32_t result = RESULT_OK;
 451              		.loc 1 1455 0
 452              		.arm
 453              		.syntax unified
 454 0140 0000A0E3 		mov	r0, #0
 455              	.LVL34:
 456 0144 1EFF2FE1 		bx	lr
 457              	.LVL35:
 458              	.L39:
1467:../src/renesas/application/r_cui_image_adjust.c ****         {
1468:../src/renesas/application/r_cui_image_adjust.c ****             /* These cases are intentionally combined. */
1469:../src/renesas/application/r_cui_image_adjust.c ****             case ASCII_B:
1470:../src/renesas/application/r_cui_image_adjust.c ****             case ASCII_b:
1471:../src/renesas/application/r_cui_image_adjust.c ****             case ASCII_C:
1472:../src/renesas/application/r_cui_image_adjust.c ****             case ASCII_c:
1473:../src/renesas/application/r_cui_image_adjust.c ****             case ASCII_D:
1474:../src/renesas/application/r_cui_image_adjust.c ****             case ASCII_d:
1475:../src/renesas/application/r_cui_image_adjust.c ****             case ASCII_R:
1476:../src/renesas/application/r_cui_image_adjust.c ****             case ASCII_r:
1477:../src/renesas/application/r_cui_image_adjust.c ****             case ASCII_T:
1478:../src/renesas/application/r_cui_image_adjust.c ****             case ASCII_t:
1479:../src/renesas/application/r_cui_image_adjust.c ****             {
1480:../src/renesas/application/r_cui_image_adjust.c ****                 /* only 1 character is acceptable */
1481:../src/renesas/application/r_cui_image_adjust.c ****                 if (ASCII_CR == key_input[1])
 459              		.loc 1 1481 0
 460 0148 0130D0E5 		ldrb	r3, [r0, #1]	@ zero_extendqisi2
 461 014c 0D0053E3 		cmp	r3, #13
 462 0150 0100000A 		beq	.L49
1482:../src/renesas/application/r_cui_image_adjust.c ****                 {
1483:../src/renesas/application/r_cui_image_adjust.c ****                     result = RESULT_OK;
1484:../src/renesas/application/r_cui_image_adjust.c ****                 }
1485:../src/renesas/application/r_cui_image_adjust.c ****                 else
1486:../src/renesas/application/r_cui_image_adjust.c ****                 {
1487:../src/renesas/application/r_cui_image_adjust.c ****                     result = RESULT_NG;
 463              		.loc 1 1487 0
 464 0154 0100A0E3 		mov	r0, #1
 465              	.LVL36:
 466 0158 1EFF2FE1 		bx	lr
 467              	.LVL37:
 468              	.L49:
1483:../src/renesas/application/r_cui_image_adjust.c ****                 }
 469              		.loc 1 1483 0
 470 015c 0000A0E3 		mov	r0, #0
 471              	.LVL38:
 472 0160 1EFF2FE1 		bx	lr
 473              	.LVL39:
 474              	.L36:
1488:../src/renesas/application/r_cui_image_adjust.c ****                 }
1489:../src/renesas/application/r_cui_image_adjust.c ****                     break;
1490:../src/renesas/application/r_cui_image_adjust.c ****             }
1491:../src/renesas/application/r_cui_image_adjust.c **** 
1492:../src/renesas/application/r_cui_image_adjust.c ****             /* These cases are intentionally combined. */
1493:../src/renesas/application/r_cui_image_adjust.c ****             case ASCII_HYPHEN:
1494:../src/renesas/application/r_cui_image_adjust.c ****             {
1495:../src/renesas/application/r_cui_image_adjust.c **** 
1496:../src/renesas/application/r_cui_image_adjust.c ****                 if (ASCII_CR == key_input[1])
 475              		.loc 1 1496 0
 476 0164 0130D0E5 		ldrb	r3, [r0, #1]	@ zero_extendqisi2
 477 0168 0D0053E3 		cmp	r3, #13
 478 016c 1300000A 		beq	.L45
1497:../src/renesas/application/r_cui_image_adjust.c ****                 {
1498:../src/renesas/application/r_cui_image_adjust.c ****                     result = RESULT_NG;
1499:../src/renesas/application/r_cui_image_adjust.c ****                     break;
1500:../src/renesas/application/r_cui_image_adjust.c ****                 }
1501:../src/renesas/application/r_cui_image_adjust.c ****                 else
1502:../src/renesas/application/r_cui_image_adjust.c ****                 {
1503:../src/renesas/application/r_cui_image_adjust.c ****                     index = 1;
 479              		.loc 1 1503 0
 480 0170 0110A0E3 		mov	r1, #1
 481 0174 000000EA 		b	.L38
 482              	.L43:
1456:../src/renesas/application/r_cui_image_adjust.c ****     uint32_t num_figure = 0;
 483              		.loc 1 1456 0
 484 0178 0010A0E3 		mov	r1, #0
 485              	.L38:
1456:../src/renesas/application/r_cui_image_adjust.c ****     uint32_t num_figure = 0;
 486              		.loc 1 1456 0 is_stmt 0 discriminator 1
 487 017c 0020A0E3 		mov	r2, #0
 488              	.LVL40:
 489              	.L40:
1504:../src/renesas/application/r_cui_image_adjust.c ****                 }
1505:../src/renesas/application/r_cui_image_adjust.c ****             }
1506:../src/renesas/application/r_cui_image_adjust.c **** 
1507:../src/renesas/application/r_cui_image_adjust.c ****             /* GO THROUGH */
1508:../src/renesas/application/r_cui_image_adjust.c ****             case ASCII_0:
1509:../src/renesas/application/r_cui_image_adjust.c ****             case ASCII_1:
1510:../src/renesas/application/r_cui_image_adjust.c ****             case ASCII_2:
1511:../src/renesas/application/r_cui_image_adjust.c ****             case ASCII_3:
1512:../src/renesas/application/r_cui_image_adjust.c ****             case ASCII_4:
1513:../src/renesas/application/r_cui_image_adjust.c ****             case ASCII_5:
1514:../src/renesas/application/r_cui_image_adjust.c ****             case ASCII_6:
1515:../src/renesas/application/r_cui_image_adjust.c ****             case ASCII_7:
1516:../src/renesas/application/r_cui_image_adjust.c ****             case ASCII_8:
1517:../src/renesas/application/r_cui_image_adjust.c ****             case ASCII_9:
1518:../src/renesas/application/r_cui_image_adjust.c ****             {
1519:../src/renesas/application/r_cui_image_adjust.c **** 
1520:../src/renesas/application/r_cui_image_adjust.c ****                 /* check numbers are under 10000 */
1521:../src/renesas/application/r_cui_image_adjust.c ****                 num_figure = 0;
1522:../src/renesas/application/r_cui_image_adjust.c ****                 result = RESULT_NG;
1523:../src/renesas/application/r_cui_image_adjust.c ****                 for (num_figure = 0; num_figure <= 4; num_figure++)
 490              		.loc 1 1523 0 is_stmt 1 discriminator 1
 491 0180 040052E3 		cmp	r2, #4
 492 0184 0900008A 		bhi	.L50
1524:../src/renesas/application/r_cui_image_adjust.c ****                 {
1525:../src/renesas/application/r_cui_image_adjust.c ****                     if (ASCII_CR == key_input[index])
 493              		.loc 1 1525 0
 494 0188 0130D0E7 		ldrb	r3, [r0, r1]	@ zero_extendqisi2
 495 018c 0D0053E3 		cmp	r3, #13
 496 0190 0C00000A 		beq	.L46
1526:../src/renesas/application/r_cui_image_adjust.c ****                     {
1527:../src/renesas/application/r_cui_image_adjust.c ****                         result = RESULT_OK;
1528:../src/renesas/application/r_cui_image_adjust.c ****                         break;
1529:../src/renesas/application/r_cui_image_adjust.c ****                     }
1530:../src/renesas/application/r_cui_image_adjust.c ****                     else if ((ASCII_0 <= key_input[index])&&(key_input[index] <= ASCII_9))
 497              		.loc 1 1530 0
 498 0194 303043E2 		sub	r3, r3, #48
 499 0198 7330EFE6 		uxtb	r3, r3
 500 019c 090053E3 		cmp	r3, #9
 501 01a0 0A00008A 		bhi	.L47
1531:../src/renesas/application/r_cui_image_adjust.c ****                     {
1532:../src/renesas/application/r_cui_image_adjust.c ****                         index++;
 502              		.loc 1 1532 0
 503 01a4 011081E2 		add	r1, r1, #1
 504              	.LVL41:
1523:../src/renesas/application/r_cui_image_adjust.c ****                 {
 505              		.loc 1 1523 0
 506 01a8 012082E2 		add	r2, r2, #1
 507              	.LVL42:
 508 01ac F3FFFFEA 		b	.L40
 509              	.L50:
1522:../src/renesas/application/r_cui_image_adjust.c ****                 for (num_figure = 0; num_figure <= 4; num_figure++)
 510              		.loc 1 1522 0
 511 01b0 0100A0E3 		mov	r0, #1
 512              	.LVL43:
 513 01b4 1EFF2FE1 		bx	lr
 514              	.LVL44:
 515              	.L42:
1533:../src/renesas/application/r_cui_image_adjust.c ****                     }
1534:../src/renesas/application/r_cui_image_adjust.c ****                     else
1535:../src/renesas/application/r_cui_image_adjust.c ****                     {
1536:../src/renesas/application/r_cui_image_adjust.c ****                         result = RESULT_NG;
1537:../src/renesas/application/r_cui_image_adjust.c ****                         break;
1538:../src/renesas/application/r_cui_image_adjust.c ****                     }
1539:../src/renesas/application/r_cui_image_adjust.c ****                 }
1540:../src/renesas/application/r_cui_image_adjust.c ****                 break;
1541:../src/renesas/application/r_cui_image_adjust.c ****             }
1542:../src/renesas/application/r_cui_image_adjust.c **** 
1543:../src/renesas/application/r_cui_image_adjust.c ****             default:
1544:../src/renesas/application/r_cui_image_adjust.c ****             {
1545:../src/renesas/application/r_cui_image_adjust.c ****                 result = RESULT_NG;
 516              		.loc 1 1545 0
 517 01b8 0100A0E3 		mov	r0, #1
 518              	.LVL45:
 519 01bc 1EFF2FE1 		bx	lr
 520              	.LVL46:
 521              	.L45:
1498:../src/renesas/application/r_cui_image_adjust.c ****                     break;
 522              		.loc 1 1498 0
 523 01c0 0100A0E3 		mov	r0, #1
 524              	.LVL47:
 525 01c4 1EFF2FE1 		bx	lr
 526              	.LVL48:
 527              	.L46:
1527:../src/renesas/application/r_cui_image_adjust.c ****                         break;
 528              		.loc 1 1527 0
 529 01c8 0000A0E3 		mov	r0, #0
 530              	.LVL49:
 531 01cc 1EFF2FE1 		bx	lr
 532              	.LVL50:
 533              	.L47:
1536:../src/renesas/application/r_cui_image_adjust.c ****                         break;
 534              		.loc 1 1536 0
 535 01d0 0100A0E3 		mov	r0, #1
 536              	.LVL51:
1546:../src/renesas/application/r_cui_image_adjust.c ****                 break;
1547:../src/renesas/application/r_cui_image_adjust.c ****             }
1548:../src/renesas/application/r_cui_image_adjust.c ****         }
1549:../src/renesas/application/r_cui_image_adjust.c ****     }
1550:../src/renesas/application/r_cui_image_adjust.c ****     return result;
1551:../src/renesas/application/r_cui_image_adjust.c **** }
 537              		.loc 1 1551 0
 538 01d4 1EFF2FE1 		bx	lr
 539              		.cfi_endproc
 540              	.LFE10:
 542              		.global	__aeabi_uidiv
 543              		.global	__aeabi_uidivmod
 544              		.section	.text.cui_conv_num_to_char,"ax",%progbits
 545              		.align	2
 546              		.syntax unified
 547              		.arm
 548              		.fpu neon
 550              	cui_conv_num_to_char:
 551              	.LFB12:
1552:../src/renesas/application/r_cui_image_adjust.c **** /******************************************************************************
1553:../src/renesas/application/r_cui_image_adjust.c **** End of function cui_input_judge
1554:../src/renesas/application/r_cui_image_adjust.c **** ******************************************************************************/
1555:../src/renesas/application/r_cui_image_adjust.c **** /******************************************************************************
1556:../src/renesas/application/r_cui_image_adjust.c **** * Function Name:    cui_state_transition
1557:../src/renesas/application/r_cui_image_adjust.c **** * Description :     work depend on input
1558:../src/renesas/application/r_cui_image_adjust.c **** * Arguments :       char_t * key_input (I)  pointer to store input.
1559:../src/renesas/application/r_cui_image_adjust.c **** * Return Value :    uint32_t RESULT_OK / RESULT_NG
1560:../src/renesas/application/r_cui_image_adjust.c **** ******************************************************************************/
1561:../src/renesas/application/r_cui_image_adjust.c **** static uint32_t cui_state_transition(char_t * key_input)
1562:../src/renesas/application/r_cui_image_adjust.c **** {
1563:../src/renesas/application/r_cui_image_adjust.c ****     uint32_t i = 0;
1564:../src/renesas/application/r_cui_image_adjust.c ****     uint32_t check = 0x000000FF;
1565:../src/renesas/application/r_cui_image_adjust.c ****     uint32_t result = 0;
1566:../src/renesas/application/r_cui_image_adjust.c ****     uint32_t conv_num = 0;
1567:../src/renesas/application/r_cui_image_adjust.c **** 
1568:../src/renesas/application/r_cui_image_adjust.c ****     /* Checking for NULL parameters */
1569:../src/renesas/application/r_cui_image_adjust.c ****     if (NULL == key_input)
1570:../src/renesas/application/r_cui_image_adjust.c ****     {
1571:../src/renesas/application/r_cui_image_adjust.c ****         result = RESULT_NG;
1572:../src/renesas/application/r_cui_image_adjust.c ****     }
1573:../src/renesas/application/r_cui_image_adjust.c ****     else
1574:../src/renesas/application/r_cui_image_adjust.c ****     {
1575:../src/renesas/application/r_cui_image_adjust.c ****         switch(key_input[0])
1576:../src/renesas/application/r_cui_image_adjust.c ****         {
1577:../src/renesas/application/r_cui_image_adjust.c ****             /* Go to TOP menu */
1578:../src/renesas/application/r_cui_image_adjust.c ****             case ASCII_T:
1579:../src/renesas/application/r_cui_image_adjust.c ****             case ASCII_t:
1580:../src/renesas/application/r_cui_image_adjust.c ****             {
1581:../src/renesas/application/r_cui_image_adjust.c ****                 if (CUI_STATE_TOP == gs_cur_status)
1582:../src/renesas/application/r_cui_image_adjust.c ****                 {
1583:../src/renesas/application/r_cui_image_adjust.c ****                     result = RESULT_NG;
1584:../src/renesas/application/r_cui_image_adjust.c ****                 }
1585:../src/renesas/application/r_cui_image_adjust.c ****                 else
1586:../src/renesas/application/r_cui_image_adjust.c ****                 {
1587:../src/renesas/application/r_cui_image_adjust.c ****                     gs_cur_status = CUI_STATE_TOP;
1588:../src/renesas/application/r_cui_image_adjust.c ****                 }
1589:../src/renesas/application/r_cui_image_adjust.c ****                 break;
1590:../src/renesas/application/r_cui_image_adjust.c ****             }
1591:../src/renesas/application/r_cui_image_adjust.c ****             /* Back to parent menu */
1592:../src/renesas/application/r_cui_image_adjust.c ****             case ASCII_B:
1593:../src/renesas/application/r_cui_image_adjust.c ****             case ASCII_b:
1594:../src/renesas/application/r_cui_image_adjust.c ****             {
1595:../src/renesas/application/r_cui_image_adjust.c ****                 if(gs_cur_status == CUI_STATE_TOP)
1596:../src/renesas/application/r_cui_image_adjust.c ****                 {
1597:../src/renesas/application/r_cui_image_adjust.c ****                     result = RESULT_NG;
1598:../src/renesas/application/r_cui_image_adjust.c ****                 }
1599:../src/renesas/application/r_cui_image_adjust.c ****                 else
1600:../src/renesas/application/r_cui_image_adjust.c ****                 {
1601:../src/renesas/application/r_cui_image_adjust.c ****                     check = 0x000000FF;
1602:../src/renesas/application/r_cui_image_adjust.c ****                     result = RESULT_NG;
1603:../src/renesas/application/r_cui_image_adjust.c ****                     for (i = 0; i <= 3; i++)
1604:../src/renesas/application/r_cui_image_adjust.c ****                     {
1605:../src/renesas/application/r_cui_image_adjust.c ****                         if((gs_cur_status & check) != check)
1606:../src/renesas/application/r_cui_image_adjust.c ****                         {
1607:../src/renesas/application/r_cui_image_adjust.c ****                             gs_cur_status |= check;
1608:../src/renesas/application/r_cui_image_adjust.c ****                             result = RESULT_OK;
1609:../src/renesas/application/r_cui_image_adjust.c ****                             break;
1610:../src/renesas/application/r_cui_image_adjust.c ****                         }
1611:../src/renesas/application/r_cui_image_adjust.c ****                         else
1612:../src/renesas/application/r_cui_image_adjust.c ****                         {
1613:../src/renesas/application/r_cui_image_adjust.c ****                             check = (check << SDK_PRV_SHIFT_1BYTES);
1614:../src/renesas/application/r_cui_image_adjust.c ****                         }
1615:../src/renesas/application/r_cui_image_adjust.c ****                     }
1616:../src/renesas/application/r_cui_image_adjust.c ****                 }
1617:../src/renesas/application/r_cui_image_adjust.c ****                 break;
1618:../src/renesas/application/r_cui_image_adjust.c ****             }
1619:../src/renesas/application/r_cui_image_adjust.c **** 
1620:../src/renesas/application/r_cui_image_adjust.c ****             /* Move to custom menu */
1621:../src/renesas/application/r_cui_image_adjust.c ****             case ASCII_C:
1622:../src/renesas/application/r_cui_image_adjust.c ****             case ASCII_c:
1623:../src/renesas/application/r_cui_image_adjust.c ****             {
1624:../src/renesas/application/r_cui_image_adjust.c ****                 if(current_menu[gs_cur_index].pattern != CUI_PATTERN_PRESET)
1625:../src/renesas/application/r_cui_image_adjust.c ****                 {
1626:../src/renesas/application/r_cui_image_adjust.c ****                     result = RESULT_NG;
1627:../src/renesas/application/r_cui_image_adjust.c ****                 }
1628:../src/renesas/application/r_cui_image_adjust.c ****                 #if    (TARGET_INPUT == INPUT_CMOS_CAM_1)
1629:../src/renesas/application/r_cui_image_adjust.c ****                 else if((gs_cur_status == CUI_STATE_GAMMA)||(gs_cur_status == CUI_STATE_DITHER))
1630:../src/renesas/application/r_cui_image_adjust.c ****                 #else
1631:../src/renesas/application/r_cui_image_adjust.c ****                 else if(((gs_cur_status == CUI_STATE_GAMMA)||(gs_cur_status == CUI_STATE_DITHER))
1632:../src/renesas/application/r_cui_image_adjust.c ****                         ||(gs_cur_status == CUI_STATE_ROTATION))
1633:../src/renesas/application/r_cui_image_adjust.c ****                 #endif
1634:../src/renesas/application/r_cui_image_adjust.c ****                 {
1635:../src/renesas/application/r_cui_image_adjust.c ****                     result = RESULT_NG;
1636:../src/renesas/application/r_cui_image_adjust.c ****                 }
1637:../src/renesas/application/r_cui_image_adjust.c ****                 else
1638:../src/renesas/application/r_cui_image_adjust.c ****                 {
1639:../src/renesas/application/r_cui_image_adjust.c ****                     gs_cur_status = (gs_cur_status & 0xFFFF00FF) | 0x00000C00;
1640:../src/renesas/application/r_cui_image_adjust.c ****                     result = RESULT_OK;
1641:../src/renesas/application/r_cui_image_adjust.c ****                 }
1642:../src/renesas/application/r_cui_image_adjust.c ****                 break;
1643:../src/renesas/application/r_cui_image_adjust.c ****             }
1644:../src/renesas/application/r_cui_image_adjust.c ****             /* Set default Value */
1645:../src/renesas/application/r_cui_image_adjust.c ****             case ASCII_D:
1646:../src/renesas/application/r_cui_image_adjust.c ****             case ASCII_d:
1647:../src/renesas/application/r_cui_image_adjust.c ****             {
1648:../src/renesas/application/r_cui_image_adjust.c ****                 /* TOP menu: initialize whole registers */
1649:../src/renesas/application/r_cui_image_adjust.c ****                 if(CUI_STATE_TOP == gs_cur_status)
1650:../src/renesas/application/r_cui_image_adjust.c ****                 {
1651:../src/renesas/application/r_cui_image_adjust.c ****                     for (i = 0; i < ((sizeof(current_menu))/(sizeof(st_menu_t))); i++)
1652:../src/renesas/application/r_cui_image_adjust.c ****                     {
1653:../src/renesas/application/r_cui_image_adjust.c ****                         if (current_menu[i].pattern == CUI_PATTERN_PRESET)
1654:../src/renesas/application/r_cui_image_adjust.c ****                         {
1655:../src/renesas/application/r_cui_image_adjust.c ****                             uint32_t regset_loop = 0;
1656:../src/renesas/application/r_cui_image_adjust.c ****                             st_reg_t const * p_regstruct = current_menu[i].regstruct;
1657:../src/renesas/application/r_cui_image_adjust.c ****                             for (regset_loop = 0; regset_loop < current_menu[i].regnum; regset_loop
1658:../src/renesas/application/r_cui_image_adjust.c ****                             {
1659:../src/renesas/application/r_cui_image_adjust.c ****                                 /* Cast to an appropriate type */
1660:../src/renesas/application/r_cui_image_adjust.c ****                                 cui_registerset((uint32_t)p_regstruct[regset_loop].reg_default,
1661:../src/renesas/application/r_cui_image_adjust.c ****                                         p_regstruct[regset_loop].reg_addr, p_regstruct[regset_loop]
1662:../src/renesas/application/r_cui_image_adjust.c ****                                         p_regstruct[regset_loop].bitshift);
1663:../src/renesas/application/r_cui_image_adjust.c ****                             }
1664:../src/renesas/application/r_cui_image_adjust.c ****                         }
1665:../src/renesas/application/r_cui_image_adjust.c ****                     }
1666:../src/renesas/application/r_cui_image_adjust.c ****                         cui_set_update_register();
1667:../src/renesas/application/r_cui_image_adjust.c ****                         for(i = 0; i < CUI_MAX_MENUID; i++)
1668:../src/renesas/application/r_cui_image_adjust.c ****                         {
1669:../src/renesas/application/r_cui_image_adjust.c ****                             gs_preset_value[i] = current_menu[i].selectnum;
1670:../src/renesas/application/r_cui_image_adjust.c ****                         }
1671:../src/renesas/application/r_cui_image_adjust.c ****                         result = RESULT_OK;
1672:../src/renesas/application/r_cui_image_adjust.c ****                 }
1673:../src/renesas/application/r_cui_image_adjust.c ****                     /* PRESET menu: initialize whole registers of selected register group*/
1674:../src/renesas/application/r_cui_image_adjust.c ****                     else if(current_menu[gs_cur_index].pattern == CUI_PATTERN_PRESET)
1675:../src/renesas/application/r_cui_image_adjust.c ****                     {
1676:../src/renesas/application/r_cui_image_adjust.c ****                         st_reg_t const * p_regstruct = current_menu[gs_cur_index].regstruct;
1677:../src/renesas/application/r_cui_image_adjust.c ****                         #if (TARGET_INPUT == INPUT_CMOS_CAM_1)
1678:../src/renesas/application/r_cui_image_adjust.c ****                         for (i = 0; i < current_menu[gs_cur_index].regnum; i++)
1679:../src/renesas/application/r_cui_image_adjust.c ****                         {
1680:../src/renesas/application/r_cui_image_adjust.c ****                             cui_registerset(p_regstruct[i].reg_default, p_regstruct[i].reg_addr,
1681:../src/renesas/application/r_cui_image_adjust.c ****                                     p_regstruct[i].bitmask, p_regstruct[i].bitshift);
1682:../src/renesas/application/r_cui_image_adjust.c ****                         }
1683:../src/renesas/application/r_cui_image_adjust.c ****                             cui_set_update_register();
1684:../src/renesas/application/r_cui_image_adjust.c ****                             gs_preset_value[gs_cur_index] = current_menu[gs_cur_index].selectnum;
1685:../src/renesas/application/r_cui_image_adjust.c ****                             result = RESULT_OK;
1686:../src/renesas/application/r_cui_image_adjust.c ****                             #else
1687:../src/renesas/application/r_cui_image_adjust.c ****                             if(gs_cur_status == CUI_STATE_ROTATION)
1688:../src/renesas/application/r_cui_image_adjust.c ****                             {
1689:../src/renesas/application/r_cui_image_adjust.c ****                                 result = RESULT_NG;
1690:../src/renesas/application/r_cui_image_adjust.c ****                             }
1691:../src/renesas/application/r_cui_image_adjust.c ****                             else
1692:../src/renesas/application/r_cui_image_adjust.c ****                             {
1693:../src/renesas/application/r_cui_image_adjust.c ****                                 for (i = 0; i < current_menu[gs_cur_index].regnum; i++)
1694:../src/renesas/application/r_cui_image_adjust.c ****                                 {
1695:../src/renesas/application/r_cui_image_adjust.c ****                                 /* Cast to an appropriate type */
1696:../src/renesas/application/r_cui_image_adjust.c ****                                 cui_registerset((uint32_t)p_regstruct[i].reg_default, p_regstruct[i
1697:../src/renesas/application/r_cui_image_adjust.c ****                                         p_regstruct[i].bitmask, p_regstruct[i].bitshift);
1698:../src/renesas/application/r_cui_image_adjust.c ****                                 }
1699:../src/renesas/application/r_cui_image_adjust.c ****                                 cui_set_update_register();
1700:../src/renesas/application/r_cui_image_adjust.c ****                                 gs_preset_value[gs_cur_index] = current_menu[gs_cur_index].selectnu
1701:../src/renesas/application/r_cui_image_adjust.c ****                                 result = RESULT_OK;
1702:../src/renesas/application/r_cui_image_adjust.c ****                             }
1703:../src/renesas/application/r_cui_image_adjust.c ****                             #endif
1704:../src/renesas/application/r_cui_image_adjust.c ****                 }
1705:../src/renesas/application/r_cui_image_adjust.c ****                 /* CUSTOM REGISTER setting menu: initialize the selected register */
1706:../src/renesas/application/r_cui_image_adjust.c ****                         else if(current_menu[gs_cur_index].pattern == CUI_PATTERN_REGISTERSET)
1707:../src/renesas/application/r_cui_image_adjust.c ****                         {
1708:../src/renesas/application/r_cui_image_adjust.c ****                             st_reg_t const *p_regstruct = current_menu[gs_cur_index].regstruct;
1709:../src/renesas/application/r_cui_image_adjust.c **** 
1710:../src/renesas/application/r_cui_image_adjust.c ****                                 /* Cast to an appropriate type */
1711:../src/renesas/application/r_cui_image_adjust.c ****                                 cui_registerset((uint32_t)p_regstruct[0].reg_default, p_regstruct[0
1712:../src/renesas/application/r_cui_image_adjust.c ****                                         p_regstruct[0].bitmask, p_regstruct[0].bitshift);
1713:../src/renesas/application/r_cui_image_adjust.c ****                                     cui_set_update_register();
1714:../src/renesas/application/r_cui_image_adjust.c ****                                     gs_preset_value[gs_cur_index] = current_menu[gs_cur_index].sele
1715:../src/renesas/application/r_cui_image_adjust.c ****                                     result = RESULT_OK;
1716:../src/renesas/application/r_cui_image_adjust.c ****                         }
1717:../src/renesas/application/r_cui_image_adjust.c ****                                 else
1718:../src/renesas/application/r_cui_image_adjust.c ****                                 {
1719:../src/renesas/application/r_cui_image_adjust.c ****                                     result = RESULT_NG;
1720:../src/renesas/application/r_cui_image_adjust.c ****                                 }
1721:../src/renesas/application/r_cui_image_adjust.c ****                 break;
1722:../src/renesas/application/r_cui_image_adjust.c ****             }
1723:../src/renesas/application/r_cui_image_adjust.c ****             /* print whole registers */
1724:../src/renesas/application/r_cui_image_adjust.c ****             case ASCII_R:
1725:../src/renesas/application/r_cui_image_adjust.c ****             case ASCII_r:
1726:../src/renesas/application/r_cui_image_adjust.c ****             {
1727:../src/renesas/application/r_cui_image_adjust.c ****                 char_t   work_char_buff[SDK_PRV_MAX_REG_BIT_VAL_DIGIT] = {0};
1728:../src/renesas/application/r_cui_image_adjust.c ****                 uint32_t work_digit = 0;
1729:../src/renesas/application/r_cui_image_adjust.c ****                 uint32_t work_val = 0;
1730:../src/renesas/application/r_cui_image_adjust.c ****                 uint32_t work_loop = 0;
1731:../src/renesas/application/r_cui_image_adjust.c ****                 for (i = 0; i < ((sizeof(gs_allparam))/(sizeof(st_header_info_t))); i++)
1732:../src/renesas/application/r_cui_image_adjust.c ****                 {
1733:../src/renesas/application/r_cui_image_adjust.c ****                     printf("%s", gs_allparam[i].string);
1734:../src/renesas/application/r_cui_image_adjust.c ****                     if (gs_allparam[i].attribute != NOT_READ)
1735:../src/renesas/application/r_cui_image_adjust.c ****                     {
1736:../src/renesas/application/r_cui_image_adjust.c ****                         printf("(");
1737:../src/renesas/application/r_cui_image_adjust.c ****                         work_val = *(gs_allparam[i].reg_struct->reg_addr);
1738:../src/renesas/application/r_cui_image_adjust.c ****                         work_val = ((work_val >> gs_allparam[i].reg_struct->bitshift)
1739:../src/renesas/application/r_cui_image_adjust.c ****                                 & gs_allparam[i].reg_struct->bitmask);
1740:../src/renesas/application/r_cui_image_adjust.c **** 
1741:../src/renesas/application/r_cui_image_adjust.c ****                         /*Ensuring that NULL items aren't processed */
1742:../src/renesas/application/r_cui_image_adjust.c ****                         if (gs_allparam[i].string_sub == NULL)
1743:../src/renesas/application/r_cui_image_adjust.c ****                         {
1744:../src/renesas/application/r_cui_image_adjust.c ****                             result = cui_conv_num_to_char(work_val, work_char_buff, &work_digit);
1745:../src/renesas/application/r_cui_image_adjust.c ****                             if (result == RESULT_OK)
1746:../src/renesas/application/r_cui_image_adjust.c ****                             {
1747:../src/renesas/application/r_cui_image_adjust.c ****                                 for (work_loop = work_digit; work_loop < SDK_PRV_MAX_REG_BIT_VAL_DI
1748:../src/renesas/application/r_cui_image_adjust.c ****                                 {
1749:../src/renesas/application/r_cui_image_adjust.c ****                                     printf("%c", work_char_buff[work_loop]);
1750:../src/renesas/application/r_cui_image_adjust.c ****                                 }
1751:../src/renesas/application/r_cui_image_adjust.c ****                                 printf("u");
1752:../src/renesas/application/r_cui_image_adjust.c ****                             }
1753:../src/renesas/application/r_cui_image_adjust.c ****                             else
1754:../src/renesas/application/r_cui_image_adjust.c ****                             {
1755:../src/renesas/application/r_cui_image_adjust.c ****                                 printf("REG_READ_ERR!!");
1756:../src/renesas/application/r_cui_image_adjust.c ****                             }
1757:../src/renesas/application/r_cui_image_adjust.c ****                         }
1758:../src/renesas/application/r_cui_image_adjust.c ****                         else
1759:../src/renesas/application/r_cui_image_adjust.c ****                         {
1760:../src/renesas/application/r_cui_image_adjust.c ****                             printf("%s", gs_allparam[i].string_sub[work_val]);
1761:../src/renesas/application/r_cui_image_adjust.c ****                         }
1762:../src/renesas/application/r_cui_image_adjust.c ****                         printf(")");
1763:../src/renesas/application/r_cui_image_adjust.c ****                     }
1764:../src/renesas/application/r_cui_image_adjust.c ****                     printf("\r\n");
1765:../src/renesas/application/r_cui_image_adjust.c ****                 }
1766:../src/renesas/application/r_cui_image_adjust.c ****                 result = RESULT_OK;
1767:../src/renesas/application/r_cui_image_adjust.c ****             }
1768:../src/renesas/application/r_cui_image_adjust.c ****                 break;
1769:../src/renesas/application/r_cui_image_adjust.c ****             case ASCII_P:
1770:../src/renesas/application/r_cui_image_adjust.c ****             case ASCII_p:
1771:../src/renesas/application/r_cui_image_adjust.c ****             {
1772:../src/renesas/application/r_cui_image_adjust.c ****                 result = RESULT_OK;
1773:../src/renesas/application/r_cui_image_adjust.c ****             }
1774:../src/renesas/application/r_cui_image_adjust.c ****                 break;
1775:../src/renesas/application/r_cui_image_adjust.c ****             /* Number is received */
1776:../src/renesas/application/r_cui_image_adjust.c ****             case ASCII_0:
1777:../src/renesas/application/r_cui_image_adjust.c ****             case ASCII_1:
1778:../src/renesas/application/r_cui_image_adjust.c ****             case ASCII_2:
1779:../src/renesas/application/r_cui_image_adjust.c ****             case ASCII_3:
1780:../src/renesas/application/r_cui_image_adjust.c ****             case ASCII_4:
1781:../src/renesas/application/r_cui_image_adjust.c ****             case ASCII_5:
1782:../src/renesas/application/r_cui_image_adjust.c ****             case ASCII_6:
1783:../src/renesas/application/r_cui_image_adjust.c ****             case ASCII_7:
1784:../src/renesas/application/r_cui_image_adjust.c ****             case ASCII_8:
1785:../src/renesas/application/r_cui_image_adjust.c ****             case ASCII_9:
1786:../src/renesas/application/r_cui_image_adjust.c ****             case ASCII_HYPHEN:
1787:../src/renesas/application/r_cui_image_adjust.c ****             {
1788:../src/renesas/application/r_cui_image_adjust.c **** 
1789:../src/renesas/application/r_cui_image_adjust.c ****                 /* get received number */
1790:../src/renesas/application/r_cui_image_adjust.c ****                 result = cui_conv_char_to_num(&conv_num, key_input);
1791:../src/renesas/application/r_cui_image_adjust.c ****                 if (result == RESULT_NG)
1792:../src/renesas/application/r_cui_image_adjust.c ****                 {
1793:../src/renesas/application/r_cui_image_adjust.c ****                     __asm("nop");
1794:../src/renesas/application/r_cui_image_adjust.c ****                 }
1795:../src/renesas/application/r_cui_image_adjust.c ****                 /* set value of custom regiter */
1796:../src/renesas/application/r_cui_image_adjust.c ****                 else if (current_menu[gs_cur_index].pattern == CUI_PATTERN_REGISTERSET)
1797:../src/renesas/application/r_cui_image_adjust.c ****                 {
1798:../src/renesas/application/r_cui_image_adjust.c ****                     st_reg_t const *p_regstruct = current_menu[gs_cur_index].regstruct;
1799:../src/renesas/application/r_cui_image_adjust.c **** 
1800:../src/renesas/application/r_cui_image_adjust.c ****                     /* Cast to an appropriate type */
1801:../src/renesas/application/r_cui_image_adjust.c ****                     if ((p_regstruct->reg_min <= (int)conv_num) && ((int)conv_num <= p_regstruct->r
1802:../src/renesas/application/r_cui_image_adjust.c ****                     {
1803:../src/renesas/application/r_cui_image_adjust.c ****                         cui_registerset(conv_num, p_regstruct->reg_addr, p_regstruct->bitmask, p_re
1804:../src/renesas/application/r_cui_image_adjust.c ****                         cui_set_update_register();
1805:../src/renesas/application/r_cui_image_adjust.c ****                         gs_preset_value[gs_cur_index] = current_menu[gs_cur_index].selectnum+1;
1806:../src/renesas/application/r_cui_image_adjust.c ****                         result = RESULT_OK;
1807:../src/renesas/application/r_cui_image_adjust.c ****                     }
1808:../src/renesas/application/r_cui_image_adjust.c ****                     else
1809:../src/renesas/application/r_cui_image_adjust.c ****                     {
1810:../src/renesas/application/r_cui_image_adjust.c ****                         result = RESULT_NG;
1811:../src/renesas/application/r_cui_image_adjust.c ****                     }
1812:../src/renesas/application/r_cui_image_adjust.c ****                 }
1813:../src/renesas/application/r_cui_image_adjust.c ****                 /* check num of branches */
1814:../src/renesas/application/r_cui_image_adjust.c ****                 else if (current_menu[gs_cur_index].selectnum <= conv_num)
1815:../src/renesas/application/r_cui_image_adjust.c ****                 {
1816:../src/renesas/application/r_cui_image_adjust.c ****                     result = RESULT_NG;
1817:../src/renesas/application/r_cui_image_adjust.c ****                 }
1818:../src/renesas/application/r_cui_image_adjust.c ****                 /* set preset values */
1819:../src/renesas/application/r_cui_image_adjust.c ****                 else if (current_menu[gs_cur_index].pattern == CUI_PATTERN_PRESET)
1820:../src/renesas/application/r_cui_image_adjust.c ****                 {
1821:../src/renesas/application/r_cui_image_adjust.c ****                     #if (TARGET_INPUT == INPUT_CMOS_CAM_1)
1822:../src/renesas/application/r_cui_image_adjust.c ****                     st_reg_t const *p_regstruct = current_menu[gs_cur_index].regstruct;
1823:../src/renesas/application/r_cui_image_adjust.c ****                     for (i = 0; i < current_menu[gs_cur_index].regnum; i++)
1824:../src/renesas/application/r_cui_image_adjust.c ****                     {
1825:../src/renesas/application/r_cui_image_adjust.c ****                         cui_registerset(p_regstruct[i].preset[conv_num], p_regstruct[i].reg_addr,
1826:../src/renesas/application/r_cui_image_adjust.c ****                                 p_regstruct[i].bitmask, p_regstruct[i].bitshift);
1827:../src/renesas/application/r_cui_image_adjust.c ****                     }
1828:../src/renesas/application/r_cui_image_adjust.c ****                     cui_set_update_register();
1829:../src/renesas/application/r_cui_image_adjust.c ****                     gs_preset_value[gs_cur_index] = conv_num;
1830:../src/renesas/application/r_cui_image_adjust.c ****                     result = RESULT_OK;
1831:../src/renesas/application/r_cui_image_adjust.c ****                     #else
1832:../src/renesas/application/r_cui_image_adjust.c ****                     st_reg_t const *p_regstruct = current_menu[gs_cur_index].regstruct;
1833:../src/renesas/application/r_cui_image_adjust.c ****                     if (CUI_STATE_ROTATION == current_menu[gs_cur_index].stateid)
1834:../src/renesas/application/r_cui_image_adjust.c ****                     {
1835:../src/renesas/application/r_cui_image_adjust.c ****                         result = RESULT_NG;
1836:../src/renesas/application/r_cui_image_adjust.c ****                     }
1837:../src/renesas/application/r_cui_image_adjust.c ****                     else
1838:../src/renesas/application/r_cui_image_adjust.c ****                     {
1839:../src/renesas/application/r_cui_image_adjust.c ****                         for (i = 0; i < current_menu[gs_cur_index].regnum; i++)
1840:../src/renesas/application/r_cui_image_adjust.c ****                         {
1841:../src/renesas/application/r_cui_image_adjust.c ****                             cui_registerset(p_regstruct[i].preset[conv_num], p_regstruct[i].reg_add
1842:../src/renesas/application/r_cui_image_adjust.c ****                                     p_regstruct[i].bitmask, p_regstruct[i].bitshift);
1843:../src/renesas/application/r_cui_image_adjust.c ****                         }
1844:../src/renesas/application/r_cui_image_adjust.c ****                         cui_set_update_register();
1845:../src/renesas/application/r_cui_image_adjust.c ****                         gs_preset_value[gs_cur_index] = conv_num;
1846:../src/renesas/application/r_cui_image_adjust.c ****                         result = RESULT_OK;
1847:../src/renesas/application/r_cui_image_adjust.c ****                     }
1848:../src/renesas/application/r_cui_image_adjust.c ****                     #endif
1849:../src/renesas/application/r_cui_image_adjust.c ****                 }
1850:../src/renesas/application/r_cui_image_adjust.c ****                 /* move to selected menu */
1851:../src/renesas/application/r_cui_image_adjust.c ****                 else
1852:../src/renesas/application/r_cui_image_adjust.c ****                 {
1853:../src/renesas/application/r_cui_image_adjust.c ****                     /* Check Custom menu or not */
1854:../src/renesas/application/r_cui_image_adjust.c ****                     if( (gs_cur_status & 0x0000FF00) == 0x00000C00)
1855:../src/renesas/application/r_cui_image_adjust.c ****                     {
1856:../src/renesas/application/r_cui_image_adjust.c ****                         /* search LSB only */
1857:../src/renesas/application/r_cui_image_adjust.c ****                         i = 3;
1858:../src/renesas/application/r_cui_image_adjust.c ****                         check = 0x000000FF;
1859:../src/renesas/application/r_cui_image_adjust.c ****                         conv_num <<= SDK_PRV_SHIFT_0BYTES;
1860:../src/renesas/application/r_cui_image_adjust.c ****                     }
1861:../src/renesas/application/r_cui_image_adjust.c ****                     else
1862:../src/renesas/application/r_cui_image_adjust.c ****                     {
1863:../src/renesas/application/r_cui_image_adjust.c ****                         /* search from MSB to LSB */
1864:../src/renesas/application/r_cui_image_adjust.c ****                         i = 0;
1865:../src/renesas/application/r_cui_image_adjust.c ****                         check = 0xFF000000;
1866:../src/renesas/application/r_cui_image_adjust.c ****                         conv_num <<= SDK_PRV_SHIFT_3BYTES;
1867:../src/renesas/application/r_cui_image_adjust.c ****                     }
1868:../src/renesas/application/r_cui_image_adjust.c **** 
1869:../src/renesas/application/r_cui_image_adjust.c ****                     result = RESULT_NG;
1870:../src/renesas/application/r_cui_image_adjust.c ****                     for( ; i < 4; i++)
1871:../src/renesas/application/r_cui_image_adjust.c ****                     {
1872:../src/renesas/application/r_cui_image_adjust.c ****                         if( (gs_cur_status & check) == check)
1873:../src/renesas/application/r_cui_image_adjust.c ****                         {
1874:../src/renesas/application/r_cui_image_adjust.c ****                             gs_cur_status = (gs_cur_status & (~check)) | conv_num;
1875:../src/renesas/application/r_cui_image_adjust.c ****                             result = RESULT_OK;
1876:../src/renesas/application/r_cui_image_adjust.c ****                             break;
1877:../src/renesas/application/r_cui_image_adjust.c ****                         }
1878:../src/renesas/application/r_cui_image_adjust.c ****                         else
1879:../src/renesas/application/r_cui_image_adjust.c ****                         {
1880:../src/renesas/application/r_cui_image_adjust.c ****                             check    >>= SDK_PRV_SHIFT_1BYTES;
1881:../src/renesas/application/r_cui_image_adjust.c ****                             conv_num >>= SDK_PRV_SHIFT_1BYTES;
1882:../src/renesas/application/r_cui_image_adjust.c ****                         }
1883:../src/renesas/application/r_cui_image_adjust.c ****                     }
1884:../src/renesas/application/r_cui_image_adjust.c ****                 }
1885:../src/renesas/application/r_cui_image_adjust.c ****                 break;
1886:../src/renesas/application/r_cui_image_adjust.c ****             }
1887:../src/renesas/application/r_cui_image_adjust.c **** 
1888:../src/renesas/application/r_cui_image_adjust.c ****             default:
1889:../src/renesas/application/r_cui_image_adjust.c ****             {
1890:../src/renesas/application/r_cui_image_adjust.c ****                 result = RESULT_NG;
1891:../src/renesas/application/r_cui_image_adjust.c ****                 break;
1892:../src/renesas/application/r_cui_image_adjust.c ****             }
1893:../src/renesas/application/r_cui_image_adjust.c ****         }
1894:../src/renesas/application/r_cui_image_adjust.c ****     }
1895:../src/renesas/application/r_cui_image_adjust.c ****     return result;
1896:../src/renesas/application/r_cui_image_adjust.c **** }
1897:../src/renesas/application/r_cui_image_adjust.c **** 
1898:../src/renesas/application/r_cui_image_adjust.c **** /******************************************************************************
1899:../src/renesas/application/r_cui_image_adjust.c **** End of function cui_state_transition
1900:../src/renesas/application/r_cui_image_adjust.c **** ******************************************************************************/
1901:../src/renesas/application/r_cui_image_adjust.c **** 
1902:../src/renesas/application/r_cui_image_adjust.c **** /******************************************************************************
1903:../src/renesas/application/r_cui_image_adjust.c **** * Function Name:    cui_conv_num_to_char
1904:../src/renesas/application/r_cui_image_adjust.c **** * Description :     Conversion from number to character
1905:../src/renesas/application/r_cui_image_adjust.c **** *                   The higher digit will be stored in the lower address
1906:../src/renesas/application/r_cui_image_adjust.c **** * Arguments :       uint32_t conv_num: (I) Conversion target number
1907:../src/renesas/application/r_cui_image_adjust.c **** *                   char_t*  buff:     (O) Conversion result character string
1908:../src/renesas/application/r_cui_image_adjust.c **** *                   uint32_t* digit:   (O) Number of significant digits
1909:../src/renesas/application/r_cui_image_adjust.c **** * Return Value :    uint32_t RESULT_OK/RESULT_NG
1910:../src/renesas/application/r_cui_image_adjust.c **** ******************************************************************************/
1911:../src/renesas/application/r_cui_image_adjust.c **** static uint32_t cui_conv_num_to_char (uint32_t conv_num , char_t* buff, uint32_t* digit)
1912:../src/renesas/application/r_cui_image_adjust.c **** {
 552              		.loc 1 1912 0
 553              		.cfi_startproc
 554              		@ args = 0, pretend = 0, frame = 0
 555              		@ frame_needed = 0, uses_anonymous_args = 0
 556              	.LVL52:
1913:../src/renesas/application/r_cui_image_adjust.c ****     uint32_t    loop;
1914:../src/renesas/application/r_cui_image_adjust.c ****     uint32_t    result = RESULT_OK;
1915:../src/renesas/application/r_cui_image_adjust.c ****     uint32_t    calc_digits = SDK_PRV_MAX_REG_BIT_VAL_DIGIT;
1916:../src/renesas/application/r_cui_image_adjust.c ****     uint32_t    div_val = 10000;
1917:../src/renesas/application/r_cui_image_adjust.c ****     uint32_t    div_result = 0;
1918:../src/renesas/application/r_cui_image_adjust.c **** 
1919:../src/renesas/application/r_cui_image_adjust.c ****     /* checking for NULL input parameters */
1920:../src/renesas/application/r_cui_image_adjust.c ****     if ((NULL == buff) || (NULL == digit))
 557              		.loc 1 1920 0
 558 0000 000052E3 		cmp	r2, #0
 559 0004 00005113 		cmpne	r1, #0
 560 0008 2300000A 		beq	.L58
1912:../src/renesas/application/r_cui_image_adjust.c ****     uint32_t    loop;
 561              		.loc 1 1912 0
 562 000c F0412DE9 		push	{r4, r5, r6, r7, r8, lr}
 563              		.cfi_def_cfa_offset 24
 564              		.cfi_offset 4, -24
 565              		.cfi_offset 5, -20
 566              		.cfi_offset 6, -16
 567              		.cfi_offset 7, -12
 568              		.cfi_offset 8, -8
 569              		.cfi_offset 14, -4
 570 0010 0080A0E1 		mov	r8, r0
 571 0014 0160A0E1 		mov	r6, r1
 572 0018 0270A0E1 		mov	r7, r2
 573 001c 104702E3 		movw	r4, #10000
 574 0020 0050A0E3 		mov	r5, #0
 575 0024 0D0000EA 		b	.L53
 576              	.LVL53:
 577              	.L54:
1921:../src/renesas/application/r_cui_image_adjust.c ****     {
1922:../src/renesas/application/r_cui_image_adjust.c ****         result = RESULT_NG;
1923:../src/renesas/application/r_cui_image_adjust.c ****     }
1924:../src/renesas/application/r_cui_image_adjust.c ****     else
1925:../src/renesas/application/r_cui_image_adjust.c ****     {
1926:../src/renesas/application/r_cui_image_adjust.c ****         /* convert num to char */
1927:../src/renesas/application/r_cui_image_adjust.c ****         for (loop = 0; loop < calc_digits; loop++)
1928:../src/renesas/application/r_cui_image_adjust.c ****         {
1929:../src/renesas/application/r_cui_image_adjust.c ****             div_result = (conv_num / div_val);
 578              		.loc 1 1929 0 discriminator 3
 579 0028 0410A0E1 		mov	r1, r4
 580 002c 0800A0E1 		mov	r0, r8
 581 0030 FEFFFFEB 		bl	__aeabi_uidiv
 582              	.LVL54:
1930:../src/renesas/application/r_cui_image_adjust.c **** 
1931:../src/renesas/application/r_cui_image_adjust.c ****             /* Cast to an appropriate type */
1932:../src/renesas/application/r_cui_image_adjust.c ****             buff[loop] = (char_t)(div_result + ASCII_0);
 583              		.loc 1 1932 0 discriminator 3
 584 0034 300080E2 		add	r0, r0, #48
 585              	.LVL55:
 586 0038 0500C6E7 		strb	r0, [r6, r5]
 587 003c 0410A0E1 		mov	r1, r4
 588 0040 0800A0E1 		mov	r0, r8
 589              	.LVL56:
 590 0044 FEFFFFEB 		bl	__aeabi_uidivmod
 591              	.LVL57:
 592 0048 0180A0E1 		mov	r8, r1
 593              	.LVL58:
1933:../src/renesas/application/r_cui_image_adjust.c ****             conv_num   = conv_num - (div_result * div_val);
1934:../src/renesas/application/r_cui_image_adjust.c ****             div_val    = (div_val / 10);
 594              		.loc 1 1934 0 discriminator 3
 595 004c CD2C0CE3 		movw	r2, #52429
 596 0050 CC2C4CE3 		movt	r2, 52428
 597 0054 942283E0 		umull	r2, r3, r4, r2
 598 0058 A341A0E1 		lsr	r4, r3, #3
 599              	.LVL59:
1927:../src/renesas/application/r_cui_image_adjust.c ****         {
 600              		.loc 1 1927 0 discriminator 3
 601 005c 015085E2 		add	r5, r5, #1
 602              	.LVL60:
 603              	.L53:
1927:../src/renesas/application/r_cui_image_adjust.c ****         {
 604              		.loc 1 1927 0 is_stmt 0 discriminator 1
 605 0060 040055E3 		cmp	r5, #4
 606 0064 EFFFFF9A 		bls	.L54
 607 0068 0030A0E3 		mov	r3, #0
 608 006c 000000EA 		b	.L55
 609              	.LVL61:
 610              	.L56:
1935:../src/renesas/application/r_cui_image_adjust.c ****         }
1936:../src/renesas/application/r_cui_image_adjust.c **** 
1937:../src/renesas/application/r_cui_image_adjust.c ****         /* check effective digit */
1938:../src/renesas/application/r_cui_image_adjust.c ****         for (loop = 0; loop < calc_digits; loop++)
 611              		.loc 1 1938 0 is_stmt 1 discriminator 2
 612 0070 013083E2 		add	r3, r3, #1
 613              	.LVL62:
 614              	.L55:
 615              		.loc 1 1938 0 is_stmt 0 discriminator 1
 616 0074 040053E3 		cmp	r3, #4
 617 0078 0300008A 		bhi	.L64
1939:../src/renesas/application/r_cui_image_adjust.c ****         {
1940:../src/renesas/application/r_cui_image_adjust.c ****             if (ASCII_0 != buff[loop])
 618              		.loc 1 1940 0 is_stmt 1
 619 007c 0320D6E7 		ldrb	r2, [r6, r3]	@ zero_extendqisi2
 620 0080 300052E3 		cmp	r2, #48
1941:../src/renesas/application/r_cui_image_adjust.c ****             {
1942:../src/renesas/application/r_cui_image_adjust.c ****                 /*Escape from loop */
1943:../src/renesas/application/r_cui_image_adjust.c ****                 loop = calc_digits+1;
 621              		.loc 1 1943 0
 622 0084 0630A013 		movne	r3, #6
 623              	.LVL63:
 624 0088 F8FFFFEA 		b	.L56
 625              	.LVL64:
 626              	.L64:
1944:../src/renesas/application/r_cui_image_adjust.c ****             }
1945:../src/renesas/application/r_cui_image_adjust.c ****         }
1946:../src/renesas/application/r_cui_image_adjust.c ****         if (loop >= calc_digits)
1947:../src/renesas/application/r_cui_image_adjust.c ****         {
1948:../src/renesas/application/r_cui_image_adjust.c ****             loop = calc_digits - 1;
1949:../src/renesas/application/r_cui_image_adjust.c ****         }
1950:../src/renesas/application/r_cui_image_adjust.c ****         else
1951:../src/renesas/application/r_cui_image_adjust.c ****         {
1952:../src/renesas/application/r_cui_image_adjust.c ****             __asm("nop");
1953:../src/renesas/application/r_cui_image_adjust.c ****         }
1954:../src/renesas/application/r_cui_image_adjust.c ****         *digit = loop;
 627              		.loc 1 1954 0
 628 008c 0430A0E3 		mov	r3, #4
 629 0090 003087E5 		str	r3, [r7]
1914:../src/renesas/application/r_cui_image_adjust.c ****     uint32_t    calc_digits = SDK_PRV_MAX_REG_BIT_VAL_DIGIT;
 630              		.loc 1 1914 0
 631 0094 0000A0E3 		mov	r0, #0
 632 0098 F081BDE8 		pop	{r4, r5, r6, r7, r8, pc}
 633              	.LVL65:
 634              	.L58:
 635              		.cfi_def_cfa_offset 0
 636              		.cfi_restore 4
 637              		.cfi_restore 5
 638              		.cfi_restore 6
 639              		.cfi_restore 7
 640              		.cfi_restore 8
 641              		.cfi_restore 14
1922:../src/renesas/application/r_cui_image_adjust.c ****     }
 642              		.loc 1 1922 0
 643 009c 0100A0E3 		mov	r0, #1
 644              	.LVL66:
1955:../src/renesas/application/r_cui_image_adjust.c ****     }
1956:../src/renesas/application/r_cui_image_adjust.c **** 
1957:../src/renesas/application/r_cui_image_adjust.c ****     return result;
 645              		.loc 1 1957 0
 646 00a0 1EFF2FE1 		bx	lr
 647              		.cfi_endproc
 648              	.LFE12:
 650              		.section	.text.cui_conv_char_to_num,"ax",%progbits
 651              		.align	2
 652              		.syntax unified
 653              		.arm
 654              		.fpu neon
 656              	cui_conv_char_to_num:
 657              	.LFB13:
1958:../src/renesas/application/r_cui_image_adjust.c **** }
1959:../src/renesas/application/r_cui_image_adjust.c **** /******************************************************************************
1960:../src/renesas/application/r_cui_image_adjust.c **** End of function cui_conv_num_to_char
1961:../src/renesas/application/r_cui_image_adjust.c **** ******************************************************************************/
1962:../src/renesas/application/r_cui_image_adjust.c **** 
1963:../src/renesas/application/r_cui_image_adjust.c **** /******************************************************************************
1964:../src/renesas/application/r_cui_image_adjust.c **** * Function Name:    cui_conv_char_to_num
1965:../src/renesas/application/r_cui_image_adjust.c **** * Description :     Conversion from the character to a number
1966:../src/renesas/application/r_cui_image_adjust.c **** * Arguments :       int32_t * conv_num: (O) Result number
1967:../src/renesas/application/r_cui_image_adjust.c **** *                   char_t * key_input:  (I) input string
1968:../src/renesas/application/r_cui_image_adjust.c **** * Return Value :    uint32_t RESULT_OK/RESULT_NG
1969:../src/renesas/application/r_cui_image_adjust.c **** ******************************************************************************/
1970:../src/renesas/application/r_cui_image_adjust.c **** static uint32_t cui_conv_char_to_num (int32_t* conv_num , char_t* key_input)
1971:../src/renesas/application/r_cui_image_adjust.c **** {
 658              		.loc 1 1971 0
 659              		.cfi_startproc
 660              		@ args = 0, pretend = 0, frame = 0
 661              		@ frame_needed = 0, uses_anonymous_args = 0
 662              	.LVL67:
1972:../src/renesas/application/r_cui_image_adjust.c ****     uint32_t    index = 0;
1973:../src/renesas/application/r_cui_image_adjust.c ****     int32_t    minus = 1;
1974:../src/renesas/application/r_cui_image_adjust.c ****     uint32_t    result = RESULT_OK;
1975:../src/renesas/application/r_cui_image_adjust.c ****     int32_t     sum = 0;
1976:../src/renesas/application/r_cui_image_adjust.c **** 
1977:../src/renesas/application/r_cui_image_adjust.c ****     /* Checking for num parameters */
1978:../src/renesas/application/r_cui_image_adjust.c ****     if ((NULL == conv_num) || (NULL == key_input))
 663              		.loc 1 1978 0
 664 0000 000051E3 		cmp	r1, #0
 665 0004 00005013 		cmpne	r0, #0
 666 0008 2200000A 		beq	.L72
1971:../src/renesas/application/r_cui_image_adjust.c ****     uint32_t    index = 0;
 667              		.loc 1 1971 0
 668 000c 10402DE9 		push	{r4, lr}
 669              		.cfi_def_cfa_offset 8
 670              		.cfi_offset 4, -8
 671              		.cfi_offset 14, -4
 672 0010 0040A0E1 		mov	r4, r0
 673 0014 01C0A0E1 		mov	ip, r1
1979:../src/renesas/application/r_cui_image_adjust.c ****     {
1980:../src/renesas/application/r_cui_image_adjust.c ****         result = RESULT_NG;
1981:../src/renesas/application/r_cui_image_adjust.c ****     }
1982:../src/renesas/application/r_cui_image_adjust.c ****     else
1983:../src/renesas/application/r_cui_image_adjust.c ****     {
1984:../src/renesas/application/r_cui_image_adjust.c ****         /* minus value? */
1985:../src/renesas/application/r_cui_image_adjust.c ****         if (ASCII_HYPHEN == key_input[0])
 674              		.loc 1 1985 0
 675 0018 0030D1E5 		ldrb	r3, [r1]	@ zero_extendqisi2
 676 001c 2D0053E3 		cmp	r3, #45
 677 0020 0F00000A 		beq	.L79
1986:../src/renesas/application/r_cui_image_adjust.c ****         {
1987:../src/renesas/application/r_cui_image_adjust.c ****             index = 1;
1988:../src/renesas/application/r_cui_image_adjust.c ****             minus = -1;
1989:../src/renesas/application/r_cui_image_adjust.c ****         }
1990:../src/renesas/application/r_cui_image_adjust.c ****         else
1991:../src/renesas/application/r_cui_image_adjust.c ****         {
1992:../src/renesas/application/r_cui_image_adjust.c ****             index = 0;
1993:../src/renesas/application/r_cui_image_adjust.c ****             minus = 1;
 678              		.loc 1 1993 0
 679 0024 01E0A0E3 		mov	lr, #1
1992:../src/renesas/application/r_cui_image_adjust.c ****             minus = 1;
 680              		.loc 1 1992 0
 681 0028 0000A0E3 		mov	r0, #0
 682              	.LVL68:
 683              	.L67:
1987:../src/renesas/application/r_cui_image_adjust.c ****             minus = -1;
 684              		.loc 1 1987 0
 685 002c 0020A0E3 		mov	r2, #0
 686              	.LVL69:
 687              	.L68:
1994:../src/renesas/application/r_cui_image_adjust.c ****         }
1995:../src/renesas/application/r_cui_image_adjust.c **** 
1996:../src/renesas/application/r_cui_image_adjust.c ****         while (ASCII_CR != key_input[index])
 688              		.loc 1 1996 0
 689 0030 0030DCE7 		ldrb	r3, [ip, r0]	@ zero_extendqisi2
 690 0034 0D0053E3 		cmp	r3, #13
 691 0038 0C00000A 		beq	.L80
1997:../src/renesas/application/r_cui_image_adjust.c ****         {
1998:../src/renesas/application/r_cui_image_adjust.c ****             /* number? */
1999:../src/renesas/application/r_cui_image_adjust.c ****             if ((ASCII_0 <= key_input[index]) && (key_input[index] <= ASCII_9))
 692              		.loc 1 1999 0
 693 003c 301043E2 		sub	r1, r3, #48
 694 0040 7110EFE6 		uxtb	r1, r1
 695 0044 090051E3 		cmp	r1, #9
 696 0048 0D00008A 		bhi	.L74
2000:../src/renesas/application/r_cui_image_adjust.c ****             {
2001:../src/renesas/application/r_cui_image_adjust.c ****                 sum = (sum * 10) + (key_input[index] - ASCII_0);
 697              		.loc 1 2001 0
 698 004c 022182E0 		add	r2, r2, r2, lsl #2
 699              	.LVL70:
 700 0050 8210A0E1 		lsl	r1, r2, #1
 701 0054 303043E2 		sub	r3, r3, #48
 702 0058 032081E0 		add	r2, r1, r3
 703              	.LVL71:
2002:../src/renesas/application/r_cui_image_adjust.c ****                 index++;
 704              		.loc 1 2002 0
 705 005c 010080E2 		add	r0, r0, #1
 706              	.LVL72:
 707 0060 F2FFFFEA 		b	.L68
 708              	.LVL73:
 709              	.L79:
1988:../src/renesas/application/r_cui_image_adjust.c ****         }
 710              		.loc 1 1988 0
 711 0064 00E0E0E3 		mvn	lr, #0
1987:../src/renesas/application/r_cui_image_adjust.c ****             minus = -1;
 712              		.loc 1 1987 0
 713 0068 0100A0E3 		mov	r0, #1
 714              	.LVL74:
 715 006c EEFFFFEA 		b	.L67
 716              	.LVL75:
 717              	.L80:
1974:../src/renesas/application/r_cui_image_adjust.c ****     int32_t     sum = 0;
 718              		.loc 1 1974 0
 719 0070 0000A0E3 		mov	r0, #0
 720              	.LVL76:
 721              	.L69:
2003:../src/renesas/application/r_cui_image_adjust.c ****             }
2004:../src/renesas/application/r_cui_image_adjust.c ****             else
2005:../src/renesas/application/r_cui_image_adjust.c ****             {
2006:../src/renesas/application/r_cui_image_adjust.c ****                 result = RESULT_NG;
2007:../src/renesas/application/r_cui_image_adjust.c ****                 break;
2008:../src/renesas/application/r_cui_image_adjust.c ****             }
2009:../src/renesas/application/r_cui_image_adjust.c ****         }
2010:../src/renesas/application/r_cui_image_adjust.c **** 
2011:../src/renesas/application/r_cui_image_adjust.c ****         if (RESULT_OK == result)
 722              		.loc 1 2011 0
 723 0074 000050E3 		cmp	r0, #0
 724 0078 0300000A 		beq	.L81
2012:../src/renesas/application/r_cui_image_adjust.c ****         {
2013:../src/renesas/application/r_cui_image_adjust.c ****             *conv_num = sum * minus;
2014:../src/renesas/application/r_cui_image_adjust.c ****         }
2015:../src/renesas/application/r_cui_image_adjust.c ****         else
2016:../src/renesas/application/r_cui_image_adjust.c ****         {
2017:../src/renesas/application/r_cui_image_adjust.c ****             __asm("nop");
 725              		.loc 1 2017 0
 726              		.syntax divided
 727              	@ 2017 "../src/renesas/application/r_cui_image_adjust.c" 1
 728 007c 00F020E3 		nop
 729              	@ 0 "" 2
 730              		.arm
 731              		.syntax unified
 732 0080 1080BDE8 		pop	{r4, pc}
 733              	.LVL77:
 734              	.L74:
2006:../src/renesas/application/r_cui_image_adjust.c ****                 break;
 735              		.loc 1 2006 0
 736 0084 0100A0E3 		mov	r0, #1
 737              	.LVL78:
 738 0088 F9FFFFEA 		b	.L69
 739              	.LVL79:
 740              	.L81:
2013:../src/renesas/application/r_cui_image_adjust.c ****         }
 741              		.loc 1 2013 0
 742 008c 9E0203E0 		mul	r3, lr, r2
 743 0090 003084E5 		str	r3, [r4]
 744 0094 1080BDE8 		pop	{r4, pc}
 745              	.LVL80:
 746              	.L72:
 747              		.cfi_def_cfa_offset 0
 748              		.cfi_restore 4
 749              		.cfi_restore 14
1980:../src/renesas/application/r_cui_image_adjust.c ****     }
 750              		.loc 1 1980 0
 751 0098 0100A0E3 		mov	r0, #1
 752              	.LVL81:
2018:../src/renesas/application/r_cui_image_adjust.c ****         }
2019:../src/renesas/application/r_cui_image_adjust.c ****     }
2020:../src/renesas/application/r_cui_image_adjust.c **** 
2021:../src/renesas/application/r_cui_image_adjust.c ****     return result;
 753              		.loc 1 2021 0
 754 009c 1EFF2FE1 		bx	lr
 755              		.cfi_endproc
 756              	.LFE13:
 758              		.section	.text.cui_registerset,"ax",%progbits
 759              		.align	2
 760              		.syntax unified
 761              		.arm
 762              		.fpu neon
 764              	cui_registerset:
 765              	.LFB14:
2022:../src/renesas/application/r_cui_image_adjust.c **** }
2023:../src/renesas/application/r_cui_image_adjust.c **** /******************************************************************************
2024:../src/renesas/application/r_cui_image_adjust.c **** End of function cui_conv_char_to_num
2025:../src/renesas/application/r_cui_image_adjust.c **** ******************************************************************************/
2026:../src/renesas/application/r_cui_image_adjust.c **** 
2027:../src/renesas/application/r_cui_image_adjust.c **** /******************************************************************************
2028:../src/renesas/application/r_cui_image_adjust.c **** * Function Name:    cui_registerset
2029:../src/renesas/application/r_cui_image_adjust.c **** * Description :     set registers
2030:../src/renesas/application/r_cui_image_adjust.c **** * Arguments :       uint32_t reg_value  value to set
2031:../src/renesas/application/r_cui_image_adjust.c **** *                   int32_t * reg_addr  address of register
2032:../src/renesas/application/r_cui_image_adjust.c **** *                   uint32_t bit_mask   mask value
2033:../src/renesas/application/r_cui_image_adjust.c **** *                   uint32_t bit_shift  shift to set the target bit
2034:../src/renesas/application/r_cui_image_adjust.c **** * Return Value :    none
2035:../src/renesas/application/r_cui_image_adjust.c **** ******************************************************************************/
2036:../src/renesas/application/r_cui_image_adjust.c **** static void cui_registerset(uint32_t reg_value, volatile uint32_t * reg_addr, uint32_t bit_mask, ui
2037:../src/renesas/application/r_cui_image_adjust.c **** {
 766              		.loc 1 2037 0
 767              		.cfi_startproc
 768              		@ args = 0, pretend = 0, frame = 0
 769              		@ frame_needed = 0, uses_anonymous_args = 0
 770              		@ link register save eliminated.
 771              	.LVL82:
2038:../src/renesas/application/r_cui_image_adjust.c ****     uint32_t tmp = (*reg_addr) & (~(bit_mask << bit_shift));
 772              		.loc 1 2038 0
 773 0000 00C091E5 		ldr	ip, [r1]
 774 0004 12C3CCE1 		bic	ip, ip, r2, lsl r3
 775              	.LVL83:
2039:../src/renesas/application/r_cui_image_adjust.c **** 
2040:../src/renesas/application/r_cui_image_adjust.c ****     *reg_addr = tmp | ((reg_value & bit_mask) << bit_shift);
 776              		.loc 1 2040 0
 777 0008 020000E0 		and	r0, r0, r2
 778              	.LVL84:
 779 000c 10C38CE1 		orr	ip, ip, r0, lsl r3
 780              	.LVL85:
 781 0010 00C081E5 		str	ip, [r1]
 782 0014 1EFF2FE1 		bx	lr
 783              		.cfi_endproc
 784              	.LFE14:
 786              		.section	.text.cui_set_update_register,"ax",%progbits
 787              		.align	2
 788              		.syntax unified
 789              		.arm
 790              		.fpu neon
 792              	cui_set_update_register:
 793              	.LFB15:
2041:../src/renesas/application/r_cui_image_adjust.c **** 
2042:../src/renesas/application/r_cui_image_adjust.c ****     return;
2043:../src/renesas/application/r_cui_image_adjust.c **** }
2044:../src/renesas/application/r_cui_image_adjust.c **** /******************************************************************************
2045:../src/renesas/application/r_cui_image_adjust.c **** End of function cui_registerset
2046:../src/renesas/application/r_cui_image_adjust.c **** ******************************************************************************/
2047:../src/renesas/application/r_cui_image_adjust.c **** 
2048:../src/renesas/application/r_cui_image_adjust.c **** /******************************************************************************
2049:../src/renesas/application/r_cui_image_adjust.c **** * Function Name:    cui_set_update_register
2050:../src/renesas/application/r_cui_image_adjust.c **** * Description :     set update registers
2051:../src/renesas/application/r_cui_image_adjust.c **** * Arguments :       none
2052:../src/renesas/application/r_cui_image_adjust.c **** * Return Value :    none
2053:../src/renesas/application/r_cui_image_adjust.c **** ******************************************************************************/
2054:../src/renesas/application/r_cui_image_adjust.c **** static void cui_set_update_register (void)
2055:../src/renesas/application/r_cui_image_adjust.c **** {
 794              		.loc 1 2055 0
 795              		.cfi_startproc
 796              		@ args = 0, pretend = 0, frame = 0
 797              		@ frame_needed = 0, uses_anonymous_args = 0
 798 0000 10402DE9 		push	{r4, lr}
 799              		.cfi_def_cfa_offset 8
 800              		.cfi_offset 4, -8
 801              		.cfi_offset 14, -4
 802              	.LVL86:
2056:../src/renesas/application/r_cui_image_adjust.c ****     uint32_t i;
2057:../src/renesas/application/r_cui_image_adjust.c **** 
2058:../src/renesas/application/r_cui_image_adjust.c ****     for (i = 0; i < ((sizeof(gs_update_reg))/(sizeof(st_all_reg_t))); i++)
 803              		.loc 1 2058 0
 804 0004 0040A0E3 		mov	r4, #0
 805 0008 0B0000EA 		b	.L84
 806              	.LVL87:
 807              	.L85:
2059:../src/renesas/application/r_cui_image_adjust.c ****     {
2060:../src/renesas/application/r_cui_image_adjust.c ****         /* Cast to an appropriate type */
2061:../src/renesas/application/r_cui_image_adjust.c ****         cui_registerset((uint32_t)gs_update_reg[i].reg_default, gs_update_reg[i].reg_addr, 0xFFFFFF
 808              		.loc 1 2061 0 discriminator 3
 809 000c 003000E3 		movw	r3, #:lower16:.LANCHOR5
 810 0010 003040E3 		movt	r3, #:upper16:.LANCHOR5
 811 0014 8420A0E1 		lsl	r2, r4, #1
 812 0018 042082E0 		add	r2, r2, r4
 813 001c 0201A0E1 		lsl	r0, r2, #2
 814 0020 000083E0 		add	r0, r3, r0
 815 0024 0030A0E3 		mov	r3, #0
 816 0028 0020E0E3 		mvn	r2, #0
 817 002c 041090E5 		ldr	r1, [r0, #4]
 818 0030 080090E5 		ldr	r0, [r0, #8]
 819 0034 FEFFFFEB 		bl	cui_registerset
 820              	.LVL88:
2058:../src/renesas/application/r_cui_image_adjust.c ****     {
 821              		.loc 1 2058 0 discriminator 3
 822 0038 014084E2 		add	r4, r4, #1
 823              	.LVL89:
 824              	.L84:
2058:../src/renesas/application/r_cui_image_adjust.c ****     {
 825              		.loc 1 2058 0 is_stmt 0 discriminator 1
 826 003c 080054E3 		cmp	r4, #8
 827 0040 F1FFFF9A 		bls	.L85
2062:../src/renesas/application/r_cui_image_adjust.c ****     }
2063:../src/renesas/application/r_cui_image_adjust.c ****     printf("Register Changed\r\n");
 828              		.loc 1 2063 0 is_stmt 1
 829 0044 000000E3 		movw	r0, #:lower16:.LC0
 830 0048 000040E3 		movt	r0, #:upper16:.LC0
 831 004c FEFFFFEB 		bl	puts
 832              	.LVL90:
 833 0050 1080BDE8 		pop	{r4, pc}
 834              		.cfi_endproc
 835              	.LFE15:
 837              		.section	.text.cui_menu_disp_title,"ax",%progbits
 838              		.align	2
 839              		.syntax unified
 840              		.arm
 841              		.fpu neon
 843              	cui_menu_disp_title:
 844              	.LFB6:
1103:../src/renesas/application/r_cui_image_adjust.c ****     /*** start printing menu ***/
 845              		.loc 1 1103 0
 846              		.cfi_startproc
 847              		@ args = 0, pretend = 0, frame = 0
 848              		@ frame_needed = 0, uses_anonymous_args = 0
 849              	.LVL91:
 850 0000 70402DE9 		push	{r4, r5, r6, lr}
 851              		.cfi_def_cfa_offset 16
 852              		.cfi_offset 4, -16
 853              		.cfi_offset 5, -12
 854              		.cfi_offset 6, -8
 855              		.cfi_offset 14, -4
 856 0004 0040A0E1 		mov	r4, r0
1105:../src/renesas/application/r_cui_image_adjust.c ****     printf("---------------------------------------\r\n");
 857              		.loc 1 1105 0
 858 0008 000000E3 		movw	r0, #:lower16:.LC1
 859              	.LVL92:
 860 000c 000040E3 		movt	r0, #:upper16:.LC1
 861 0010 FEFFFFEB 		bl	puts
 862              	.LVL93:
1106:../src/renesas/application/r_cui_image_adjust.c **** 
 863              		.loc 1 1106 0
 864 0014 000000E3 		movw	r0, #:lower16:.LC2
 865 0018 000040E3 		movt	r0, #:upper16:.LC2
 866 001c FEFFFFEB 		bl	puts
 867              	.LVL94:
1109:../src/renesas/application/r_cui_image_adjust.c ****     {
 868              		.loc 1 1109 0
 869 0020 003000E3 		movw	r3, #:lower16:.LANCHOR2
 870 0024 003040E3 		movt	r3, #:upper16:.LANCHOR2
 871 0028 002093E5 		ldr	r2, [r3]
 872 002c 003000E3 		movw	r3, #:lower16:.LANCHOR0
 873 0030 003040E3 		movt	r3, #:upper16:.LANCHOR0
 874 0034 823283E0 		add	r3, r3, r2, lsl #5
 875 0038 043093E5 		ldr	r3, [r3, #4]
 876 003c 020053E3 		cmp	r3, #2
 877 0040 0C00000A 		beq	.L92
1114:../src/renesas/application/r_cui_image_adjust.c ****     {
 878              		.loc 1 1114 0
 879 0044 040053E3 		cmp	r3, #4
 880 0048 1E00000A 		beq	.L93
1126:../src/renesas/application/r_cui_image_adjust.c ****     }
 881              		.loc 1 1126 0
 882 004c 003000E3 		movw	r3, #:lower16:.LANCHOR0
 883 0050 003040E3 		movt	r3, #:upper16:.LANCHOR0
 884 0054 823283E0 		add	r3, r3, r2, lsl #5
 885 0058 0C1093E5 		ldr	r1, [r3, #12]
 886 005c 000000E3 		movw	r0, #:lower16:.LC3
 887 0060 000040E3 		movt	r0, #:upper16:.LC3
 888 0064 FEFFFFEB 		bl	printf
 889              	.LVL95:
 890              	.L89:
1128:../src/renesas/application/r_cui_image_adjust.c **** }
 891              		.loc 1 1128 0
 892 0068 000000E3 		movw	r0, #:lower16:.LC2
 893 006c 000040E3 		movt	r0, #:upper16:.LC2
 894 0070 FEFFFFEB 		bl	puts
 895              	.LVL96:
 896 0074 7080BDE8 		pop	{r4, r5, r6, pc}
 897              	.LVL97:
 898              	.L92:
1111:../src/renesas/application/r_cui_image_adjust.c ****         printf("Current Setting : %s\r\n", current_menu[gs_cur_index].selectlist[gs_preset_value[gs
 899              		.loc 1 1111 0
 900 0078 004000E3 		movw	r4, #:lower16:.LANCHOR0
 901              	.LVL98:
 902 007c 004040E3 		movt	r4, #:upper16:.LANCHOR0
 903 0080 823284E0 		add	r3, r4, r2, lsl #5
 904 0084 0C1093E5 		ldr	r1, [r3, #12]
 905 0088 000000E3 		movw	r0, #:lower16:.LC3
 906 008c 000040E3 		movt	r0, #:upper16:.LC3
 907 0090 FEFFFFEB 		bl	printf
 908              	.LVL99:
1112:../src/renesas/application/r_cui_image_adjust.c ****     }
 909              		.loc 1 1112 0
 910 0094 003000E3 		movw	r3, #:lower16:.LANCHOR2
 911 0098 003040E3 		movt	r3, #:upper16:.LANCHOR2
 912 009c 002093E5 		ldr	r2, [r3]
 913 00a0 824284E0 		add	r4, r4, r2, lsl #5
 914 00a4 141094E5 		ldr	r1, [r4, #20]
 915 00a8 003000E3 		movw	r3, #:lower16:.LANCHOR4
 916 00ac 003040E3 		movt	r3, #:upper16:.LANCHOR4
 917 00b0 023193E7 		ldr	r3, [r3, r2, lsl #2]
 918 00b4 031191E7 		ldr	r1, [r1, r3, lsl #2]
 919 00b8 000000E3 		movw	r0, #:lower16:.LC4
 920 00bc 000040E3 		movt	r0, #:upper16:.LC4
 921 00c0 FEFFFFEB 		bl	printf
 922              	.LVL100:
 923 00c4 E7FFFFEA 		b	.L89
 924              	.LVL101:
 925              	.L93:
 926              	.LBB4:
1118:../src/renesas/application/r_cui_image_adjust.c ****         printf("%s %s\r\n", current_menu[gs_cur_index].content, p_regstruct->reg_name);
 927              		.loc 1 1118 0
 928 00c8 0400A0E1 		mov	r0, r4
 929 00cc FEFFFFEB 		bl	cui_get_target_bit_value
 930              	.LVL102:
 931 00d0 0050A0E1 		mov	r5, r0
 932              	.LVL103:
1119:../src/renesas/application/r_cui_image_adjust.c **** 
 933              		.loc 1 1119 0
 934 00d4 003000E3 		movw	r3, #:lower16:.LANCHOR0
 935 00d8 003040E3 		movt	r3, #:upper16:.LANCHOR0
 936 00dc 002000E3 		movw	r2, #:lower16:.LANCHOR2
 937 00e0 002040E3 		movt	r2, #:upper16:.LANCHOR2
 938 00e4 002092E5 		ldr	r2, [r2]
 939 00e8 823283E0 		add	r3, r3, r2, lsl #5
 940 00ec 002094E5 		ldr	r2, [r4]
 941 00f0 0C1093E5 		ldr	r1, [r3, #12]
 942 00f4 000000E3 		movw	r0, #:lower16:.LC5
 943              	.LVL104:
 944 00f8 000040E3 		movt	r0, #:upper16:.LC5
 945 00fc FEFFFFEB 		bl	printf
 946              	.LVL105:
1122:../src/renesas/application/r_cui_image_adjust.c ****     }
 947              		.loc 1 1122 0
 948 0100 0510A0E1 		mov	r1, r5
 949 0104 000000E3 		movw	r0, #:lower16:.LC6
 950 0108 000040E3 		movt	r0, #:upper16:.LC6
 951 010c FEFFFFEB 		bl	printf
 952              	.LVL106:
 953              	.LBE4:
 954 0110 D4FFFFEA 		b	.L89
 955              		.cfi_endproc
 956              	.LFE6:
 958              		.section	.text.cui_menu_disp_explanation,"ax",%progbits
 959              		.align	2
 960              		.syntax unified
 961              		.arm
 962              		.fpu neon
 964              	cui_menu_disp_explanation:
 965              	.LFB7:
1142:../src/renesas/application/r_cui_image_adjust.c ****     uint32_t i = 0; /* Loop counter */
 966              		.loc 1 1142 0
 967              		.cfi_startproc
 968              		@ args = 0, pretend = 0, frame = 0
 969              		@ frame_needed = 0, uses_anonymous_args = 0
 970              	.LVL107:
 971 0000 70402DE9 		push	{r4, r5, r6, lr}
 972              		.cfi_def_cfa_offset 16
 973              		.cfi_offset 4, -16
 974              		.cfi_offset 5, -12
 975              		.cfi_offset 6, -8
 976              		.cfi_offset 14, -4
 977 0004 0060A0E1 		mov	r6, r0
 978              	.LVL108:
1148:../src/renesas/application/r_cui_image_adjust.c ****     {
 979              		.loc 1 1148 0
 980 0008 003000E3 		movw	r3, #:lower16:.LANCHOR2
 981 000c 003040E3 		movt	r3, #:upper16:.LANCHOR2
 982 0010 002093E5 		ldr	r2, [r3]
 983 0014 003000E3 		movw	r3, #:lower16:.LANCHOR0
 984 0018 003040E3 		movt	r3, #:upper16:.LANCHOR0
 985 001c 821293E7 		ldr	r1, [r3, r2, lsl #5]
 986 0020 FA34E0E3 		mvn	r3, #-100663296
 987 0024 030051E1 		cmp	r1, r3
 988 0028 0600000A 		beq	.L95
1155:../src/renesas/application/r_cui_image_adjust.c ****     }
 989              		.loc 1 1155 0
 990 002c 003000E3 		movw	r3, #:lower16:.LANCHOR0
 991 0030 003040E3 		movt	r3, #:upper16:.LANCHOR0
 992 0034 823283E0 		add	r3, r3, r2, lsl #5
 993 0038 101093E5 		ldr	r1, [r3, #16]
 994 003c 000000E3 		movw	r0, #:lower16:.LC3
 995              	.LVL109:
 996 0040 000040E3 		movt	r0, #:upper16:.LC3
 997 0044 FEFFFFEB 		bl	printf
 998              	.LVL110:
 999              	.L95:
1158:../src/renesas/application/r_cui_image_adjust.c ****         (CUI_STATE_CONTRAST == current_menu[gs_cur_index].stateid))
 1000              		.loc 1 1158 0
 1001 0048 003000E3 		movw	r3, #:lower16:.LANCHOR0
 1002 004c 003040E3 		movt	r3, #:upper16:.LANCHOR0
 1003 0050 002000E3 		movw	r2, #:lower16:.LANCHOR2
 1004 0054 002040E3 		movt	r2, #:upper16:.LANCHOR2
 1005 0058 002092E5 		ldr	r2, [r2]
 1006 005c 823293E7 		ldr	r3, [r3, r2, lsl #5]
 1007 0060 FE24E0E3 		mvn	r2, #-33554432
 1008 0064 FF14E0E3 		mvn	r1, #-16777216
 1009 0068 020053E1 		cmp	r3, r2
 1010 006c 01005311 		cmpne	r3, r1
 1011 0070 1100000A 		beq	.L113
1164:../src/renesas/application/r_cui_image_adjust.c ****     {
 1012              		.loc 1 1164 0
 1013 0074 7F0373E3 		cmn	r3, #-67108863
 1014 0078 1600000A 		beq	.L114
1170:../src/renesas/application/r_cui_image_adjust.c ****     }
 1015              		.loc 1 1170 0
 1016              		.syntax divided
 1017              	@ 1170 "../src/renesas/application/r_cui_image_adjust.c" 1
 1018 007c 00F020E3 		nop
 1019              	@ 0 "" 2
 1020              		.arm
 1021              		.syntax unified
 1022              	.L97:
1174:../src/renesas/application/r_cui_image_adjust.c ****     {
 1023              		.loc 1 1174 0
 1024 0080 003000E3 		movw	r3, #:lower16:.LANCHOR2
 1025 0084 003040E3 		movt	r3, #:upper16:.LANCHOR2
 1026 0088 002093E5 		ldr	r2, [r3]
 1027 008c 003000E3 		movw	r3, #:lower16:.LANCHOR0
 1028 0090 003040E3 		movt	r3, #:upper16:.LANCHOR0
 1029 0094 823283E0 		add	r3, r3, r2, lsl #5
 1030 0098 043093E5 		ldr	r3, [r3, #4]
 1031 009c 030053E3 		cmp	r3, #3
 1032 00a0 1000000A 		beq	.L115
1188:../src/renesas/application/r_cui_image_adjust.c ****     {
 1033              		.loc 1 1188 0
 1034 00a4 040053E3 		cmp	r3, #4
 1035 00a8 2400000A 		beq	.L116
1195:../src/renesas/application/r_cui_image_adjust.c ****     {
 1036              		.loc 1 1195 0
 1037 00ac 020053E3 		cmp	r3, #2
 1038 00b0 2B00000A 		beq	.L117
 1039 00b4 0040A0E3 		mov	r4, #0
 1040 00b8 6B0000EA 		b	.L104
 1041              	.L113:
1161:../src/renesas/application/r_cui_image_adjust.c ****         printf("(Input controller - Output controller)\r\n");
 1042              		.loc 1 1161 0
 1043 00bc 000000E3 		movw	r0, #:lower16:.LC7
 1044 00c0 000040E3 		movt	r0, #:upper16:.LC7
 1045 00c4 FEFFFFEB 		bl	puts
 1046              	.LVL111:
1162:../src/renesas/application/r_cui_image_adjust.c ****     }
 1047              		.loc 1 1162 0
 1048 00c8 000000E3 		movw	r0, #:lower16:.LC8
 1049 00cc 000040E3 		movt	r0, #:upper16:.LC8
 1050 00d0 FEFFFFEB 		bl	puts
 1051              	.LVL112:
 1052 00d4 E9FFFFEA 		b	.L97
 1053              	.L114:
1166:../src/renesas/application/r_cui_image_adjust.c ****     }
 1054              		.loc 1 1166 0
 1055 00d8 000000E3 		movw	r0, #:lower16:.LC9
 1056 00dc 000040E3 		movt	r0, #:upper16:.LC9
 1057 00e0 FEFFFFEB 		bl	puts
 1058              	.LVL113:
 1059 00e4 E5FFFFEA 		b	.L97
 1060              	.L115:
 1061 00e8 0040A0E3 		mov	r4, #0
 1062              	.LVL114:
 1063              	.L99:
1177:../src/renesas/application/r_cui_image_adjust.c ****         {
 1064              		.loc 1 1177 0 discriminator 1
 1065 00ec 003000E3 		movw	r3, #:lower16:.LANCHOR0
 1066 00f0 003040E3 		movt	r3, #:upper16:.LANCHOR0
 1067 00f4 002000E3 		movw	r2, #:lower16:.LANCHOR2
 1068 00f8 002040E3 		movt	r2, #:upper16:.LANCHOR2
 1069 00fc 002092E5 		ldr	r2, [r2]
 1070 0100 823283E0 		add	r3, r3, r2, lsl #5
 1071 0104 1C3093E5 		ldr	r3, [r3, #28]
 1072 0108 030054E1 		cmp	r4, r3
 1073 010c 5F00002A 		bcs	.L102
 1074              	.LBB5:
1181:../src/renesas/application/r_cui_image_adjust.c **** 
 1075              		.loc 1 1181 0 discriminator 3
 1076 0110 843084E0 		add	r3, r4, r4, lsl #1
 1077 0114 0352A0E1 		lsl	r5, r3, #4
 1078 0118 050086E0 		add	r0, r6, r5
 1079 011c FEFFFFEB 		bl	cui_get_target_bit_value
 1080              	.LVL115:
1184:../src/renesas/application/r_cui_image_adjust.c ****         }
 1081              		.loc 1 1184 0 discriminator 3
 1082 0120 0030A0E1 		mov	r3, r0
 1083 0124 052096E7 		ldr	r2, [r6, r5]
 1084 0128 0410A0E1 		mov	r1, r4
 1085 012c 000000E3 		movw	r0, #:lower16:.LC10
 1086              	.LVL116:
 1087 0130 000040E3 		movt	r0, #:upper16:.LC10
 1088 0134 FEFFFFEB 		bl	printf
 1089              	.LVL117:
 1090              	.LBE5:
1177:../src/renesas/application/r_cui_image_adjust.c ****         {
 1091              		.loc 1 1177 0 discriminator 3
 1092 0138 014084E2 		add	r4, r4, #1
 1093              	.LVL118:
 1094 013c EAFFFFEA 		b	.L99
 1095              	.LVL119:
 1096              	.L116:
1191:../src/renesas/application/r_cui_image_adjust.c ****         printf("D : Default(Hardware Initial Value Refer to the Hardware Manual)\r\n");
 1097              		.loc 1 1191 0
 1098 0140 0C2096E5 		ldr	r2, [r6, #12]
 1099 0144 081096E5 		ldr	r1, [r6, #8]
 1100 0148 000000E3 		movw	r0, #:lower16:.LC11
 1101 014c 000040E3 		movt	r0, #:upper16:.LC11
 1102 0150 FEFFFFEB 		bl	printf
 1103              	.LVL120:
1192:../src/renesas/application/r_cui_image_adjust.c ****     }
 1104              		.loc 1 1192 0
 1105 0154 000000E3 		movw	r0, #:lower16:.LC12
 1106 0158 000040E3 		movt	r0, #:upper16:.LC12
 1107 015c FEFFFFEB 		bl	puts
 1108              	.LVL121:
 1109 0160 4A0000EA 		b	.L102
 1110              	.L117:
1216:../src/renesas/application/r_cui_image_adjust.c ****         {
 1111              		.loc 1 1216 0
 1112 0164 003000E3 		movw	r3, #:lower16:.LANCHOR0
 1113 0168 003040E3 		movt	r3, #:upper16:.LANCHOR0
 1114 016c 822293E7 		ldr	r2, [r3, r2, lsl #5]
 1115 0170 FA34E0E3 		mvn	r3, #-100663296
 1116 0174 030052E1 		cmp	r2, r3
 1117 0178 0040A013 		movne	r4, #0
 1118 017c 1300001A 		bne	.L105
 1119              	.L118:
1218:../src/renesas/application/r_cui_image_adjust.c ****             printf("If you would like to to use this function, you need to change the TARGET_INPUT 
 1120              		.loc 1 1218 0
 1121 0180 000000E3 		movw	r0, #:lower16:.LC13
 1122 0184 000040E3 		movt	r0, #:upper16:.LC13
 1123 0188 FEFFFFEB 		bl	puts
 1124              	.LVL122:
1219:../src/renesas/application/r_cui_image_adjust.c ****             printf("from INPUT_CMOS_CAM_2 or INPUT_CMOS_CAM_3 to INPUT_CMOS_CAM_1.\r\n");
 1125              		.loc 1 1219 0
 1126 018c 000000E3 		movw	r0, #:lower16:.LC14
 1127 0190 000040E3 		movt	r0, #:upper16:.LC14
 1128 0194 FEFFFFEB 		bl	puts
 1129              	.LVL123:
1220:../src/renesas/application/r_cui_image_adjust.c ****         }
 1130              		.loc 1 1220 0
 1131 0198 000000E3 		movw	r0, #:lower16:.LC15
 1132 019c 000040E3 		movt	r0, #:upper16:.LC15
 1133 01a0 FEFFFFEB 		bl	puts
 1134              	.LVL124:
 1135 01a4 390000EA 		b	.L102
 1136              	.LVL125:
 1137              	.L106:
1227:../src/renesas/application/r_cui_image_adjust.c ****             }
 1138              		.loc 1 1227 0 discriminator 3
 1139 01a8 003000E3 		movw	r3, #:lower16:.LANCHOR0
 1140 01ac 003040E3 		movt	r3, #:upper16:.LANCHOR0
 1141 01b0 823283E0 		add	r3, r3, r2, lsl #5
 1142 01b4 143093E5 		ldr	r3, [r3, #20]
 1143 01b8 042193E7 		ldr	r2, [r3, r4, lsl #2]
 1144 01bc 0410A0E1 		mov	r1, r4
 1145 01c0 000000E3 		movw	r0, #:lower16:.LC16
 1146 01c4 000040E3 		movt	r0, #:upper16:.LC16
 1147 01c8 FEFFFFEB 		bl	printf
 1148              	.LVL126:
1224:../src/renesas/application/r_cui_image_adjust.c ****             {
 1149              		.loc 1 1224 0 discriminator 3
 1150 01cc 014084E2 		add	r4, r4, #1
 1151              	.LVL127:
 1152              	.L105:
1224:../src/renesas/application/r_cui_image_adjust.c ****             {
 1153              		.loc 1 1224 0 is_stmt 0 discriminator 1
 1154 01d0 003000E3 		movw	r3, #:lower16:.LANCHOR2
 1155 01d4 003040E3 		movt	r3, #:upper16:.LANCHOR2
 1156 01d8 002093E5 		ldr	r2, [r3]
 1157 01dc 003000E3 		movw	r3, #:lower16:.LANCHOR0
 1158 01e0 003040E3 		movt	r3, #:upper16:.LANCHOR0
 1159 01e4 823283E0 		add	r3, r3, r2, lsl #5
 1160 01e8 083093E5 		ldr	r3, [r3, #8]
 1161 01ec 030054E1 		cmp	r4, r3
 1162 01f0 ECFFFF3A 		bcc	.L106
1230:../src/renesas/application/r_cui_image_adjust.c ****             /* GAMMA does not have Custom menu */
 1163              		.loc 1 1230 0 is_stmt 1
 1164 01f4 005000E3 		movw	r5, #:lower16:.LANCHOR0
 1165 01f8 005040E3 		movt	r5, #:upper16:.LANCHOR0
 1166 01fc 823285E0 		add	r3, r5, r2, lsl #5
 1167 0200 143093E5 		ldr	r3, [r3, #20]
 1168 0204 041193E7 		ldr	r1, [r3, r4, lsl #2]
 1169 0208 000000E3 		movw	r0, #:lower16:.LC17
 1170 020c 000040E3 		movt	r0, #:upper16:.LC17
 1171 0210 FEFFFFEB 		bl	printf
 1172              	.LVL128:
1232:../src/renesas/application/r_cui_image_adjust.c ****                 (CUI_STATE_DITHER != current_menu[gs_cur_index].stateid))
 1173              		.loc 1 1232 0
 1174 0214 003000E3 		movw	r3, #:lower16:.LANCHOR2
 1175 0218 003040E3 		movt	r3, #:upper16:.LANCHOR2
 1176 021c 003093E5 		ldr	r3, [r3]
 1177 0220 833295E7 		ldr	r3, [r5, r3, lsl #5]
 1178 0224 FB24E0E3 		mvn	r2, #-83886080
 1179 0228 020053E1 		cmp	r3, r2
 1180 022c 7F037313 		cmnne	r3, #-67108863
 1181 0230 1600000A 		beq	.L102
1235:../src/renesas/application/r_cui_image_adjust.c ****             }
 1182              		.loc 1 1235 0
 1183 0234 000000E3 		movw	r0, #:lower16:.LC18
 1184 0238 000040E3 		movt	r0, #:upper16:.LC18
 1185 023c FEFFFFEB 		bl	puts
 1186              	.LVL129:
 1187 0240 120000EA 		b	.L102
 1188              	.L107:
1251:../src/renesas/application/r_cui_image_adjust.c ****         }
 1189              		.loc 1 1251 0 discriminator 3
 1190 0244 003000E3 		movw	r3, #:lower16:.LANCHOR0
 1191 0248 003040E3 		movt	r3, #:upper16:.LANCHOR0
 1192 024c 823283E0 		add	r3, r3, r2, lsl #5
 1193 0250 143093E5 		ldr	r3, [r3, #20]
 1194 0254 042193E7 		ldr	r2, [r3, r4, lsl #2]
 1195 0258 0410A0E1 		mov	r1, r4
 1196 025c 000000E3 		movw	r0, #:lower16:.LC16
 1197 0260 000040E3 		movt	r0, #:upper16:.LC16
 1198 0264 FEFFFFEB 		bl	printf
 1199              	.LVL130:
1248:../src/renesas/application/r_cui_image_adjust.c ****         {
 1200              		.loc 1 1248 0 discriminator 3
 1201 0268 014084E2 		add	r4, r4, #1
 1202              	.LVL131:
 1203              	.L104:
1248:../src/renesas/application/r_cui_image_adjust.c ****         {
 1204              		.loc 1 1248 0 is_stmt 0 discriminator 1
 1205 026c 003000E3 		movw	r3, #:lower16:.LANCHOR2
 1206 0270 003040E3 		movt	r3, #:upper16:.LANCHOR2
 1207 0274 002093E5 		ldr	r2, [r3]
 1208 0278 003000E3 		movw	r3, #:lower16:.LANCHOR0
 1209 027c 003040E3 		movt	r3, #:upper16:.LANCHOR0
 1210 0280 823283E0 		add	r3, r3, r2, lsl #5
 1211 0284 083093E5 		ldr	r3, [r3, #8]
 1212 0288 030054E1 		cmp	r4, r3
 1213 028c ECFFFF3A 		bcc	.L107
 1214              	.LVL132:
 1215              	.L102:
1254:../src/renesas/application/r_cui_image_adjust.c **** }
 1216              		.loc 1 1254 0 is_stmt 1
 1217 0290 000000E3 		movw	r0, #:lower16:.LC19
 1218 0294 000040E3 		movt	r0, #:upper16:.LC19
 1219 0298 FEFFFFEB 		bl	puts
 1220              	.LVL133:
 1221 029c 7080BDE8 		pop	{r4, r5, r6, pc}
 1222              		.cfi_endproc
 1223              	.LFE7:
 1225              		.section	.text.cui_menu_disp,"ax",%progbits
 1226              		.align	2
 1227              		.syntax unified
 1228              		.arm
 1229              		.fpu neon
 1231              	cui_menu_disp:
 1232              	.LFB5:
1072:../src/renesas/application/r_cui_image_adjust.c ****     /* Menu title */
 1233              		.loc 1 1072 0
 1234              		.cfi_startproc
 1235              		@ args = 0, pretend = 0, frame = 0
 1236              		@ frame_needed = 0, uses_anonymous_args = 0
 1237 0000 70402DE9 		push	{r4, r5, r6, lr}
 1238              		.cfi_def_cfa_offset 16
 1239              		.cfi_offset 4, -16
 1240              		.cfi_offset 5, -12
 1241              		.cfi_offset 6, -8
 1242              		.cfi_offset 14, -4
1074:../src/renesas/application/r_cui_image_adjust.c **** 
 1243              		.loc 1 1074 0
 1244 0004 004000E3 		movw	r4, #:lower16:.LANCHOR0
 1245 0008 004040E3 		movt	r4, #:upper16:.LANCHOR0
 1246 000c 005000E3 		movw	r5, #:lower16:.LANCHOR2
 1247 0010 005040E3 		movt	r5, #:upper16:.LANCHOR2
 1248 0014 003095E5 		ldr	r3, [r5]
 1249 0018 833284E0 		add	r3, r4, r3, lsl #5
 1250 001c 180093E5 		ldr	r0, [r3, #24]
 1251 0020 FEFFFFEB 		bl	cui_menu_disp_title
 1252              	.LVL134:
1077:../src/renesas/application/r_cui_image_adjust.c **** 
 1253              		.loc 1 1077 0
 1254 0024 003095E5 		ldr	r3, [r5]
 1255 0028 834284E0 		add	r4, r4, r3, lsl #5
 1256 002c 180094E5 		ldr	r0, [r4, #24]
 1257 0030 FEFFFFEB 		bl	cui_menu_disp_explanation
 1258              	.LVL135:
1079:../src/renesas/application/r_cui_image_adjust.c **** 
 1259              		.loc 1 1079 0
 1260 0034 000000E3 		movw	r0, #:lower16:.LC20
 1261 0038 000040E3 		movt	r0, #:upper16:.LC20
 1262 003c FEFFFFEB 		bl	puts
 1263              	.LVL136:
1081:../src/renesas/application/r_cui_image_adjust.c ****     {
 1264              		.loc 1 1081 0
 1265 0040 003000E3 		movw	r3, #:lower16:.LANCHOR1
 1266 0044 003040E3 		movt	r3, #:upper16:.LANCHOR1
 1267 0048 003093E5 		ldr	r3, [r3]
 1268 004c 010073E3 		cmn	r3, #1
 1269 0050 0600000A 		beq	.L123
1087:../src/renesas/application/r_cui_image_adjust.c ****         printf("T : Go to Top Menu.\r\n");
 1270              		.loc 1 1087 0
 1271 0054 000000E3 		movw	r0, #:lower16:.LC22
 1272 0058 000040E3 		movt	r0, #:upper16:.LC22
 1273 005c FEFFFFEB 		bl	puts
 1274              	.LVL137:
1088:../src/renesas/application/r_cui_image_adjust.c ****     }
 1275              		.loc 1 1088 0
 1276 0060 000000E3 		movw	r0, #:lower16:.LC23
 1277 0064 000040E3 		movt	r0, #:upper16:.LC23
 1278 0068 FEFFFFEB 		bl	puts
 1279              	.LVL138:
 1280 006c 7080BDE8 		pop	{r4, r5, r6, pc}
 1281              	.L123:
1083:../src/renesas/application/r_cui_image_adjust.c ****     }
 1282              		.loc 1 1083 0
 1283 0070 000000E3 		movw	r0, #:lower16:.LC21
 1284 0074 000040E3 		movt	r0, #:upper16:.LC21
 1285 0078 FEFFFFEB 		bl	puts
 1286              	.LVL139:
 1287 007c 7080BDE8 		pop	{r4, r5, r6, pc}
 1288              		.cfi_endproc
 1289              	.LFE5:
 1291              		.section	.text.cui_state_transition,"ax",%progbits
 1292              		.align	2
 1293              		.syntax unified
 1294              		.arm
 1295              		.fpu neon
 1297              	cui_state_transition:
 1298              	.LFB11:
1562:../src/renesas/application/r_cui_image_adjust.c ****     uint32_t i = 0;
 1299              		.loc 1 1562 0
 1300              		.cfi_startproc
 1301              		@ args = 0, pretend = 0, frame = 16
 1302              		@ frame_needed = 0, uses_anonymous_args = 0
 1303              	.LVL140:
 1304 0000 70402DE9 		push	{r4, r5, r6, lr}
 1305              		.cfi_def_cfa_offset 16
 1306              		.cfi_offset 4, -16
 1307              		.cfi_offset 5, -12
 1308              		.cfi_offset 6, -8
 1309              		.cfi_offset 14, -4
 1310 0004 10D04DE2 		sub	sp, sp, #16
 1311              		.cfi_def_cfa_offset 32
 1312              	.LVL141:
1566:../src/renesas/application/r_cui_image_adjust.c **** 
 1313              		.loc 1 1566 0
 1314 0008 0030A0E3 		mov	r3, #0
 1315 000c 0C308DE5 		str	r3, [sp, #12]
1569:../src/renesas/application/r_cui_image_adjust.c ****     {
 1316              		.loc 1 1569 0
 1317 0010 000050E3 		cmp	r0, #0
 1318 0014 C701000A 		beq	.L165
1575:../src/renesas/application/r_cui_image_adjust.c ****         {
 1319              		.loc 1 1575 0
 1320 0018 0030D0E5 		ldrb	r3, [r0]	@ zero_extendqisi2
 1321 001c 2D3043E2 		sub	r3, r3, #45
 1322 0020 470053E3 		cmp	r3, #71
 1323 0024 03F19F97 		ldrls	pc, [pc, r3, asl #2]
 1324 0028 C40100EA 		b	.L166
 1325              	.L127:
 1326 002c 34050000 		.word	.L126
 1327 0030 40070000 		.word	.L166
 1328 0034 40070000 		.word	.L166
 1329 0038 34050000 		.word	.L126
 1330 003c 34050000 		.word	.L126
 1331 0040 34050000 		.word	.L126
 1332 0044 34050000 		.word	.L126
 1333 0048 34050000 		.word	.L126
 1334 004c 34050000 		.word	.L126
 1335 0050 34050000 		.word	.L126
 1336 0054 34050000 		.word	.L126
 1337 0058 34050000 		.word	.L126
 1338 005c 34050000 		.word	.L126
 1339 0060 40070000 		.word	.L166
 1340 0064 40070000 		.word	.L166
 1341 0068 40070000 		.word	.L166
 1342 006c 40070000 		.word	.L166
 1343 0070 40070000 		.word	.L166
 1344 0074 40070000 		.word	.L166
 1345 0078 40070000 		.word	.L166
 1346 007c 40070000 		.word	.L166
 1347 0080 84010000 		.word	.L128
 1348 0084 D8010000 		.word	.L129
 1349 0088 44020000 		.word	.L130
 1350 008c 40070000 		.word	.L166
 1351 0090 40070000 		.word	.L166
 1352 0094 40070000 		.word	.L166
 1353 0098 40070000 		.word	.L166
 1354 009c 40070000 		.word	.L166
 1355 00a0 40070000 		.word	.L166
 1356 00a4 40070000 		.word	.L166
 1357 00a8 40070000 		.word	.L166
 1358 00ac 40070000 		.word	.L166
 1359 00b0 40070000 		.word	.L166
 1360 00b4 40070000 		.word	.L166
 1361 00b8 4C010000 		.word	.L131
 1362 00bc 40070000 		.word	.L166
 1363 00c0 3C040000 		.word	.L132
 1364 00c4 40070000 		.word	.L166
 1365 00c8 58010000 		.word	.L133
 1366 00cc 40070000 		.word	.L166
 1367 00d0 40070000 		.word	.L166
 1368 00d4 40070000 		.word	.L166
 1369 00d8 40070000 		.word	.L166
 1370 00dc 40070000 		.word	.L166
 1371 00e0 40070000 		.word	.L166
 1372 00e4 40070000 		.word	.L166
 1373 00e8 40070000 		.word	.L166
 1374 00ec 40070000 		.word	.L166
 1375 00f0 40070000 		.word	.L166
 1376 00f4 40070000 		.word	.L166
 1377 00f8 40070000 		.word	.L166
 1378 00fc 40070000 		.word	.L166
 1379 0100 84010000 		.word	.L128
 1380 0104 D8010000 		.word	.L129
 1381 0108 44020000 		.word	.L130
 1382 010c 40070000 		.word	.L166
 1383 0110 40070000 		.word	.L166
 1384 0114 40070000 		.word	.L166
 1385 0118 40070000 		.word	.L166
 1386 011c 40070000 		.word	.L166
 1387 0120 40070000 		.word	.L166
 1388 0124 40070000 		.word	.L166
 1389 0128 40070000 		.word	.L166
 1390 012c 40070000 		.word	.L166
 1391 0130 40070000 		.word	.L166
 1392 0134 40070000 		.word	.L166
 1393 0138 4C010000 		.word	.L131
 1394 013c 40070000 		.word	.L166
 1395 0140 3C040000 		.word	.L132
 1396 0144 40070000 		.word	.L166
 1397 0148 58010000 		.word	.L133
 1398              	.L131:
1772:../src/renesas/application/r_cui_image_adjust.c ****             }
 1399              		.loc 1 1772 0
 1400 014c 0000A0E3 		mov	r0, #0
 1401              	.LVL142:
 1402              	.L124:
1896:../src/renesas/application/r_cui_image_adjust.c **** 
 1403              		.loc 1 1896 0
 1404 0150 10D08DE2 		add	sp, sp, #16
 1405              		.cfi_remember_state
 1406              		.cfi_def_cfa_offset 16
 1407              		@ sp needed
 1408 0154 7080BDE8 		pop	{r4, r5, r6, pc}
 1409              	.LVL143:
 1410              	.L133:
 1411              		.cfi_restore_state
1581:../src/renesas/application/r_cui_image_adjust.c ****                 {
 1412              		.loc 1 1581 0
 1413 0158 003000E3 		movw	r3, #:lower16:.LANCHOR1
 1414 015c 003040E3 		movt	r3, #:upper16:.LANCHOR1
 1415 0160 003093E5 		ldr	r3, [r3]
 1416 0164 010073E3 		cmn	r3, #1
 1417 0168 7601000A 		beq	.L167
1587:../src/renesas/application/r_cui_image_adjust.c ****                 }
 1418              		.loc 1 1587 0
 1419 016c 003000E3 		movw	r3, #:lower16:.LANCHOR1
 1420 0170 003040E3 		movt	r3, #:upper16:.LANCHOR1
 1421 0174 0020E0E3 		mvn	r2, #0
 1422 0178 002083E5 		str	r2, [r3]
1565:../src/renesas/application/r_cui_image_adjust.c ****     uint32_t conv_num = 0;
 1423              		.loc 1 1565 0
 1424 017c 0000A0E3 		mov	r0, #0
 1425              	.LVL144:
 1426 0180 F2FFFFEA 		b	.L124
 1427              	.LVL145:
 1428              	.L128:
1595:../src/renesas/application/r_cui_image_adjust.c ****                 {
 1429              		.loc 1 1595 0
 1430 0184 003000E3 		movw	r3, #:lower16:.LANCHOR1
 1431 0188 003040E3 		movt	r3, #:upper16:.LANCHOR1
 1432 018c 001093E5 		ldr	r1, [r3]
 1433 0190 010071E3 		cmn	r1, #1
 1434 0194 6D01000A 		beq	.L168
 1435 0198 FF20A0E3 		mov	r2, #255
 1436 019c 0030A0E3 		mov	r3, #0
 1437              	.LVL146:
 1438              	.L134:
1603:../src/renesas/application/r_cui_image_adjust.c ****                     {
 1439              		.loc 1 1603 0 discriminator 1
 1440 01a0 030053E3 		cmp	r3, #3
 1441 01a4 0900008A 		bhi	.L182
1605:../src/renesas/application/r_cui_image_adjust.c ****                         {
 1442              		.loc 1 1605 0
 1443 01a8 0100D2E1 		bics	r0, r2, r1
1613:../src/renesas/application/r_cui_image_adjust.c ****                         }
 1444              		.loc 1 1613 0 discriminator 2
 1445 01ac 0224A001 		lsleq	r2, r2, #8
 1446              	.LVL147:
1603:../src/renesas/application/r_cui_image_adjust.c ****                     {
 1447              		.loc 1 1603 0 discriminator 2
 1448 01b0 01308302 		addeq	r3, r3, #1
 1449              	.LVL148:
 1450 01b4 F9FFFF0A 		beq	.L134
 1451              	.L183:
1607:../src/renesas/application/r_cui_image_adjust.c ****                             result = RESULT_OK;
 1452              		.loc 1 1607 0
 1453 01b8 003000E3 		movw	r3, #:lower16:.LANCHOR1
 1454              	.LVL149:
 1455 01bc 003040E3 		movt	r3, #:upper16:.LANCHOR1
 1456 01c0 012082E1 		orr	r2, r2, r1
 1457              	.LVL150:
 1458 01c4 002083E5 		str	r2, [r3]
1608:../src/renesas/application/r_cui_image_adjust.c ****                             break;
 1459              		.loc 1 1608 0
 1460 01c8 0000A0E3 		mov	r0, #0
1609:../src/renesas/application/r_cui_image_adjust.c ****                         }
 1461              		.loc 1 1609 0
 1462 01cc DFFFFFEA 		b	.L124
 1463              	.LVL151:
 1464              	.L182:
1602:../src/renesas/application/r_cui_image_adjust.c ****                     for (i = 0; i <= 3; i++)
 1465              		.loc 1 1602 0
 1466 01d0 0100A0E3 		mov	r0, #1
 1467 01d4 DDFFFFEA 		b	.L124
 1468              	.LVL152:
 1469              	.L129:
1624:../src/renesas/application/r_cui_image_adjust.c ****                 {
 1470              		.loc 1 1624 0
 1471 01d8 003000E3 		movw	r3, #:lower16:.LANCHOR0
 1472 01dc 003040E3 		movt	r3, #:upper16:.LANCHOR0
 1473 01e0 002000E3 		movw	r2, #:lower16:.LANCHOR2
 1474 01e4 002040E3 		movt	r2, #:upper16:.LANCHOR2
 1475 01e8 002092E5 		ldr	r2, [r2]
 1476 01ec 823283E0 		add	r3, r3, r2, lsl #5
 1477 01f0 043093E5 		ldr	r3, [r3, #4]
 1478 01f4 020053E3 		cmp	r3, #2
1626:../src/renesas/application/r_cui_image_adjust.c ****                 }
 1479              		.loc 1 1626 0
 1480 01f8 0100A013 		movne	r0, #1
 1481              	.LVL153:
 1482 01fc D3FFFF1A 		bne	.L124
 1483              	.LVL154:
 1484              	.L184:
1631:../src/renesas/application/r_cui_image_adjust.c ****                         ||(gs_cur_status == CUI_STATE_ROTATION))
 1485              		.loc 1 1631 0
 1486 0200 003000E3 		movw	r3, #:lower16:.LANCHOR1
 1487 0204 003040E3 		movt	r3, #:upper16:.LANCHOR1
 1488 0208 003093E5 		ldr	r3, [r3]
 1489 020c FB24E0E3 		mvn	r2, #-83886080
 1490 0210 7F0373E3 		cmn	r3, #-67108863
 1491 0214 02005311 		cmpne	r3, r2
 1492 0218 4E01000A 		beq	.L170
1632:../src/renesas/application/r_cui_image_adjust.c ****                 #endif
 1493              		.loc 1 1632 0
 1494 021c FA24E0E3 		mvn	r2, #-100663296
 1495 0220 020053E1 		cmp	r3, r2
 1496 0224 4D01000A 		beq	.L171
1639:../src/renesas/application/r_cui_image_adjust.c ****                     result = RESULT_OK;
 1497              		.loc 1 1639 0
 1498 0228 FF3CC3E3 		bic	r3, r3, #65280
 1499 022c 033B83E3 		orr	r3, r3, #3072
 1500 0230 002000E3 		movw	r2, #:lower16:.LANCHOR1
 1501 0234 002040E3 		movt	r2, #:upper16:.LANCHOR1
 1502 0238 003082E5 		str	r3, [r2]
1640:../src/renesas/application/r_cui_image_adjust.c ****                 }
 1503              		.loc 1 1640 0
 1504 023c 0000A0E3 		mov	r0, #0
 1505              	.LVL155:
 1506 0240 C2FFFFEA 		b	.L124
 1507              	.LVL156:
 1508              	.L130:
1649:../src/renesas/application/r_cui_image_adjust.c ****                 {
 1509              		.loc 1 1649 0
 1510 0244 003000E3 		movw	r3, #:lower16:.LANCHOR1
 1511 0248 003040E3 		movt	r3, #:upper16:.LANCHOR1
 1512 024c 002093E5 		ldr	r2, [r3]
 1513 0250 010072E3 		cmn	r2, #1
 1514 0254 2A00000A 		beq	.L185
1674:../src/renesas/application/r_cui_image_adjust.c ****                     {
 1515              		.loc 1 1674 0
 1516 0258 003000E3 		movw	r3, #:lower16:.LANCHOR2
 1517 025c 003040E3 		movt	r3, #:upper16:.LANCHOR2
 1518 0260 001093E5 		ldr	r1, [r3]
 1519 0264 003000E3 		movw	r3, #:lower16:.LANCHOR0
 1520 0268 003040E3 		movt	r3, #:upper16:.LANCHOR0
 1521 026c 813283E0 		add	r3, r3, r1, lsl #5
 1522 0270 043093E5 		ldr	r3, [r3, #4]
 1523 0274 020053E3 		cmp	r3, #2
 1524 0278 3200000A 		beq	.L186
1706:../src/renesas/application/r_cui_image_adjust.c ****                         {
 1525              		.loc 1 1706 0
 1526 027c 040053E3 		cmp	r3, #4
 1527 0280 5800000A 		beq	.L187
1719:../src/renesas/application/r_cui_image_adjust.c ****                                 }
 1528              		.loc 1 1719 0
 1529 0284 0100A0E3 		mov	r0, #1
 1530              	.LVL157:
 1531 0288 B0FFFFEA 		b	.L124
 1532              	.LVL158:
 1533              	.L141:
 1534              	.LBB6:
1660:../src/renesas/application/r_cui_image_adjust.c ****                                         p_regstruct[regset_loop].reg_addr, p_regstruct[regset_loop]
 1535              		.loc 1 1660 0 discriminator 3
 1536 028c 843084E0 		add	r3, r4, r4, lsl #1
 1537 0290 0302A0E1 		lsl	r0, r3, #4
 1538 0294 000086E0 		add	r0, r6, r0
 1539 0298 143090E5 		ldr	r3, [r0, #20]
 1540 029c 182090E5 		ldr	r2, [r0, #24]
 1541 02a0 041090E5 		ldr	r1, [r0, #4]
 1542 02a4 100090E5 		ldr	r0, [r0, #16]
 1543 02a8 FEFFFFEB 		bl	cui_registerset
 1544              	.LVL159:
1657:../src/renesas/application/r_cui_image_adjust.c ****                             {
 1545              		.loc 1 1657 0 discriminator 3
 1546 02ac 014084E2 		add	r4, r4, #1
 1547              	.LVL160:
 1548              	.L140:
1657:../src/renesas/application/r_cui_image_adjust.c ****                             {
 1549              		.loc 1 1657 0 is_stmt 0 discriminator 1
 1550 02b0 003000E3 		movw	r3, #:lower16:.LANCHOR0
 1551 02b4 003040E3 		movt	r3, #:upper16:.LANCHOR0
 1552 02b8 853283E0 		add	r3, r3, r5, lsl #5
 1553 02bc 1C3093E5 		ldr	r3, [r3, #28]
 1554 02c0 030054E1 		cmp	r4, r3
 1555 02c4 F0FFFF3A 		bcc	.L141
 1556              	.LVL161:
 1557              	.L139:
 1558              	.LBE6:
1651:../src/renesas/application/r_cui_image_adjust.c ****                     {
 1559              		.loc 1 1651 0 is_stmt 1 discriminator 2
 1560 02c8 015085E2 		add	r5, r5, #1
 1561              	.LVL162:
 1562              	.L137:
1651:../src/renesas/application/r_cui_image_adjust.c ****                     {
 1563              		.loc 1 1651 0 is_stmt 0 discriminator 1
 1564 02cc 330055E3 		cmp	r5, #51
 1565 02d0 0D00008A 		bhi	.L188
1653:../src/renesas/application/r_cui_image_adjust.c ****                         {
 1566              		.loc 1 1653 0 is_stmt 1
 1567 02d4 003000E3 		movw	r3, #:lower16:.LANCHOR0
 1568 02d8 003040E3 		movt	r3, #:upper16:.LANCHOR0
 1569 02dc 853283E0 		add	r3, r3, r5, lsl #5
 1570 02e0 043093E5 		ldr	r3, [r3, #4]
 1571 02e4 020053E3 		cmp	r3, #2
 1572 02e8 F6FFFF1A 		bne	.L139
 1573              	.LVL163:
 1574              	.LBB7:
1656:../src/renesas/application/r_cui_image_adjust.c ****                             for (regset_loop = 0; regset_loop < current_menu[i].regnum; regset_loop
 1575              		.loc 1 1656 0
 1576 02ec 003000E3 		movw	r3, #:lower16:.LANCHOR0
 1577 02f0 003040E3 		movt	r3, #:upper16:.LANCHOR0
 1578 02f4 853283E0 		add	r3, r3, r5, lsl #5
 1579 02f8 186093E5 		ldr	r6, [r3, #24]
 1580              	.LVL164:
1657:../src/renesas/application/r_cui_image_adjust.c ****                             {
 1581              		.loc 1 1657 0
 1582 02fc 0040A0E3 		mov	r4, #0
 1583 0300 EAFFFFEA 		b	.L140
 1584              	.LVL165:
 1585              	.L185:
 1586              	.LBE7:
 1587 0304 0050A0E3 		mov	r5, #0
 1588 0308 EFFFFFEA 		b	.L137
 1589              	.LVL166:
 1590              	.L188:
1666:../src/renesas/application/r_cui_image_adjust.c ****                         for(i = 0; i < CUI_MAX_MENUID; i++)
 1591              		.loc 1 1666 0
 1592 030c FEFFFFEB 		bl	cui_set_update_register
 1593              	.LVL167:
1667:../src/renesas/application/r_cui_image_adjust.c ****                         {
 1594              		.loc 1 1667 0
 1595 0310 0020A0E3 		mov	r2, #0
 1596 0314 070000EA 		b	.L143
 1597              	.LVL168:
 1598              	.L144:
1669:../src/renesas/application/r_cui_image_adjust.c ****                         }
 1599              		.loc 1 1669 0 discriminator 3
 1600 0318 003000E3 		movw	r3, #:lower16:.LANCHOR0
 1601 031c 003040E3 		movt	r3, #:upper16:.LANCHOR0
 1602 0320 823283E0 		add	r3, r3, r2, lsl #5
 1603 0324 081093E5 		ldr	r1, [r3, #8]
 1604 0328 003000E3 		movw	r3, #:lower16:.LANCHOR4
 1605 032c 003040E3 		movt	r3, #:upper16:.LANCHOR4
 1606 0330 021183E7 		str	r1, [r3, r2, lsl #2]
1667:../src/renesas/application/r_cui_image_adjust.c ****                         {
 1607              		.loc 1 1667 0 discriminator 3
 1608 0334 012082E2 		add	r2, r2, #1
 1609              	.LVL169:
 1610              	.L143:
1667:../src/renesas/application/r_cui_image_adjust.c ****                         {
 1611              		.loc 1 1667 0 is_stmt 0 discriminator 1
 1612 0338 330052E3 		cmp	r2, #51
 1613 033c F5FFFF9A 		bls	.L144
1671:../src/renesas/application/r_cui_image_adjust.c ****                 }
 1614              		.loc 1 1671 0 is_stmt 1
 1615 0340 0000A0E3 		mov	r0, #0
 1616 0344 81FFFFEA 		b	.L124
 1617              	.LVL170:
 1618              	.L186:
 1619              	.LBB8:
1676:../src/renesas/application/r_cui_image_adjust.c ****                         #if (TARGET_INPUT == INPUT_CMOS_CAM_1)
 1620              		.loc 1 1676 0
 1621 0348 003000E3 		movw	r3, #:lower16:.LANCHOR0
 1622 034c 003040E3 		movt	r3, #:upper16:.LANCHOR0
 1623 0350 813283E0 		add	r3, r3, r1, lsl #5
 1624 0354 185093E5 		ldr	r5, [r3, #24]
 1625              	.LVL171:
1687:../src/renesas/application/r_cui_image_adjust.c ****                             {
 1626              		.loc 1 1687 0
 1627 0358 FA34E0E3 		mvn	r3, #-100663296
 1628 035c 030052E1 		cmp	r2, r3
 1629 0360 0001000A 		beq	.L173
 1630 0364 0040A0E3 		mov	r4, #0
 1631 0368 080000EA 		b	.L146
 1632              	.LVL172:
 1633              	.L147:
1696:../src/renesas/application/r_cui_image_adjust.c ****                                         p_regstruct[i].bitmask, p_regstruct[i].bitshift);
 1634              		.loc 1 1696 0 discriminator 3
 1635 036c 843084E0 		add	r3, r4, r4, lsl #1
 1636 0370 0302A0E1 		lsl	r0, r3, #4
 1637 0374 000085E0 		add	r0, r5, r0
 1638 0378 143090E5 		ldr	r3, [r0, #20]
 1639 037c 182090E5 		ldr	r2, [r0, #24]
 1640 0380 041090E5 		ldr	r1, [r0, #4]
 1641 0384 100090E5 		ldr	r0, [r0, #16]
 1642 0388 FEFFFFEB 		bl	cui_registerset
 1643              	.LVL173:
1693:../src/renesas/application/r_cui_image_adjust.c ****                                 {
 1644              		.loc 1 1693 0 discriminator 3
 1645 038c 014084E2 		add	r4, r4, #1
 1646              	.LVL174:
 1647              	.L146:
1693:../src/renesas/application/r_cui_image_adjust.c ****                                 {
 1648              		.loc 1 1693 0 is_stmt 0 discriminator 1
 1649 0390 003000E3 		movw	r3, #:lower16:.LANCHOR0
 1650 0394 003040E3 		movt	r3, #:upper16:.LANCHOR0
 1651 0398 002000E3 		movw	r2, #:lower16:.LANCHOR2
 1652 039c 002040E3 		movt	r2, #:upper16:.LANCHOR2
 1653 03a0 002092E5 		ldr	r2, [r2]
 1654 03a4 823283E0 		add	r3, r3, r2, lsl #5
 1655 03a8 1C3093E5 		ldr	r3, [r3, #28]
 1656 03ac 030054E1 		cmp	r4, r3
 1657 03b0 EDFFFF3A 		bcc	.L147
1699:../src/renesas/application/r_cui_image_adjust.c ****                                 gs_preset_value[gs_cur_index] = current_menu[gs_cur_index].selectnu
 1658              		.loc 1 1699 0 is_stmt 1
 1659 03b4 FEFFFFEB 		bl	cui_set_update_register
 1660              	.LVL175:
1700:../src/renesas/application/r_cui_image_adjust.c ****                                 result = RESULT_OK;
 1661              		.loc 1 1700 0
 1662 03b8 003000E3 		movw	r3, #:lower16:.LANCHOR2
 1663 03bc 003040E3 		movt	r3, #:upper16:.LANCHOR2
 1664 03c0 002093E5 		ldr	r2, [r3]
 1665 03c4 003000E3 		movw	r3, #:lower16:.LANCHOR0
 1666 03c8 003040E3 		movt	r3, #:upper16:.LANCHOR0
 1667 03cc 823283E0 		add	r3, r3, r2, lsl #5
 1668 03d0 081093E5 		ldr	r1, [r3, #8]
 1669 03d4 003000E3 		movw	r3, #:lower16:.LANCHOR4
 1670 03d8 003040E3 		movt	r3, #:upper16:.LANCHOR4
 1671 03dc 021183E7 		str	r1, [r3, r2, lsl #2]
1701:../src/renesas/application/r_cui_image_adjust.c ****                             }
 1672              		.loc 1 1701 0
 1673 03e0 0000A0E3 		mov	r0, #0
 1674 03e4 59FFFFEA 		b	.L124
 1675              	.LVL176:
 1676              	.L187:
 1677              	.LBE8:
 1678              	.LBB9:
1708:../src/renesas/application/r_cui_image_adjust.c **** 
 1679              		.loc 1 1708 0
 1680 03e8 004000E3 		movw	r4, #:lower16:.LANCHOR0
 1681 03ec 004040E3 		movt	r4, #:upper16:.LANCHOR0
 1682 03f0 811284E0 		add	r1, r4, r1, lsl #5
 1683 03f4 180091E5 		ldr	r0, [r1, #24]
 1684              	.LVL177:
1711:../src/renesas/application/r_cui_image_adjust.c ****                                         p_regstruct[0].bitmask, p_regstruct[0].bitshift);
 1685              		.loc 1 1711 0
 1686 03f8 143090E5 		ldr	r3, [r0, #20]
 1687 03fc 182090E5 		ldr	r2, [r0, #24]
 1688 0400 041090E5 		ldr	r1, [r0, #4]
 1689 0404 100090E5 		ldr	r0, [r0, #16]
 1690              	.LVL178:
 1691 0408 FEFFFFEB 		bl	cui_registerset
 1692              	.LVL179:
1713:../src/renesas/application/r_cui_image_adjust.c ****                                     gs_preset_value[gs_cur_index] = current_menu[gs_cur_index].sele
 1693              		.loc 1 1713 0
 1694 040c FEFFFFEB 		bl	cui_set_update_register
 1695              	.LVL180:
1714:../src/renesas/application/r_cui_image_adjust.c ****                                     result = RESULT_OK;
 1696              		.loc 1 1714 0
 1697 0410 003000E3 		movw	r3, #:lower16:.LANCHOR2
 1698 0414 003040E3 		movt	r3, #:upper16:.LANCHOR2
 1699 0418 001093E5 		ldr	r1, [r3]
 1700 041c 814284E0 		add	r4, r4, r1, lsl #5
 1701 0420 082094E5 		ldr	r2, [r4, #8]
 1702 0424 012082E2 		add	r2, r2, #1
 1703 0428 003000E3 		movw	r3, #:lower16:.LANCHOR4
 1704 042c 003040E3 		movt	r3, #:upper16:.LANCHOR4
 1705 0430 012183E7 		str	r2, [r3, r1, lsl #2]
1715:../src/renesas/application/r_cui_image_adjust.c ****                         }
 1706              		.loc 1 1715 0
 1707 0434 0000A0E3 		mov	r0, #0
 1708              	.LBE9:
 1709 0438 44FFFFEA 		b	.L124
 1710              	.LVL181:
 1711              	.L132:
 1712              	.LBB10:
1727:../src/renesas/application/r_cui_image_adjust.c ****                 uint32_t work_digit = 0;
 1713              		.loc 1 1727 0
 1714 043c 0040A0E3 		mov	r4, #0
 1715 0440 04408DE5 		str	r4, [sp, #4]
 1716 0444 0840CDE5 		strb	r4, [sp, #8]
1728:../src/renesas/application/r_cui_image_adjust.c ****                 uint32_t work_val = 0;
 1717              		.loc 1 1728 0
 1718 0448 00408DE5 		str	r4, [sp]
 1719              	.LVL182:
1731:../src/renesas/application/r_cui_image_adjust.c ****                 {
 1720              		.loc 1 1731 0
 1721 044c 150000EA 		b	.L148
 1722              	.LVL183:
 1723              	.L190:
1744:../src/renesas/application/r_cui_image_adjust.c ****                             if (result == RESULT_OK)
 1724              		.loc 1 1744 0
 1725 0450 0D20A0E1 		mov	r2, sp
 1726 0454 04108DE2 		add	r1, sp, #4
 1727 0458 FEFFFFEB 		bl	cui_conv_num_to_char
 1728              	.LVL184:
1745:../src/renesas/application/r_cui_image_adjust.c ****                             {
 1729              		.loc 1 1745 0
 1730 045c 000050E3 		cmp	r0, #0
 1731 0460 2D00001A 		bne	.L151
1747:../src/renesas/application/r_cui_image_adjust.c ****                                 {
 1732              		.loc 1 1747 0
 1733 0464 00509DE5 		ldr	r5, [sp]
 1734              	.LVL185:
 1735 0468 040000EA 		b	.L152
 1736              	.LVL186:
 1737              	.L153:
1749:../src/renesas/application/r_cui_image_adjust.c ****                                 }
 1738              		.loc 1 1749 0 discriminator 3
 1739 046c 10308DE2 		add	r3, sp, #16
 1740 0470 053083E0 		add	r3, r3, r5
 1741 0474 0C0053E5 		ldrb	r0, [r3, #-12]	@ zero_extendqisi2
 1742 0478 FEFFFFEB 		bl	putchar
 1743              	.LVL187:
1747:../src/renesas/application/r_cui_image_adjust.c ****                                 {
 1744              		.loc 1 1747 0 discriminator 3
 1745 047c 015085E2 		add	r5, r5, #1
 1746              	.LVL188:
 1747              	.L152:
1747:../src/renesas/application/r_cui_image_adjust.c ****                                 {
 1748              		.loc 1 1747 0 is_stmt 0 discriminator 1
 1749 0480 040055E3 		cmp	r5, #4
 1750 0484 F8FFFF9A 		bls	.L153
1751:../src/renesas/application/r_cui_image_adjust.c ****                             }
 1751              		.loc 1 1751 0 is_stmt 1
 1752 0488 7500A0E3 		mov	r0, #117
 1753 048c FEFFFFEB 		bl	putchar
 1754              	.LVL189:
 1755              	.L154:
1762:../src/renesas/application/r_cui_image_adjust.c ****                     }
 1756              		.loc 1 1762 0
 1757 0490 2900A0E3 		mov	r0, #41
 1758 0494 FEFFFFEB 		bl	putchar
 1759              	.LVL190:
 1760              	.L149:
1764:../src/renesas/application/r_cui_image_adjust.c ****                 }
 1761              		.loc 1 1764 0 discriminator 2
 1762 0498 000000E3 		movw	r0, #:lower16:.LC1
 1763 049c 000040E3 		movt	r0, #:upper16:.LC1
 1764 04a0 FEFFFFEB 		bl	puts
 1765              	.LVL191:
1731:../src/renesas/application/r_cui_image_adjust.c ****                 {
 1766              		.loc 1 1731 0 discriminator 2
 1767 04a4 014084E2 		add	r4, r4, #1
 1768              	.LVL192:
 1769              	.L148:
1731:../src/renesas/application/r_cui_image_adjust.c ****                 {
 1770              		.loc 1 1731 0 is_stmt 0 discriminator 1
 1771 04a8 490F54E3 		cmp	r4, #292
 1772 04ac 1E00002A 		bcs	.L189
1733:../src/renesas/application/r_cui_image_adjust.c ****                     if (gs_allparam[i].attribute != NOT_READ)
 1773              		.loc 1 1733 0 is_stmt 1
 1774 04b0 005000E3 		movw	r5, #:lower16:.LANCHOR6
 1775 04b4 005040E3 		movt	r5, #:upper16:.LANCHOR6
 1776 04b8 043285E0 		add	r3, r5, r4, lsl #4
 1777 04bc 081093E5 		ldr	r1, [r3, #8]
 1778 04c0 000000E3 		movw	r0, #:lower16:.LC24
 1779 04c4 000040E3 		movt	r0, #:upper16:.LC24
 1780 04c8 FEFFFFEB 		bl	printf
 1781              	.LVL193:
1734:../src/renesas/application/r_cui_image_adjust.c ****                     {
 1782              		.loc 1 1734 0
 1783 04cc 0432D5E7 		ldrb	r3, [r5, r4, lsl #4]	@ zero_extendqisi2
 1784 04d0 000053E3 		cmp	r3, #0
 1785 04d4 EFFFFF0A 		beq	.L149
1736:../src/renesas/application/r_cui_image_adjust.c ****                         work_val = *(gs_allparam[i].reg_struct->reg_addr);
 1786              		.loc 1 1736 0
 1787 04d8 2800A0E3 		mov	r0, #40
 1788 04dc FEFFFFEB 		bl	putchar
 1789              	.LVL194:
1737:../src/renesas/application/r_cui_image_adjust.c ****                         work_val = ((work_val >> gs_allparam[i].reg_struct->bitshift)
 1790              		.loc 1 1737 0
 1791 04e0 043285E0 		add	r3, r5, r4, lsl #4
 1792 04e4 042093E5 		ldr	r2, [r3, #4]
 1793 04e8 041092E5 		ldr	r1, [r2, #4]
 1794 04ec 00C091E5 		ldr	ip, [r1]
 1795              	.LVL195:
1738:../src/renesas/application/r_cui_image_adjust.c ****                                 & gs_allparam[i].reg_struct->bitmask);
 1796              		.loc 1 1738 0
 1797 04f0 141092E5 		ldr	r1, [r2, #20]
1739:../src/renesas/application/r_cui_image_adjust.c **** 
 1798              		.loc 1 1739 0
 1799 04f4 180092E5 		ldr	r0, [r2, #24]
1738:../src/renesas/application/r_cui_image_adjust.c ****                                 & gs_allparam[i].reg_struct->bitmask);
 1800              		.loc 1 1738 0
 1801 04f8 3C0100E0 		and	r0, r0, ip, lsr r1
 1802              	.LVL196:
1742:../src/renesas/application/r_cui_image_adjust.c ****                         {
 1803              		.loc 1 1742 0
 1804 04fc 0C3093E5 		ldr	r3, [r3, #12]
 1805 0500 000053E3 		cmp	r3, #0
 1806 0504 D1FFFF0A 		beq	.L190
1760:../src/renesas/application/r_cui_image_adjust.c ****                         }
 1807              		.loc 1 1760 0
 1808 0508 001193E7 		ldr	r1, [r3, r0, lsl #2]
 1809 050c 000000E3 		movw	r0, #:lower16:.LC24
 1810              	.LVL197:
 1811 0510 000040E3 		movt	r0, #:upper16:.LC24
 1812 0514 FEFFFFEB 		bl	printf
 1813              	.LVL198:
 1814 0518 DCFFFFEA 		b	.L154
 1815              	.LVL199:
 1816              	.L151:
1755:../src/renesas/application/r_cui_image_adjust.c ****                             }
 1817              		.loc 1 1755 0
 1818 051c 000000E3 		movw	r0, #:lower16:.LC25
 1819              	.LVL200:
 1820 0520 000040E3 		movt	r0, #:upper16:.LC25
 1821 0524 FEFFFFEB 		bl	printf
 1822              	.LVL201:
 1823 0528 D8FFFFEA 		b	.L154
 1824              	.L189:
 1825              	.LVL202:
1766:../src/renesas/application/r_cui_image_adjust.c ****             }
 1826              		.loc 1 1766 0
 1827 052c 0000A0E3 		mov	r0, #0
 1828              	.LBE10:
1768:../src/renesas/application/r_cui_image_adjust.c ****             case ASCII_P:
 1829              		.loc 1 1768 0
 1830 0530 06FFFFEA 		b	.L124
 1831              	.LVL203:
 1832              	.L126:
1790:../src/renesas/application/r_cui_image_adjust.c ****                 if (result == RESULT_NG)
 1833              		.loc 1 1790 0
 1834 0534 0010A0E1 		mov	r1, r0
 1835 0538 0C008DE2 		add	r0, sp, #12
 1836              	.LVL204:
 1837 053c FEFFFFEB 		bl	cui_conv_char_to_num
 1838              	.LVL205:
1791:../src/renesas/application/r_cui_image_adjust.c ****                 {
 1839              		.loc 1 1791 0
 1840 0540 010050E3 		cmp	r0, #1
 1841 0544 2500000A 		beq	.L191
1796:../src/renesas/application/r_cui_image_adjust.c ****                 {
 1842              		.loc 1 1796 0
 1843 0548 003000E3 		movw	r3, #:lower16:.LANCHOR2
 1844 054c 003040E3 		movt	r3, #:upper16:.LANCHOR2
 1845 0550 002093E5 		ldr	r2, [r3]
 1846 0554 003000E3 		movw	r3, #:lower16:.LANCHOR0
 1847 0558 003040E3 		movt	r3, #:upper16:.LANCHOR0
 1848 055c 823283E0 		add	r3, r3, r2, lsl #5
 1849 0560 041093E5 		ldr	r1, [r3, #4]
 1850 0564 040051E3 		cmp	r1, #4
 1851 0568 1E00000A 		beq	.L192
1814:../src/renesas/application/r_cui_image_adjust.c ****                 {
 1852              		.loc 1 1814 0
 1853 056c 003000E3 		movw	r3, #:lower16:.LANCHOR0
 1854 0570 003040E3 		movt	r3, #:upper16:.LANCHOR0
 1855 0574 823283E0 		add	r3, r3, r2, lsl #5
 1856 0578 080093E5 		ldr	r0, [r3, #8]
 1857              	.LVL206:
 1858 057c 0C309DE5 		ldr	r3, [sp, #12]
 1859 0580 030050E1 		cmp	r0, r3
 1860 0584 7B00009A 		bls	.L177
1819:../src/renesas/application/r_cui_image_adjust.c ****                 {
 1861              		.loc 1 1819 0
 1862 0588 020051E3 		cmp	r1, #2
 1863 058c 3300000A 		beq	.L193
1854:../src/renesas/application/r_cui_image_adjust.c ****                     {
 1864              		.loc 1 1854 0
 1865 0590 002000E3 		movw	r2, #:lower16:.LANCHOR1
 1866 0594 002040E3 		movt	r2, #:upper16:.LANCHOR1
 1867 0598 000092E5 		ldr	r0, [r2]
 1868 059c FF2C00E2 		and	r2, r0, #65280
 1869 05a0 030B52E3 		cmp	r2, #3072
 1870 05a4 5600000A 		beq	.L179
 1871              	.LVL207:
1866:../src/renesas/application/r_cui_image_adjust.c ****                     }
 1872              		.loc 1 1866 0
 1873 05a8 033CA0E1 		lsl	r3, r3, #24
 1874 05ac 0C308DE5 		str	r3, [sp, #12]
1865:../src/renesas/application/r_cui_image_adjust.c ****                         conv_num <<= SDK_PRV_SHIFT_3BYTES;
 1875              		.loc 1 1865 0
 1876 05b0 FF24A0E3 		mov	r2, #-16777216
1864:../src/renesas/application/r_cui_image_adjust.c ****                         check = 0xFF000000;
 1877              		.loc 1 1864 0
 1878 05b4 0010A0E3 		mov	r1, #0
 1879              	.LVL208:
 1880              	.L162:
1870:../src/renesas/application/r_cui_image_adjust.c ****                     {
 1881              		.loc 1 1870 0 discriminator 1
 1882 05b8 030051E3 		cmp	r1, #3
 1883 05bc 5B00008A 		bhi	.L194
1872:../src/renesas/application/r_cui_image_adjust.c ****                         {
 1884              		.loc 1 1872 0
 1885 05c0 0030D2E1 		bics	r3, r2, r0
 1886 05c4 5100000A 		beq	.L195
1880:../src/renesas/application/r_cui_image_adjust.c ****                             conv_num >>= SDK_PRV_SHIFT_1BYTES;
 1887              		.loc 1 1880 0
 1888 05c8 2224A0E1 		lsr	r2, r2, #8
 1889              	.LVL209:
1881:../src/renesas/application/r_cui_image_adjust.c ****                         }
 1890              		.loc 1 1881 0
 1891 05cc 0C309DE5 		ldr	r3, [sp, #12]
 1892 05d0 2334A0E1 		lsr	r3, r3, #8
 1893 05d4 0C308DE5 		str	r3, [sp, #12]
1870:../src/renesas/application/r_cui_image_adjust.c ****                     {
 1894              		.loc 1 1870 0
 1895 05d8 011081E2 		add	r1, r1, #1
 1896              	.LVL210:
 1897 05dc F5FFFFEA 		b	.L162
 1898              	.LVL211:
 1899              	.L191:
1793:../src/renesas/application/r_cui_image_adjust.c ****                 }
 1900              		.loc 1 1793 0
 1901              		.syntax divided
 1902              	@ 1793 "../src/renesas/application/r_cui_image_adjust.c" 1
 1903 05e0 00F020E3 		nop
 1904              	@ 0 "" 2
 1905              		.arm
 1906              		.syntax unified
 1907 05e4 D9FEFFEA 		b	.L124
 1908              	.L192:
 1909              	.LBB11:
1798:../src/renesas/application/r_cui_image_adjust.c **** 
 1910              		.loc 1 1798 0
 1911 05e8 003000E3 		movw	r3, #:lower16:.LANCHOR0
 1912 05ec 003040E3 		movt	r3, #:upper16:.LANCHOR0
 1913 05f0 823283E0 		add	r3, r3, r2, lsl #5
 1914 05f4 181093E5 		ldr	r1, [r3, #24]
 1915              	.LVL212:
1801:../src/renesas/application/r_cui_image_adjust.c ****                     {
 1916              		.loc 1 1801 0
 1917 05f8 083091E5 		ldr	r3, [r1, #8]
 1918 05fc 0C009DE5 		ldr	r0, [sp, #12]
 1919              	.LVL213:
 1920 0600 000053E1 		cmp	r3, r0
 1921 0604 590000CA 		bgt	.L175
1801:../src/renesas/application/r_cui_image_adjust.c ****                     {
 1922              		.loc 1 1801 0 is_stmt 0 discriminator 1
 1923 0608 0C3091E5 		ldr	r3, [r1, #12]
 1924 060c 030050E1 		cmp	r0, r3
1810:../src/renesas/application/r_cui_image_adjust.c ****                     }
 1925              		.loc 1 1810 0 is_stmt 1
 1926 0610 0100A0C3 		movgt	r0, #1
 1927 0614 CDFEFFCA 		bgt	.L124
 1928              	.L196:
1803:../src/renesas/application/r_cui_image_adjust.c ****                         cui_set_update_register();
 1929              		.loc 1 1803 0
 1930 0618 143091E5 		ldr	r3, [r1, #20]
 1931 061c 182091E5 		ldr	r2, [r1, #24]
 1932 0620 041091E5 		ldr	r1, [r1, #4]
 1933              	.LVL214:
 1934 0624 FEFFFFEB 		bl	cui_registerset
 1935              	.LVL215:
1804:../src/renesas/application/r_cui_image_adjust.c ****                         gs_preset_value[gs_cur_index] = current_menu[gs_cur_index].selectnum+1;
 1936              		.loc 1 1804 0
 1937 0628 FEFFFFEB 		bl	cui_set_update_register
 1938              	.LVL216:
1805:../src/renesas/application/r_cui_image_adjust.c ****                         result = RESULT_OK;
 1939              		.loc 1 1805 0
 1940 062c 003000E3 		movw	r3, #:lower16:.LANCHOR2
 1941 0630 003040E3 		movt	r3, #:upper16:.LANCHOR2
 1942 0634 001093E5 		ldr	r1, [r3]
 1943 0638 003000E3 		movw	r3, #:lower16:.LANCHOR0
 1944 063c 003040E3 		movt	r3, #:upper16:.LANCHOR0
 1945 0640 813283E0 		add	r3, r3, r1, lsl #5
 1946 0644 082093E5 		ldr	r2, [r3, #8]
 1947 0648 012082E2 		add	r2, r2, #1
 1948 064c 003000E3 		movw	r3, #:lower16:.LANCHOR4
 1949 0650 003040E3 		movt	r3, #:upper16:.LANCHOR4
 1950 0654 012183E7 		str	r2, [r3, r1, lsl #2]
 1951              	.LVL217:
1806:../src/renesas/application/r_cui_image_adjust.c ****                     }
 1952              		.loc 1 1806 0
 1953 0658 0000A0E3 		mov	r0, #0
 1954 065c BBFEFFEA 		b	.L124
 1955              	.LVL218:
 1956              	.L193:
 1957              	.LBE11:
 1958              	.LBB12:
1832:../src/renesas/application/r_cui_image_adjust.c ****                     if (CUI_STATE_ROTATION == current_menu[gs_cur_index].stateid)
 1959              		.loc 1 1832 0
 1960 0660 003000E3 		movw	r3, #:lower16:.LANCHOR0
 1961 0664 003040E3 		movt	r3, #:upper16:.LANCHOR0
 1962 0668 821283E0 		add	r1, r3, r2, lsl #5
 1963 066c 185091E5 		ldr	r5, [r1, #24]
 1964              	.LVL219:
1833:../src/renesas/application/r_cui_image_adjust.c ****                     {
 1965              		.loc 1 1833 0
 1966 0670 822293E7 		ldr	r2, [r3, r2, lsl #5]
 1967 0674 FA34E0E3 		mvn	r3, #-100663296
 1968 0678 030052E1 		cmp	r2, r3
 1969 067c 3F00000A 		beq	.L178
 1970 0680 0040A0E3 		mov	r4, #0
 1971 0684 0B0000EA 		b	.L159
 1972              	.LVL220:
 1973              	.L160:
1841:../src/renesas/application/r_cui_image_adjust.c ****                                     p_regstruct[i].bitmask, p_regstruct[i].bitshift);
 1974              		.loc 1 1841 0 discriminator 3
 1975 0688 843084E0 		add	r3, r4, r4, lsl #1
 1976 068c 0312A0E1 		lsl	r1, r3, #4
 1977 0690 011085E0 		add	r1, r5, r1
 1978 0694 0C009DE5 		ldr	r0, [sp, #12]
 1979 0698 060080E2 		add	r0, r0, #6
 1980 069c 000181E0 		add	r0, r1, r0, lsl #2
 1981 06a0 143091E5 		ldr	r3, [r1, #20]
 1982 06a4 182091E5 		ldr	r2, [r1, #24]
 1983 06a8 041091E5 		ldr	r1, [r1, #4]
 1984 06ac 040090E5 		ldr	r0, [r0, #4]
 1985 06b0 FEFFFFEB 		bl	cui_registerset
 1986              	.LVL221:
1839:../src/renesas/application/r_cui_image_adjust.c ****                         {
 1987              		.loc 1 1839 0 discriminator 3
 1988 06b4 014084E2 		add	r4, r4, #1
 1989              	.LVL222:
 1990              	.L159:
1839:../src/renesas/application/r_cui_image_adjust.c ****                         {
 1991              		.loc 1 1839 0 is_stmt 0 discriminator 1
 1992 06b8 003000E3 		movw	r3, #:lower16:.LANCHOR0
 1993 06bc 003040E3 		movt	r3, #:upper16:.LANCHOR0
 1994 06c0 002000E3 		movw	r2, #:lower16:.LANCHOR2
 1995 06c4 002040E3 		movt	r2, #:upper16:.LANCHOR2
 1996 06c8 002092E5 		ldr	r2, [r2]
 1997 06cc 823283E0 		add	r3, r3, r2, lsl #5
 1998 06d0 1C3093E5 		ldr	r3, [r3, #28]
 1999 06d4 030054E1 		cmp	r4, r3
 2000 06d8 EAFFFF3A 		bcc	.L160
1844:../src/renesas/application/r_cui_image_adjust.c ****                         gs_preset_value[gs_cur_index] = conv_num;
 2001              		.loc 1 1844 0 is_stmt 1
 2002 06dc FEFFFFEB 		bl	cui_set_update_register
 2003              	.LVL223:
1845:../src/renesas/application/r_cui_image_adjust.c ****                         result = RESULT_OK;
 2004              		.loc 1 1845 0
 2005 06e0 003000E3 		movw	r3, #:lower16:.LANCHOR2
 2006 06e4 003040E3 		movt	r3, #:upper16:.LANCHOR2
 2007 06e8 002093E5 		ldr	r2, [r3]
 2008 06ec 003000E3 		movw	r3, #:lower16:.LANCHOR4
 2009 06f0 003040E3 		movt	r3, #:upper16:.LANCHOR4
 2010 06f4 0C109DE5 		ldr	r1, [sp, #12]
 2011 06f8 021183E7 		str	r1, [r3, r2, lsl #2]
 2012              	.LVL224:
1846:../src/renesas/application/r_cui_image_adjust.c ****                     }
 2013              		.loc 1 1846 0
 2014 06fc 0000A0E3 		mov	r0, #0
 2015 0700 92FEFFEA 		b	.L124
 2016              	.LVL225:
 2017              	.L179:
 2018              	.LBE12:
1858:../src/renesas/application/r_cui_image_adjust.c ****                         conv_num <<= SDK_PRV_SHIFT_0BYTES;
 2019              		.loc 1 1858 0
 2020 0704 FF20A0E3 		mov	r2, #255
1857:../src/renesas/application/r_cui_image_adjust.c ****                         check = 0x000000FF;
 2021              		.loc 1 1857 0
 2022 0708 0310A0E3 		mov	r1, #3
 2023 070c A9FFFFEA 		b	.L162
 2024              	.LVL226:
 2025              	.L195:
1874:../src/renesas/application/r_cui_image_adjust.c ****                             result = RESULT_OK;
 2026              		.loc 1 1874 0
 2027 0710 0230C0E1 		bic	r3, r0, r2
 2028 0714 0C209DE5 		ldr	r2, [sp, #12]
 2029              	.LVL227:
 2030 0718 023083E1 		orr	r3, r3, r2
 2031 071c 002000E3 		movw	r2, #:lower16:.LANCHOR1
 2032 0720 002040E3 		movt	r2, #:upper16:.LANCHOR1
 2033 0724 003082E5 		str	r3, [r2]
 2034              	.LVL228:
1875:../src/renesas/application/r_cui_image_adjust.c ****                             break;
 2035              		.loc 1 1875 0
 2036 0728 0000A0E3 		mov	r0, #0
1876:../src/renesas/application/r_cui_image_adjust.c ****                         }
 2037              		.loc 1 1876 0
 2038 072c 87FEFFEA 		b	.L124
 2039              	.LVL229:
 2040              	.L194:
1869:../src/renesas/application/r_cui_image_adjust.c ****                     for( ; i < 4; i++)
 2041              		.loc 1 1869 0
 2042 0730 0100A0E3 		mov	r0, #1
 2043 0734 85FEFFEA 		b	.L124
 2044              	.LVL230:
 2045              	.L165:
1571:../src/renesas/application/r_cui_image_adjust.c ****     }
 2046              		.loc 1 1571 0
 2047 0738 0100A0E3 		mov	r0, #1
 2048              	.LVL231:
 2049 073c 83FEFFEA 		b	.L124
 2050              	.LVL232:
 2051              	.L166:
1890:../src/renesas/application/r_cui_image_adjust.c ****                 break;
 2052              		.loc 1 1890 0
 2053 0740 0100A0E3 		mov	r0, #1
 2054              	.LVL233:
 2055 0744 81FEFFEA 		b	.L124
 2056              	.LVL234:
 2057              	.L167:
1583:../src/renesas/application/r_cui_image_adjust.c ****                 }
 2058              		.loc 1 1583 0
 2059 0748 0100A0E3 		mov	r0, #1
 2060              	.LVL235:
 2061 074c 7FFEFFEA 		b	.L124
 2062              	.LVL236:
 2063              	.L168:
1597:../src/renesas/application/r_cui_image_adjust.c ****                 }
 2064              		.loc 1 1597 0
 2065 0750 0100A0E3 		mov	r0, #1
 2066              	.LVL237:
 2067 0754 7DFEFFEA 		b	.L124
 2068              	.LVL238:
 2069              	.L170:
1635:../src/renesas/application/r_cui_image_adjust.c ****                 }
 2070              		.loc 1 1635 0
 2071 0758 0100A0E3 		mov	r0, #1
 2072              	.LVL239:
 2073 075c 7BFEFFEA 		b	.L124
 2074              	.LVL240:
 2075              	.L171:
 2076 0760 0100A0E3 		mov	r0, #1
 2077              	.LVL241:
 2078 0764 79FEFFEA 		b	.L124
 2079              	.LVL242:
 2080              	.L173:
 2081              	.LBB13:
1689:../src/renesas/application/r_cui_image_adjust.c ****                             }
 2082              		.loc 1 1689 0
 2083 0768 0100A0E3 		mov	r0, #1
 2084              	.LVL243:
 2085 076c 77FEFFEA 		b	.L124
 2086              	.LVL244:
 2087              	.L175:
 2088              	.LBE13:
 2089              	.LBB14:
1810:../src/renesas/application/r_cui_image_adjust.c ****                     }
 2090              		.loc 1 1810 0
 2091 0770 0100A0E3 		mov	r0, #1
 2092 0774 75FEFFEA 		b	.L124
 2093              	.LVL245:
 2094              	.L177:
 2095              	.LBE14:
1816:../src/renesas/application/r_cui_image_adjust.c ****                 }
 2096              		.loc 1 1816 0
 2097 0778 0100A0E3 		mov	r0, #1
 2098 077c 73FEFFEA 		b	.L124
 2099              	.LVL246:
 2100              	.L178:
 2101              	.LBB15:
1835:../src/renesas/application/r_cui_image_adjust.c ****                     }
 2102              		.loc 1 1835 0
 2103 0780 0100A0E3 		mov	r0, #1
 2104              	.LVL247:
 2105              	.LBE15:
1895:../src/renesas/application/r_cui_image_adjust.c **** }
 2106              		.loc 1 1895 0
 2107 0784 71FEFFEA 		b	.L124
 2108              		.cfi_endproc
 2109              	.LFE11:
 2111              		.section	.text.cui_serial_input,"ax",%progbits
 2112              		.align	2
 2113              		.syntax unified
 2114              		.arm
 2115              		.fpu neon
 2117              	cui_serial_input:
 2118              	.LFB9:
1297:../src/renesas/application/r_cui_image_adjust.c ****     uint32_t index = 0;
 2119              		.loc 1 1297 0
 2120              		.cfi_startproc
 2121              		@ args = 0, pretend = 0, frame = 0
 2122              		@ frame_needed = 0, uses_anonymous_args = 0
 2123              	.LVL248:
 2124 0000 70402DE9 		push	{r4, r5, r6, lr}
 2125              		.cfi_def_cfa_offset 16
 2126              		.cfi_offset 4, -16
 2127              		.cfi_offset 5, -12
 2128              		.cfi_offset 6, -8
 2129              		.cfi_offset 14, -4
 2130              	.LVL249:
1303:../src/renesas/application/r_cui_image_adjust.c ****     {
 2131              		.loc 1 1303 0
 2132 0004 005050E2 		subs	r5, r0, #0
 2133 0008 9600001A 		bne	.L198
1305:../src/renesas/application/r_cui_image_adjust.c ****     }
 2134              		.loc 1 1305 0
 2135              		.syntax divided
 2136              	@ 1305 "../src/renesas/application/r_cui_image_adjust.c" 1
 2137 000c 00F020E3 		nop
 2138              	@ 0 "" 2
 2139              		.arm
 2140              		.syntax unified
 2141 0010 7080BDE8 		pop	{r4, r5, r6, pc}
 2142              	.LVL250:
 2143              	.L201:
1317:../src/renesas/application/r_cui_image_adjust.c ****             }
 2144              		.loc 1 1317 0 discriminator 3
 2145 0014 0020A0E3 		mov	r2, #0
 2146 0018 0320C5E7 		strb	r2, [r5, r3]
1315:../src/renesas/application/r_cui_image_adjust.c ****             {
 2147              		.loc 1 1315 0 discriminator 3
 2148 001c 013083E2 		add	r3, r3, #1
 2149              	.LVL251:
 2150              	.L200:
1315:../src/renesas/application/r_cui_image_adjust.c ****             {
 2151              		.loc 1 1315 0 is_stmt 0 discriminator 1
 2152 0020 0B0053E3 		cmp	r3, #11
 2153 0024 FAFFFF9A 		bls	.L201
 2154 0028 0040A0E3 		mov	r4, #0
 2155 002c 730000EA 		b	.L202
 2156              	.LVL252:
 2157              	.L234:
1326:../src/renesas/application/r_cui_image_adjust.c **** 
 2158              		.loc 1 1326 0 is_stmt 1 discriminator 1
 2159 0030 041090E5 		ldr	r1, [r0, #4]
 2160 0034 FEFFFFEB 		bl	__srget_r
 2161              	.LVL253:
 2162 0038 800000EA 		b	.L204
 2163              	.LVL254:
 2164              	.L235:
1333:../src/renesas/application/r_cui_image_adjust.c ****                         index--;
 2165              		.loc 1 1333 0
 2166 003c 0030A0E3 		mov	r3, #0
 2167 0040 0430C5E7 		strb	r3, [r5, r4]
1334:../src/renesas/application/r_cui_image_adjust.c **** 
 2168              		.loc 1 1334 0
 2169 0044 014044E2 		sub	r4, r4, #1
 2170              	.LVL255:
1336:../src/renesas/application/r_cui_image_adjust.c ****                         putchar(ASCII_SP);
 2171              		.loc 1 1336 0
 2172 0048 003000E3 		movw	r3, #:lower16:_impure_ptr
 2173 004c 003040E3 		movt	r3, #:upper16:_impure_ptr
 2174 0050 000093E5 		ldr	r0, [r3]
 2175              	.LVL256:
 2176 0054 082090E5 		ldr	r2, [r0, #8]
 2177              	.LVL257:
 2178              	.LBB24:
 2179              	.LBB25:
 2180              		.file 2 "c:\\program files (x86)\\gnu tools arm embedded\\6 2017-q2-update\\arm-none-eabi\\include
   1:c:\program files (x86)\gnu tools arm embedded\6 2017-q2-update\arm-none-eabi\include\stdio.h **** /*
   2:c:\program files (x86)\gnu tools arm embedded\6 2017-q2-update\arm-none-eabi\include\stdio.h ****  * Copyright (c) 1990 The Regents of the University of California.
   3:c:\program files (x86)\gnu tools arm embedded\6 2017-q2-update\arm-none-eabi\include\stdio.h ****  * All rights reserved.
   4:c:\program files (x86)\gnu tools arm embedded\6 2017-q2-update\arm-none-eabi\include\stdio.h ****  *
   5:c:\program files (x86)\gnu tools arm embedded\6 2017-q2-update\arm-none-eabi\include\stdio.h ****  * Redistribution and use in source and binary forms are permitted
   6:c:\program files (x86)\gnu tools arm embedded\6 2017-q2-update\arm-none-eabi\include\stdio.h ****  * provided that the above copyright notice and this paragraph are
   7:c:\program files (x86)\gnu tools arm embedded\6 2017-q2-update\arm-none-eabi\include\stdio.h ****  * duplicated in all such forms and that any documentation,
   8:c:\program files (x86)\gnu tools arm embedded\6 2017-q2-update\arm-none-eabi\include\stdio.h ****  * advertising materials, and other materials related to such
   9:c:\program files (x86)\gnu tools arm embedded\6 2017-q2-update\arm-none-eabi\include\stdio.h ****  * distribution and use acknowledge that the software was developed
  10:c:\program files (x86)\gnu tools arm embedded\6 2017-q2-update\arm-none-eabi\include\stdio.h ****  * by the University of California, Berkeley.  The name of the
  11:c:\program files (x86)\gnu tools arm embedded\6 2017-q2-update\arm-none-eabi\include\stdio.h ****  * University may not be used to endorse or promote products derived
  12:c:\program files (x86)\gnu tools arm embedded\6 2017-q2-update\arm-none-eabi\include\stdio.h ****  * from this software without specific prior written permission.
  13:c:\program files (x86)\gnu tools arm embedded\6 2017-q2-update\arm-none-eabi\include\stdio.h ****  * THIS SOFTWARE IS PROVIDED ``AS IS'' AND WITHOUT ANY EXPRESS OR
  14:c:\program files (x86)\gnu tools arm embedded\6 2017-q2-update\arm-none-eabi\include\stdio.h ****  * IMPLIED WARRANTIES, INCLUDING, WITHOUT LIMITATION, THE IMPLIED
  15:c:\program files (x86)\gnu tools arm embedded\6 2017-q2-update\arm-none-eabi\include\stdio.h ****  * WARRANTIES OF MERCHANTABILITY AND FITNESS FOR A PARTICULAR PURPOSE.
  16:c:\program files (x86)\gnu tools arm embedded\6 2017-q2-update\arm-none-eabi\include\stdio.h ****  *
  17:c:\program files (x86)\gnu tools arm embedded\6 2017-q2-update\arm-none-eabi\include\stdio.h ****  *	@(#)stdio.h	5.3 (Berkeley) 3/15/86
  18:c:\program files (x86)\gnu tools arm embedded\6 2017-q2-update\arm-none-eabi\include\stdio.h ****  */
  19:c:\program files (x86)\gnu tools arm embedded\6 2017-q2-update\arm-none-eabi\include\stdio.h **** 
  20:c:\program files (x86)\gnu tools arm embedded\6 2017-q2-update\arm-none-eabi\include\stdio.h **** /*
  21:c:\program files (x86)\gnu tools arm embedded\6 2017-q2-update\arm-none-eabi\include\stdio.h ****  * NB: to fit things in six character monocase externals, the
  22:c:\program files (x86)\gnu tools arm embedded\6 2017-q2-update\arm-none-eabi\include\stdio.h ****  * stdio code uses the prefix `__s' for stdio objects, typically
  23:c:\program files (x86)\gnu tools arm embedded\6 2017-q2-update\arm-none-eabi\include\stdio.h ****  * followed by a three-character attempt at a mnemonic.
  24:c:\program files (x86)\gnu tools arm embedded\6 2017-q2-update\arm-none-eabi\include\stdio.h ****  */
  25:c:\program files (x86)\gnu tools arm embedded\6 2017-q2-update\arm-none-eabi\include\stdio.h **** 
  26:c:\program files (x86)\gnu tools arm embedded\6 2017-q2-update\arm-none-eabi\include\stdio.h **** #ifndef _STDIO_H_
  27:c:\program files (x86)\gnu tools arm embedded\6 2017-q2-update\arm-none-eabi\include\stdio.h **** #define	_STDIO_H_
  28:c:\program files (x86)\gnu tools arm embedded\6 2017-q2-update\arm-none-eabi\include\stdio.h **** 
  29:c:\program files (x86)\gnu tools arm embedded\6 2017-q2-update\arm-none-eabi\include\stdio.h **** #include "_ansi.h"
  30:c:\program files (x86)\gnu tools arm embedded\6 2017-q2-update\arm-none-eabi\include\stdio.h **** 
  31:c:\program files (x86)\gnu tools arm embedded\6 2017-q2-update\arm-none-eabi\include\stdio.h **** #define	_FSTDIO			/* ``function stdio'' */
  32:c:\program files (x86)\gnu tools arm embedded\6 2017-q2-update\arm-none-eabi\include\stdio.h **** 
  33:c:\program files (x86)\gnu tools arm embedded\6 2017-q2-update\arm-none-eabi\include\stdio.h **** #define __need_size_t
  34:c:\program files (x86)\gnu tools arm embedded\6 2017-q2-update\arm-none-eabi\include\stdio.h **** #define __need_NULL
  35:c:\program files (x86)\gnu tools arm embedded\6 2017-q2-update\arm-none-eabi\include\stdio.h **** #include <sys/cdefs.h>
  36:c:\program files (x86)\gnu tools arm embedded\6 2017-q2-update\arm-none-eabi\include\stdio.h **** #include <stddef.h>
  37:c:\program files (x86)\gnu tools arm embedded\6 2017-q2-update\arm-none-eabi\include\stdio.h **** 
  38:c:\program files (x86)\gnu tools arm embedded\6 2017-q2-update\arm-none-eabi\include\stdio.h **** /* typedef only __gnuc_va_list, used throughout the header */
  39:c:\program files (x86)\gnu tools arm embedded\6 2017-q2-update\arm-none-eabi\include\stdio.h **** #define __need___va_list
  40:c:\program files (x86)\gnu tools arm embedded\6 2017-q2-update\arm-none-eabi\include\stdio.h **** #include <stdarg.h>
  41:c:\program files (x86)\gnu tools arm embedded\6 2017-q2-update\arm-none-eabi\include\stdio.h **** 
  42:c:\program files (x86)\gnu tools arm embedded\6 2017-q2-update\arm-none-eabi\include\stdio.h **** /* typedef va_list only when required */
  43:c:\program files (x86)\gnu tools arm embedded\6 2017-q2-update\arm-none-eabi\include\stdio.h **** #if __POSIX_VISIBLE >= 200809 || __XSI_VISIBLE
  44:c:\program files (x86)\gnu tools arm embedded\6 2017-q2-update\arm-none-eabi\include\stdio.h **** #ifdef __GNUC__
  45:c:\program files (x86)\gnu tools arm embedded\6 2017-q2-update\arm-none-eabi\include\stdio.h **** #ifndef _VA_LIST_DEFINED
  46:c:\program files (x86)\gnu tools arm embedded\6 2017-q2-update\arm-none-eabi\include\stdio.h **** typedef __gnuc_va_list va_list;
  47:c:\program files (x86)\gnu tools arm embedded\6 2017-q2-update\arm-none-eabi\include\stdio.h **** #define _VA_LIST_DEFINED
  48:c:\program files (x86)\gnu tools arm embedded\6 2017-q2-update\arm-none-eabi\include\stdio.h **** #endif
  49:c:\program files (x86)\gnu tools arm embedded\6 2017-q2-update\arm-none-eabi\include\stdio.h **** #else /* !__GNUC__ */
  50:c:\program files (x86)\gnu tools arm embedded\6 2017-q2-update\arm-none-eabi\include\stdio.h **** #include <stdarg.h>
  51:c:\program files (x86)\gnu tools arm embedded\6 2017-q2-update\arm-none-eabi\include\stdio.h **** #endif
  52:c:\program files (x86)\gnu tools arm embedded\6 2017-q2-update\arm-none-eabi\include\stdio.h **** #endif /* __POSIX_VISIBLE >= 200809 || __XSI_VISIBLE */
  53:c:\program files (x86)\gnu tools arm embedded\6 2017-q2-update\arm-none-eabi\include\stdio.h **** 
  54:c:\program files (x86)\gnu tools arm embedded\6 2017-q2-update\arm-none-eabi\include\stdio.h **** /*
  55:c:\program files (x86)\gnu tools arm embedded\6 2017-q2-update\arm-none-eabi\include\stdio.h ****  * <sys/reent.h> defines __FILE, _fpos_t.
  56:c:\program files (x86)\gnu tools arm embedded\6 2017-q2-update\arm-none-eabi\include\stdio.h ****  * They must be defined there because struct _reent needs them (and we don't
  57:c:\program files (x86)\gnu tools arm embedded\6 2017-q2-update\arm-none-eabi\include\stdio.h ****  * want reent.h to include this file.
  58:c:\program files (x86)\gnu tools arm embedded\6 2017-q2-update\arm-none-eabi\include\stdio.h ****  */
  59:c:\program files (x86)\gnu tools arm embedded\6 2017-q2-update\arm-none-eabi\include\stdio.h **** 
  60:c:\program files (x86)\gnu tools arm embedded\6 2017-q2-update\arm-none-eabi\include\stdio.h **** #include <sys/reent.h>
  61:c:\program files (x86)\gnu tools arm embedded\6 2017-q2-update\arm-none-eabi\include\stdio.h **** #include <sys/types.h>
  62:c:\program files (x86)\gnu tools arm embedded\6 2017-q2-update\arm-none-eabi\include\stdio.h **** 
  63:c:\program files (x86)\gnu tools arm embedded\6 2017-q2-update\arm-none-eabi\include\stdio.h **** _BEGIN_STD_C
  64:c:\program files (x86)\gnu tools arm embedded\6 2017-q2-update\arm-none-eabi\include\stdio.h **** 
  65:c:\program files (x86)\gnu tools arm embedded\6 2017-q2-update\arm-none-eabi\include\stdio.h **** #if !defined(__FILE_defined)
  66:c:\program files (x86)\gnu tools arm embedded\6 2017-q2-update\arm-none-eabi\include\stdio.h **** typedef __FILE FILE;
  67:c:\program files (x86)\gnu tools arm embedded\6 2017-q2-update\arm-none-eabi\include\stdio.h **** # define __FILE_defined
  68:c:\program files (x86)\gnu tools arm embedded\6 2017-q2-update\arm-none-eabi\include\stdio.h **** #endif
  69:c:\program files (x86)\gnu tools arm embedded\6 2017-q2-update\arm-none-eabi\include\stdio.h **** 
  70:c:\program files (x86)\gnu tools arm embedded\6 2017-q2-update\arm-none-eabi\include\stdio.h **** #ifdef __CYGWIN__
  71:c:\program files (x86)\gnu tools arm embedded\6 2017-q2-update\arm-none-eabi\include\stdio.h **** typedef _fpos64_t fpos_t;
  72:c:\program files (x86)\gnu tools arm embedded\6 2017-q2-update\arm-none-eabi\include\stdio.h **** #else
  73:c:\program files (x86)\gnu tools arm embedded\6 2017-q2-update\arm-none-eabi\include\stdio.h **** typedef _fpos_t fpos_t;
  74:c:\program files (x86)\gnu tools arm embedded\6 2017-q2-update\arm-none-eabi\include\stdio.h **** #ifdef __LARGE64_FILES
  75:c:\program files (x86)\gnu tools arm embedded\6 2017-q2-update\arm-none-eabi\include\stdio.h **** typedef _fpos64_t fpos64_t;
  76:c:\program files (x86)\gnu tools arm embedded\6 2017-q2-update\arm-none-eabi\include\stdio.h **** #endif
  77:c:\program files (x86)\gnu tools arm embedded\6 2017-q2-update\arm-none-eabi\include\stdio.h **** #endif /* !__CYGWIN__ */
  78:c:\program files (x86)\gnu tools arm embedded\6 2017-q2-update\arm-none-eabi\include\stdio.h **** 
  79:c:\program files (x86)\gnu tools arm embedded\6 2017-q2-update\arm-none-eabi\include\stdio.h **** #include <sys/stdio.h>
  80:c:\program files (x86)\gnu tools arm embedded\6 2017-q2-update\arm-none-eabi\include\stdio.h **** 
  81:c:\program files (x86)\gnu tools arm embedded\6 2017-q2-update\arm-none-eabi\include\stdio.h **** #define	__SLBF	0x0001		/* line buffered */
  82:c:\program files (x86)\gnu tools arm embedded\6 2017-q2-update\arm-none-eabi\include\stdio.h **** #define	__SNBF	0x0002		/* unbuffered */
  83:c:\program files (x86)\gnu tools arm embedded\6 2017-q2-update\arm-none-eabi\include\stdio.h **** #define	__SRD	0x0004		/* OK to read */
  84:c:\program files (x86)\gnu tools arm embedded\6 2017-q2-update\arm-none-eabi\include\stdio.h **** #define	__SWR	0x0008		/* OK to write */
  85:c:\program files (x86)\gnu tools arm embedded\6 2017-q2-update\arm-none-eabi\include\stdio.h **** 	/* RD and WR are never simultaneously asserted */
  86:c:\program files (x86)\gnu tools arm embedded\6 2017-q2-update\arm-none-eabi\include\stdio.h **** #define	__SRW	0x0010		/* open for reading & writing */
  87:c:\program files (x86)\gnu tools arm embedded\6 2017-q2-update\arm-none-eabi\include\stdio.h **** #define	__SEOF	0x0020		/* found EOF */
  88:c:\program files (x86)\gnu tools arm embedded\6 2017-q2-update\arm-none-eabi\include\stdio.h **** #define	__SERR	0x0040		/* found error */
  89:c:\program files (x86)\gnu tools arm embedded\6 2017-q2-update\arm-none-eabi\include\stdio.h **** #define	__SMBF	0x0080		/* _buf is from malloc */
  90:c:\program files (x86)\gnu tools arm embedded\6 2017-q2-update\arm-none-eabi\include\stdio.h **** #define	__SAPP	0x0100		/* fdopen()ed in append mode - so must  write to end */
  91:c:\program files (x86)\gnu tools arm embedded\6 2017-q2-update\arm-none-eabi\include\stdio.h **** #define	__SSTR	0x0200		/* this is an sprintf/snprintf string */
  92:c:\program files (x86)\gnu tools arm embedded\6 2017-q2-update\arm-none-eabi\include\stdio.h **** #define	__SOPT	0x0400		/* do fseek() optimisation */
  93:c:\program files (x86)\gnu tools arm embedded\6 2017-q2-update\arm-none-eabi\include\stdio.h **** #define	__SNPT	0x0800		/* do not do fseek() optimisation */
  94:c:\program files (x86)\gnu tools arm embedded\6 2017-q2-update\arm-none-eabi\include\stdio.h **** #define	__SOFF	0x1000		/* set iff _offset is in fact correct */
  95:c:\program files (x86)\gnu tools arm embedded\6 2017-q2-update\arm-none-eabi\include\stdio.h **** #define	__SORD	0x2000		/* true => stream orientation (byte/wide) decided */
  96:c:\program files (x86)\gnu tools arm embedded\6 2017-q2-update\arm-none-eabi\include\stdio.h **** #if defined(__CYGWIN__)
  97:c:\program files (x86)\gnu tools arm embedded\6 2017-q2-update\arm-none-eabi\include\stdio.h **** #  define __SCLE  0x4000        /* convert line endings CR/LF <-> NL */
  98:c:\program files (x86)\gnu tools arm embedded\6 2017-q2-update\arm-none-eabi\include\stdio.h **** #endif
  99:c:\program files (x86)\gnu tools arm embedded\6 2017-q2-update\arm-none-eabi\include\stdio.h **** #define	__SL64	0x8000		/* is 64-bit offset large file */
 100:c:\program files (x86)\gnu tools arm embedded\6 2017-q2-update\arm-none-eabi\include\stdio.h **** 
 101:c:\program files (x86)\gnu tools arm embedded\6 2017-q2-update\arm-none-eabi\include\stdio.h **** /* _flags2 flags */
 102:c:\program files (x86)\gnu tools arm embedded\6 2017-q2-update\arm-none-eabi\include\stdio.h **** #define	__SNLK  0x0001		/* stdio functions do not lock streams themselves */
 103:c:\program files (x86)\gnu tools arm embedded\6 2017-q2-update\arm-none-eabi\include\stdio.h **** #define	__SWID	0x2000		/* true => stream orientation wide, false => byte, only valid if __SORD in _
 104:c:\program files (x86)\gnu tools arm embedded\6 2017-q2-update\arm-none-eabi\include\stdio.h **** 
 105:c:\program files (x86)\gnu tools arm embedded\6 2017-q2-update\arm-none-eabi\include\stdio.h **** /*
 106:c:\program files (x86)\gnu tools arm embedded\6 2017-q2-update\arm-none-eabi\include\stdio.h ****  * The following three definitions are for ANSI C, which took them
 107:c:\program files (x86)\gnu tools arm embedded\6 2017-q2-update\arm-none-eabi\include\stdio.h ****  * from System V, which stupidly took internal interface macros and
 108:c:\program files (x86)\gnu tools arm embedded\6 2017-q2-update\arm-none-eabi\include\stdio.h ****  * made them official arguments to setvbuf(), without renaming them.
 109:c:\program files (x86)\gnu tools arm embedded\6 2017-q2-update\arm-none-eabi\include\stdio.h ****  * Hence, these ugly _IOxxx names are *supposed* to appear in user code.
 110:c:\program files (x86)\gnu tools arm embedded\6 2017-q2-update\arm-none-eabi\include\stdio.h ****  *
 111:c:\program files (x86)\gnu tools arm embedded\6 2017-q2-update\arm-none-eabi\include\stdio.h ****  * Although these happen to match their counterparts above, the
 112:c:\program files (x86)\gnu tools arm embedded\6 2017-q2-update\arm-none-eabi\include\stdio.h ****  * implementation does not rely on that (so these could be renumbered).
 113:c:\program files (x86)\gnu tools arm embedded\6 2017-q2-update\arm-none-eabi\include\stdio.h ****  */
 114:c:\program files (x86)\gnu tools arm embedded\6 2017-q2-update\arm-none-eabi\include\stdio.h **** #define	_IOFBF	0		/* setvbuf should set fully buffered */
 115:c:\program files (x86)\gnu tools arm embedded\6 2017-q2-update\arm-none-eabi\include\stdio.h **** #define	_IOLBF	1		/* setvbuf should set line buffered */
 116:c:\program files (x86)\gnu tools arm embedded\6 2017-q2-update\arm-none-eabi\include\stdio.h **** #define	_IONBF	2		/* setvbuf should set unbuffered */
 117:c:\program files (x86)\gnu tools arm embedded\6 2017-q2-update\arm-none-eabi\include\stdio.h **** 
 118:c:\program files (x86)\gnu tools arm embedded\6 2017-q2-update\arm-none-eabi\include\stdio.h **** #define	EOF	(-1)
 119:c:\program files (x86)\gnu tools arm embedded\6 2017-q2-update\arm-none-eabi\include\stdio.h **** 
 120:c:\program files (x86)\gnu tools arm embedded\6 2017-q2-update\arm-none-eabi\include\stdio.h **** #ifdef __BUFSIZ__
 121:c:\program files (x86)\gnu tools arm embedded\6 2017-q2-update\arm-none-eabi\include\stdio.h **** #define	BUFSIZ		__BUFSIZ__
 122:c:\program files (x86)\gnu tools arm embedded\6 2017-q2-update\arm-none-eabi\include\stdio.h **** #else
 123:c:\program files (x86)\gnu tools arm embedded\6 2017-q2-update\arm-none-eabi\include\stdio.h **** #define	BUFSIZ		1024
 124:c:\program files (x86)\gnu tools arm embedded\6 2017-q2-update\arm-none-eabi\include\stdio.h **** #endif
 125:c:\program files (x86)\gnu tools arm embedded\6 2017-q2-update\arm-none-eabi\include\stdio.h **** 
 126:c:\program files (x86)\gnu tools arm embedded\6 2017-q2-update\arm-none-eabi\include\stdio.h **** #ifdef __FOPEN_MAX__
 127:c:\program files (x86)\gnu tools arm embedded\6 2017-q2-update\arm-none-eabi\include\stdio.h **** #define FOPEN_MAX	__FOPEN_MAX__
 128:c:\program files (x86)\gnu tools arm embedded\6 2017-q2-update\arm-none-eabi\include\stdio.h **** #else
 129:c:\program files (x86)\gnu tools arm embedded\6 2017-q2-update\arm-none-eabi\include\stdio.h **** #define	FOPEN_MAX	20
 130:c:\program files (x86)\gnu tools arm embedded\6 2017-q2-update\arm-none-eabi\include\stdio.h **** #endif
 131:c:\program files (x86)\gnu tools arm embedded\6 2017-q2-update\arm-none-eabi\include\stdio.h **** 
 132:c:\program files (x86)\gnu tools arm embedded\6 2017-q2-update\arm-none-eabi\include\stdio.h **** #ifdef __FILENAME_MAX__
 133:c:\program files (x86)\gnu tools arm embedded\6 2017-q2-update\arm-none-eabi\include\stdio.h **** #define FILENAME_MAX    __FILENAME_MAX__
 134:c:\program files (x86)\gnu tools arm embedded\6 2017-q2-update\arm-none-eabi\include\stdio.h **** #else
 135:c:\program files (x86)\gnu tools arm embedded\6 2017-q2-update\arm-none-eabi\include\stdio.h **** #define	FILENAME_MAX	1024
 136:c:\program files (x86)\gnu tools arm embedded\6 2017-q2-update\arm-none-eabi\include\stdio.h **** #endif
 137:c:\program files (x86)\gnu tools arm embedded\6 2017-q2-update\arm-none-eabi\include\stdio.h **** 
 138:c:\program files (x86)\gnu tools arm embedded\6 2017-q2-update\arm-none-eabi\include\stdio.h **** #ifdef __L_tmpnam__
 139:c:\program files (x86)\gnu tools arm embedded\6 2017-q2-update\arm-none-eabi\include\stdio.h **** #define L_tmpnam	__L_tmpnam__
 140:c:\program files (x86)\gnu tools arm embedded\6 2017-q2-update\arm-none-eabi\include\stdio.h **** #else
 141:c:\program files (x86)\gnu tools arm embedded\6 2017-q2-update\arm-none-eabi\include\stdio.h **** #define	L_tmpnam	FILENAME_MAX
 142:c:\program files (x86)\gnu tools arm embedded\6 2017-q2-update\arm-none-eabi\include\stdio.h **** #endif
 143:c:\program files (x86)\gnu tools arm embedded\6 2017-q2-update\arm-none-eabi\include\stdio.h **** 
 144:c:\program files (x86)\gnu tools arm embedded\6 2017-q2-update\arm-none-eabi\include\stdio.h **** #if __BSD_VISIBLE || __XSI_VISIBLE
 145:c:\program files (x86)\gnu tools arm embedded\6 2017-q2-update\arm-none-eabi\include\stdio.h **** #define P_tmpdir        "/tmp"
 146:c:\program files (x86)\gnu tools arm embedded\6 2017-q2-update\arm-none-eabi\include\stdio.h **** #endif
 147:c:\program files (x86)\gnu tools arm embedded\6 2017-q2-update\arm-none-eabi\include\stdio.h **** 
 148:c:\program files (x86)\gnu tools arm embedded\6 2017-q2-update\arm-none-eabi\include\stdio.h **** #ifndef SEEK_SET
 149:c:\program files (x86)\gnu tools arm embedded\6 2017-q2-update\arm-none-eabi\include\stdio.h **** #define	SEEK_SET	0	/* set file offset to offset */
 150:c:\program files (x86)\gnu tools arm embedded\6 2017-q2-update\arm-none-eabi\include\stdio.h **** #endif
 151:c:\program files (x86)\gnu tools arm embedded\6 2017-q2-update\arm-none-eabi\include\stdio.h **** #ifndef SEEK_CUR
 152:c:\program files (x86)\gnu tools arm embedded\6 2017-q2-update\arm-none-eabi\include\stdio.h **** #define	SEEK_CUR	1	/* set file offset to current plus offset */
 153:c:\program files (x86)\gnu tools arm embedded\6 2017-q2-update\arm-none-eabi\include\stdio.h **** #endif
 154:c:\program files (x86)\gnu tools arm embedded\6 2017-q2-update\arm-none-eabi\include\stdio.h **** #ifndef SEEK_END
 155:c:\program files (x86)\gnu tools arm embedded\6 2017-q2-update\arm-none-eabi\include\stdio.h **** #define	SEEK_END	2	/* set file offset to EOF plus offset */
 156:c:\program files (x86)\gnu tools arm embedded\6 2017-q2-update\arm-none-eabi\include\stdio.h **** #endif
 157:c:\program files (x86)\gnu tools arm embedded\6 2017-q2-update\arm-none-eabi\include\stdio.h **** 
 158:c:\program files (x86)\gnu tools arm embedded\6 2017-q2-update\arm-none-eabi\include\stdio.h **** #define	TMP_MAX		26
 159:c:\program files (x86)\gnu tools arm embedded\6 2017-q2-update\arm-none-eabi\include\stdio.h **** 
 160:c:\program files (x86)\gnu tools arm embedded\6 2017-q2-update\arm-none-eabi\include\stdio.h **** #define	stdin	(_REENT->_stdin)
 161:c:\program files (x86)\gnu tools arm embedded\6 2017-q2-update\arm-none-eabi\include\stdio.h **** #define	stdout	(_REENT->_stdout)
 162:c:\program files (x86)\gnu tools arm embedded\6 2017-q2-update\arm-none-eabi\include\stdio.h **** #define	stderr	(_REENT->_stderr)
 163:c:\program files (x86)\gnu tools arm embedded\6 2017-q2-update\arm-none-eabi\include\stdio.h **** 
 164:c:\program files (x86)\gnu tools arm embedded\6 2017-q2-update\arm-none-eabi\include\stdio.h **** #define _stdin_r(x)	((x)->_stdin)
 165:c:\program files (x86)\gnu tools arm embedded\6 2017-q2-update\arm-none-eabi\include\stdio.h **** #define _stdout_r(x)	((x)->_stdout)
 166:c:\program files (x86)\gnu tools arm embedded\6 2017-q2-update\arm-none-eabi\include\stdio.h **** #define _stderr_r(x)	((x)->_stderr)
 167:c:\program files (x86)\gnu tools arm embedded\6 2017-q2-update\arm-none-eabi\include\stdio.h **** 
 168:c:\program files (x86)\gnu tools arm embedded\6 2017-q2-update\arm-none-eabi\include\stdio.h **** /*
 169:c:\program files (x86)\gnu tools arm embedded\6 2017-q2-update\arm-none-eabi\include\stdio.h ****  * Functions defined in ANSI C standard.
 170:c:\program files (x86)\gnu tools arm embedded\6 2017-q2-update\arm-none-eabi\include\stdio.h ****  */
 171:c:\program files (x86)\gnu tools arm embedded\6 2017-q2-update\arm-none-eabi\include\stdio.h **** 
 172:c:\program files (x86)\gnu tools arm embedded\6 2017-q2-update\arm-none-eabi\include\stdio.h **** #ifndef __VALIST
 173:c:\program files (x86)\gnu tools arm embedded\6 2017-q2-update\arm-none-eabi\include\stdio.h **** #ifdef __GNUC__
 174:c:\program files (x86)\gnu tools arm embedded\6 2017-q2-update\arm-none-eabi\include\stdio.h **** #define __VALIST __gnuc_va_list
 175:c:\program files (x86)\gnu tools arm embedded\6 2017-q2-update\arm-none-eabi\include\stdio.h **** #else
 176:c:\program files (x86)\gnu tools arm embedded\6 2017-q2-update\arm-none-eabi\include\stdio.h **** #define __VALIST char*
 177:c:\program files (x86)\gnu tools arm embedded\6 2017-q2-update\arm-none-eabi\include\stdio.h **** #endif
 178:c:\program files (x86)\gnu tools arm embedded\6 2017-q2-update\arm-none-eabi\include\stdio.h **** #endif
 179:c:\program files (x86)\gnu tools arm embedded\6 2017-q2-update\arm-none-eabi\include\stdio.h **** 
 180:c:\program files (x86)\gnu tools arm embedded\6 2017-q2-update\arm-none-eabi\include\stdio.h **** #if __POSIX_VISIBLE
 181:c:\program files (x86)\gnu tools arm embedded\6 2017-q2-update\arm-none-eabi\include\stdio.h **** char *	_EXFUN(ctermid, (char *));
 182:c:\program files (x86)\gnu tools arm embedded\6 2017-q2-update\arm-none-eabi\include\stdio.h **** #endif
 183:c:\program files (x86)\gnu tools arm embedded\6 2017-q2-update\arm-none-eabi\include\stdio.h **** #if __XSI_VISIBLE && __XSI_VISIBLE < 600
 184:c:\program files (x86)\gnu tools arm embedded\6 2017-q2-update\arm-none-eabi\include\stdio.h **** char *	_EXFUN(cuserid, (char *));
 185:c:\program files (x86)\gnu tools arm embedded\6 2017-q2-update\arm-none-eabi\include\stdio.h **** #endif
 186:c:\program files (x86)\gnu tools arm embedded\6 2017-q2-update\arm-none-eabi\include\stdio.h **** FILE *	_EXFUN(tmpfile, (void));
 187:c:\program files (x86)\gnu tools arm embedded\6 2017-q2-update\arm-none-eabi\include\stdio.h **** char *	_EXFUN(tmpnam, (char *));
 188:c:\program files (x86)\gnu tools arm embedded\6 2017-q2-update\arm-none-eabi\include\stdio.h **** #if __BSD_VISIBLE || __XSI_VISIBLE || __POSIX_VISIBLE >= 200112
 189:c:\program files (x86)\gnu tools arm embedded\6 2017-q2-update\arm-none-eabi\include\stdio.h **** char *	_EXFUN(tempnam, (const char *, const char *));
 190:c:\program files (x86)\gnu tools arm embedded\6 2017-q2-update\arm-none-eabi\include\stdio.h **** #endif
 191:c:\program files (x86)\gnu tools arm embedded\6 2017-q2-update\arm-none-eabi\include\stdio.h **** int	_EXFUN(fclose, (FILE *));
 192:c:\program files (x86)\gnu tools arm embedded\6 2017-q2-update\arm-none-eabi\include\stdio.h **** int	_EXFUN(fflush, (FILE *));
 193:c:\program files (x86)\gnu tools arm embedded\6 2017-q2-update\arm-none-eabi\include\stdio.h **** FILE *	_EXFUN(freopen, (const char *__restrict, const char *__restrict, FILE *__restrict));
 194:c:\program files (x86)\gnu tools arm embedded\6 2017-q2-update\arm-none-eabi\include\stdio.h **** void	_EXFUN(setbuf, (FILE *__restrict, char *__restrict));
 195:c:\program files (x86)\gnu tools arm embedded\6 2017-q2-update\arm-none-eabi\include\stdio.h **** int	_EXFUN(setvbuf, (FILE *__restrict, char *__restrict, int, size_t));
 196:c:\program files (x86)\gnu tools arm embedded\6 2017-q2-update\arm-none-eabi\include\stdio.h **** int	_EXFUN(fprintf, (FILE *__restrict, const char *__restrict, ...)
 197:c:\program files (x86)\gnu tools arm embedded\6 2017-q2-update\arm-none-eabi\include\stdio.h ****                _ATTRIBUTE ((__format__ (__printf__, 2, 3))));
 198:c:\program files (x86)\gnu tools arm embedded\6 2017-q2-update\arm-none-eabi\include\stdio.h **** int	_EXFUN(fscanf, (FILE *__restrict, const char *__restrict, ...)
 199:c:\program files (x86)\gnu tools arm embedded\6 2017-q2-update\arm-none-eabi\include\stdio.h ****                _ATTRIBUTE ((__format__ (__scanf__, 2, 3))));
 200:c:\program files (x86)\gnu tools arm embedded\6 2017-q2-update\arm-none-eabi\include\stdio.h **** int	_EXFUN(printf, (const char *__restrict, ...)
 201:c:\program files (x86)\gnu tools arm embedded\6 2017-q2-update\arm-none-eabi\include\stdio.h ****                _ATTRIBUTE ((__format__ (__printf__, 1, 2))));
 202:c:\program files (x86)\gnu tools arm embedded\6 2017-q2-update\arm-none-eabi\include\stdio.h **** int	_EXFUN(scanf, (const char *__restrict, ...)
 203:c:\program files (x86)\gnu tools arm embedded\6 2017-q2-update\arm-none-eabi\include\stdio.h ****                _ATTRIBUTE ((__format__ (__scanf__, 1, 2))));
 204:c:\program files (x86)\gnu tools arm embedded\6 2017-q2-update\arm-none-eabi\include\stdio.h **** int	_EXFUN(sscanf, (const char *__restrict, const char *__restrict, ...)
 205:c:\program files (x86)\gnu tools arm embedded\6 2017-q2-update\arm-none-eabi\include\stdio.h ****                _ATTRIBUTE ((__format__ (__scanf__, 2, 3))));
 206:c:\program files (x86)\gnu tools arm embedded\6 2017-q2-update\arm-none-eabi\include\stdio.h **** int	_EXFUN(vfprintf, (FILE *__restrict, const char *__restrict, __VALIST)
 207:c:\program files (x86)\gnu tools arm embedded\6 2017-q2-update\arm-none-eabi\include\stdio.h ****                _ATTRIBUTE ((__format__ (__printf__, 2, 0))));
 208:c:\program files (x86)\gnu tools arm embedded\6 2017-q2-update\arm-none-eabi\include\stdio.h **** int	_EXFUN(vprintf, (const char *, __VALIST)
 209:c:\program files (x86)\gnu tools arm embedded\6 2017-q2-update\arm-none-eabi\include\stdio.h ****                _ATTRIBUTE ((__format__ (__printf__, 1, 0))));
 210:c:\program files (x86)\gnu tools arm embedded\6 2017-q2-update\arm-none-eabi\include\stdio.h **** int	_EXFUN(vsprintf, (char *__restrict, const char *__restrict, __VALIST)
 211:c:\program files (x86)\gnu tools arm embedded\6 2017-q2-update\arm-none-eabi\include\stdio.h ****                _ATTRIBUTE ((__format__ (__printf__, 2, 0))));
 212:c:\program files (x86)\gnu tools arm embedded\6 2017-q2-update\arm-none-eabi\include\stdio.h **** int	_EXFUN(fgetc, (FILE *));
 213:c:\program files (x86)\gnu tools arm embedded\6 2017-q2-update\arm-none-eabi\include\stdio.h **** char *  _EXFUN(fgets, (char *__restrict, int, FILE *__restrict));
 214:c:\program files (x86)\gnu tools arm embedded\6 2017-q2-update\arm-none-eabi\include\stdio.h **** int	_EXFUN(fputc, (int, FILE *));
 215:c:\program files (x86)\gnu tools arm embedded\6 2017-q2-update\arm-none-eabi\include\stdio.h **** int	_EXFUN(fputs, (const char *__restrict, FILE *__restrict));
 216:c:\program files (x86)\gnu tools arm embedded\6 2017-q2-update\arm-none-eabi\include\stdio.h **** int	_EXFUN(getc, (FILE *));
 217:c:\program files (x86)\gnu tools arm embedded\6 2017-q2-update\arm-none-eabi\include\stdio.h **** int	_EXFUN(getchar, (void));
 218:c:\program files (x86)\gnu tools arm embedded\6 2017-q2-update\arm-none-eabi\include\stdio.h **** char *  _EXFUN(gets, (char *));
 219:c:\program files (x86)\gnu tools arm embedded\6 2017-q2-update\arm-none-eabi\include\stdio.h **** int	_EXFUN(putc, (int, FILE *));
 220:c:\program files (x86)\gnu tools arm embedded\6 2017-q2-update\arm-none-eabi\include\stdio.h **** int	_EXFUN(putchar, (int));
 221:c:\program files (x86)\gnu tools arm embedded\6 2017-q2-update\arm-none-eabi\include\stdio.h **** int	_EXFUN(puts, (const char *));
 222:c:\program files (x86)\gnu tools arm embedded\6 2017-q2-update\arm-none-eabi\include\stdio.h **** int	_EXFUN(ungetc, (int, FILE *));
 223:c:\program files (x86)\gnu tools arm embedded\6 2017-q2-update\arm-none-eabi\include\stdio.h **** size_t	_EXFUN(fread, (_PTR __restrict, size_t _size, size_t _n, FILE *__restrict));
 224:c:\program files (x86)\gnu tools arm embedded\6 2017-q2-update\arm-none-eabi\include\stdio.h **** size_t	_EXFUN(fwrite, (const _PTR __restrict , size_t _size, size_t _n, FILE *));
 225:c:\program files (x86)\gnu tools arm embedded\6 2017-q2-update\arm-none-eabi\include\stdio.h **** #ifdef _COMPILING_NEWLIB
 226:c:\program files (x86)\gnu tools arm embedded\6 2017-q2-update\arm-none-eabi\include\stdio.h **** int	_EXFUN(fgetpos, (FILE *, _fpos_t *));
 227:c:\program files (x86)\gnu tools arm embedded\6 2017-q2-update\arm-none-eabi\include\stdio.h **** #else
 228:c:\program files (x86)\gnu tools arm embedded\6 2017-q2-update\arm-none-eabi\include\stdio.h **** int	_EXFUN(fgetpos, (FILE *__restrict, fpos_t *__restrict));
 229:c:\program files (x86)\gnu tools arm embedded\6 2017-q2-update\arm-none-eabi\include\stdio.h **** #endif
 230:c:\program files (x86)\gnu tools arm embedded\6 2017-q2-update\arm-none-eabi\include\stdio.h **** int	_EXFUN(fseek, (FILE *, long, int));
 231:c:\program files (x86)\gnu tools arm embedded\6 2017-q2-update\arm-none-eabi\include\stdio.h **** #ifdef _COMPILING_NEWLIB
 232:c:\program files (x86)\gnu tools arm embedded\6 2017-q2-update\arm-none-eabi\include\stdio.h **** int	_EXFUN(fsetpos, (FILE *, const _fpos_t *));
 233:c:\program files (x86)\gnu tools arm embedded\6 2017-q2-update\arm-none-eabi\include\stdio.h **** #else
 234:c:\program files (x86)\gnu tools arm embedded\6 2017-q2-update\arm-none-eabi\include\stdio.h **** int	_EXFUN(fsetpos, (FILE *, const fpos_t *));
 235:c:\program files (x86)\gnu tools arm embedded\6 2017-q2-update\arm-none-eabi\include\stdio.h **** #endif
 236:c:\program files (x86)\gnu tools arm embedded\6 2017-q2-update\arm-none-eabi\include\stdio.h **** long	_EXFUN(ftell, ( FILE *));
 237:c:\program files (x86)\gnu tools arm embedded\6 2017-q2-update\arm-none-eabi\include\stdio.h **** void	_EXFUN(rewind, (FILE *));
 238:c:\program files (x86)\gnu tools arm embedded\6 2017-q2-update\arm-none-eabi\include\stdio.h **** void	_EXFUN(clearerr, (FILE *));
 239:c:\program files (x86)\gnu tools arm embedded\6 2017-q2-update\arm-none-eabi\include\stdio.h **** int	_EXFUN(feof, (FILE *));
 240:c:\program files (x86)\gnu tools arm embedded\6 2017-q2-update\arm-none-eabi\include\stdio.h **** int	_EXFUN(ferror, (FILE *));
 241:c:\program files (x86)\gnu tools arm embedded\6 2017-q2-update\arm-none-eabi\include\stdio.h **** void    _EXFUN(perror, (const char *));
 242:c:\program files (x86)\gnu tools arm embedded\6 2017-q2-update\arm-none-eabi\include\stdio.h **** #ifndef _REENT_ONLY
 243:c:\program files (x86)\gnu tools arm embedded\6 2017-q2-update\arm-none-eabi\include\stdio.h **** FILE *	_EXFUN(fopen, (const char *__restrict _name, const char *__restrict _type));
 244:c:\program files (x86)\gnu tools arm embedded\6 2017-q2-update\arm-none-eabi\include\stdio.h **** int	_EXFUN(sprintf, (char *__restrict, const char *__restrict, ...)
 245:c:\program files (x86)\gnu tools arm embedded\6 2017-q2-update\arm-none-eabi\include\stdio.h ****                _ATTRIBUTE ((__format__ (__printf__, 2, 3))));
 246:c:\program files (x86)\gnu tools arm embedded\6 2017-q2-update\arm-none-eabi\include\stdio.h **** int	_EXFUN(remove, (const char *));
 247:c:\program files (x86)\gnu tools arm embedded\6 2017-q2-update\arm-none-eabi\include\stdio.h **** int	_EXFUN(rename, (const char *, const char *));
 248:c:\program files (x86)\gnu tools arm embedded\6 2017-q2-update\arm-none-eabi\include\stdio.h **** #ifdef _COMPILING_NEWLIB
 249:c:\program files (x86)\gnu tools arm embedded\6 2017-q2-update\arm-none-eabi\include\stdio.h **** int	_EXFUN(_rename, (const char *, const char *));
 250:c:\program files (x86)\gnu tools arm embedded\6 2017-q2-update\arm-none-eabi\include\stdio.h **** #endif
 251:c:\program files (x86)\gnu tools arm embedded\6 2017-q2-update\arm-none-eabi\include\stdio.h **** #endif
 252:c:\program files (x86)\gnu tools arm embedded\6 2017-q2-update\arm-none-eabi\include\stdio.h **** #if __LARGEFILE_VISIBLE || __POSIX_VISIBLE >= 200112
 253:c:\program files (x86)\gnu tools arm embedded\6 2017-q2-update\arm-none-eabi\include\stdio.h **** #ifdef _COMPILING_NEWLIB
 254:c:\program files (x86)\gnu tools arm embedded\6 2017-q2-update\arm-none-eabi\include\stdio.h **** int	_EXFUN(fseeko, (FILE *, _off_t, int));
 255:c:\program files (x86)\gnu tools arm embedded\6 2017-q2-update\arm-none-eabi\include\stdio.h **** _off_t	_EXFUN(ftello, ( FILE *));
 256:c:\program files (x86)\gnu tools arm embedded\6 2017-q2-update\arm-none-eabi\include\stdio.h **** #else
 257:c:\program files (x86)\gnu tools arm embedded\6 2017-q2-update\arm-none-eabi\include\stdio.h **** int	_EXFUN(fseeko, (FILE *, off_t, int));
 258:c:\program files (x86)\gnu tools arm embedded\6 2017-q2-update\arm-none-eabi\include\stdio.h **** off_t	_EXFUN(ftello, ( FILE *));
 259:c:\program files (x86)\gnu tools arm embedded\6 2017-q2-update\arm-none-eabi\include\stdio.h **** #endif
 260:c:\program files (x86)\gnu tools arm embedded\6 2017-q2-update\arm-none-eabi\include\stdio.h **** #endif
 261:c:\program files (x86)\gnu tools arm embedded\6 2017-q2-update\arm-none-eabi\include\stdio.h **** #if __GNU_VISIBLE
 262:c:\program files (x86)\gnu tools arm embedded\6 2017-q2-update\arm-none-eabi\include\stdio.h **** int	_EXFUN(fcloseall, (_VOID));
 263:c:\program files (x86)\gnu tools arm embedded\6 2017-q2-update\arm-none-eabi\include\stdio.h **** #endif
 264:c:\program files (x86)\gnu tools arm embedded\6 2017-q2-update\arm-none-eabi\include\stdio.h **** #ifndef _REENT_ONLY
 265:c:\program files (x86)\gnu tools arm embedded\6 2017-q2-update\arm-none-eabi\include\stdio.h **** #if __ISO_C_VISIBLE >= 1999
 266:c:\program files (x86)\gnu tools arm embedded\6 2017-q2-update\arm-none-eabi\include\stdio.h **** int	_EXFUN(snprintf, (char *__restrict, size_t, const char *__restrict, ...)
 267:c:\program files (x86)\gnu tools arm embedded\6 2017-q2-update\arm-none-eabi\include\stdio.h ****                _ATTRIBUTE ((__format__ (__printf__, 3, 4))));
 268:c:\program files (x86)\gnu tools arm embedded\6 2017-q2-update\arm-none-eabi\include\stdio.h **** int	_EXFUN(vsnprintf, (char *__restrict, size_t, const char *__restrict, __VALIST)
 269:c:\program files (x86)\gnu tools arm embedded\6 2017-q2-update\arm-none-eabi\include\stdio.h ****                _ATTRIBUTE ((__format__ (__printf__, 3, 0))));
 270:c:\program files (x86)\gnu tools arm embedded\6 2017-q2-update\arm-none-eabi\include\stdio.h **** int	_EXFUN(vfscanf, (FILE *__restrict, const char *__restrict, __VALIST)
 271:c:\program files (x86)\gnu tools arm embedded\6 2017-q2-update\arm-none-eabi\include\stdio.h ****                _ATTRIBUTE ((__format__ (__scanf__, 2, 0))));
 272:c:\program files (x86)\gnu tools arm embedded\6 2017-q2-update\arm-none-eabi\include\stdio.h **** int	_EXFUN(vscanf, (const char *, __VALIST)
 273:c:\program files (x86)\gnu tools arm embedded\6 2017-q2-update\arm-none-eabi\include\stdio.h ****                _ATTRIBUTE ((__format__ (__scanf__, 1, 0))));
 274:c:\program files (x86)\gnu tools arm embedded\6 2017-q2-update\arm-none-eabi\include\stdio.h **** int	_EXFUN(vsscanf, (const char *__restrict, const char *__restrict, __VALIST)
 275:c:\program files (x86)\gnu tools arm embedded\6 2017-q2-update\arm-none-eabi\include\stdio.h ****                _ATTRIBUTE ((__format__ (__scanf__, 2, 0))));
 276:c:\program files (x86)\gnu tools arm embedded\6 2017-q2-update\arm-none-eabi\include\stdio.h **** #endif
 277:c:\program files (x86)\gnu tools arm embedded\6 2017-q2-update\arm-none-eabi\include\stdio.h **** #if __GNU_VISIBLE
 278:c:\program files (x86)\gnu tools arm embedded\6 2017-q2-update\arm-none-eabi\include\stdio.h **** int	_EXFUN(asprintf, (char **__restrict, const char *__restrict, ...)
 279:c:\program files (x86)\gnu tools arm embedded\6 2017-q2-update\arm-none-eabi\include\stdio.h ****                _ATTRIBUTE ((__format__ (__printf__, 2, 3))));
 280:c:\program files (x86)\gnu tools arm embedded\6 2017-q2-update\arm-none-eabi\include\stdio.h **** int	_EXFUN(vasprintf, (char **, const char *, __VALIST)
 281:c:\program files (x86)\gnu tools arm embedded\6 2017-q2-update\arm-none-eabi\include\stdio.h ****                _ATTRIBUTE ((__format__ (__printf__, 2, 0))));
 282:c:\program files (x86)\gnu tools arm embedded\6 2017-q2-update\arm-none-eabi\include\stdio.h **** #endif
 283:c:\program files (x86)\gnu tools arm embedded\6 2017-q2-update\arm-none-eabi\include\stdio.h **** #if __MISC_VISIBLE /* Newlib-specific */
 284:c:\program files (x86)\gnu tools arm embedded\6 2017-q2-update\arm-none-eabi\include\stdio.h **** int	_EXFUN(asiprintf, (char **, const char *, ...)
 285:c:\program files (x86)\gnu tools arm embedded\6 2017-q2-update\arm-none-eabi\include\stdio.h ****                _ATTRIBUTE ((__format__ (__printf__, 2, 3))));
 286:c:\program files (x86)\gnu tools arm embedded\6 2017-q2-update\arm-none-eabi\include\stdio.h **** char *	_EXFUN(asniprintf, (char *, size_t *, const char *, ...)
 287:c:\program files (x86)\gnu tools arm embedded\6 2017-q2-update\arm-none-eabi\include\stdio.h ****                _ATTRIBUTE ((__format__ (__printf__, 3, 4))));
 288:c:\program files (x86)\gnu tools arm embedded\6 2017-q2-update\arm-none-eabi\include\stdio.h **** char *	_EXFUN(asnprintf, (char *__restrict, size_t *__restrict, const char *__restrict, ...)
 289:c:\program files (x86)\gnu tools arm embedded\6 2017-q2-update\arm-none-eabi\include\stdio.h ****                _ATTRIBUTE ((__format__ (__printf__, 3, 4))));
 290:c:\program files (x86)\gnu tools arm embedded\6 2017-q2-update\arm-none-eabi\include\stdio.h **** #ifndef diprintf
 291:c:\program files (x86)\gnu tools arm embedded\6 2017-q2-update\arm-none-eabi\include\stdio.h **** int	_EXFUN(diprintf, (int, const char *, ...)
 292:c:\program files (x86)\gnu tools arm embedded\6 2017-q2-update\arm-none-eabi\include\stdio.h ****                _ATTRIBUTE ((__format__ (__printf__, 2, 3))));
 293:c:\program files (x86)\gnu tools arm embedded\6 2017-q2-update\arm-none-eabi\include\stdio.h **** #endif
 294:c:\program files (x86)\gnu tools arm embedded\6 2017-q2-update\arm-none-eabi\include\stdio.h **** int	_EXFUN(fiprintf, (FILE *, const char *, ...)
 295:c:\program files (x86)\gnu tools arm embedded\6 2017-q2-update\arm-none-eabi\include\stdio.h ****                _ATTRIBUTE ((__format__ (__printf__, 2, 3))));
 296:c:\program files (x86)\gnu tools arm embedded\6 2017-q2-update\arm-none-eabi\include\stdio.h **** int	_EXFUN(fiscanf, (FILE *, const char *, ...)
 297:c:\program files (x86)\gnu tools arm embedded\6 2017-q2-update\arm-none-eabi\include\stdio.h ****                _ATTRIBUTE ((__format__ (__scanf__, 2, 3))));
 298:c:\program files (x86)\gnu tools arm embedded\6 2017-q2-update\arm-none-eabi\include\stdio.h **** int	_EXFUN(iprintf, (const char *, ...)
 299:c:\program files (x86)\gnu tools arm embedded\6 2017-q2-update\arm-none-eabi\include\stdio.h ****                _ATTRIBUTE ((__format__ (__printf__, 1, 2))));
 300:c:\program files (x86)\gnu tools arm embedded\6 2017-q2-update\arm-none-eabi\include\stdio.h **** int	_EXFUN(iscanf, (const char *, ...)
 301:c:\program files (x86)\gnu tools arm embedded\6 2017-q2-update\arm-none-eabi\include\stdio.h ****                _ATTRIBUTE ((__format__ (__scanf__, 1, 2))));
 302:c:\program files (x86)\gnu tools arm embedded\6 2017-q2-update\arm-none-eabi\include\stdio.h **** int	_EXFUN(siprintf, (char *, const char *, ...)
 303:c:\program files (x86)\gnu tools arm embedded\6 2017-q2-update\arm-none-eabi\include\stdio.h ****                _ATTRIBUTE ((__format__ (__printf__, 2, 3))));
 304:c:\program files (x86)\gnu tools arm embedded\6 2017-q2-update\arm-none-eabi\include\stdio.h **** int	_EXFUN(siscanf, (const char *, const char *, ...)
 305:c:\program files (x86)\gnu tools arm embedded\6 2017-q2-update\arm-none-eabi\include\stdio.h ****                _ATTRIBUTE ((__format__ (__scanf__, 2, 3))));
 306:c:\program files (x86)\gnu tools arm embedded\6 2017-q2-update\arm-none-eabi\include\stdio.h **** int	_EXFUN(sniprintf, (char *, size_t, const char *, ...)
 307:c:\program files (x86)\gnu tools arm embedded\6 2017-q2-update\arm-none-eabi\include\stdio.h ****                _ATTRIBUTE ((__format__ (__printf__, 3, 4))));
 308:c:\program files (x86)\gnu tools arm embedded\6 2017-q2-update\arm-none-eabi\include\stdio.h **** int	_EXFUN(vasiprintf, (char **, const char *, __VALIST)
 309:c:\program files (x86)\gnu tools arm embedded\6 2017-q2-update\arm-none-eabi\include\stdio.h ****                _ATTRIBUTE ((__format__ (__printf__, 2, 0))));
 310:c:\program files (x86)\gnu tools arm embedded\6 2017-q2-update\arm-none-eabi\include\stdio.h **** char *	_EXFUN(vasniprintf, (char *, size_t *, const char *, __VALIST)
 311:c:\program files (x86)\gnu tools arm embedded\6 2017-q2-update\arm-none-eabi\include\stdio.h ****                _ATTRIBUTE ((__format__ (__printf__, 3, 0))));
 312:c:\program files (x86)\gnu tools arm embedded\6 2017-q2-update\arm-none-eabi\include\stdio.h **** char *	_EXFUN(vasnprintf, (char *, size_t *, const char *, __VALIST)
 313:c:\program files (x86)\gnu tools arm embedded\6 2017-q2-update\arm-none-eabi\include\stdio.h ****                _ATTRIBUTE ((__format__ (__printf__, 3, 0))));
 314:c:\program files (x86)\gnu tools arm embedded\6 2017-q2-update\arm-none-eabi\include\stdio.h **** int	_EXFUN(vdiprintf, (int, const char *, __VALIST)
 315:c:\program files (x86)\gnu tools arm embedded\6 2017-q2-update\arm-none-eabi\include\stdio.h ****                _ATTRIBUTE ((__format__ (__printf__, 2, 0))));
 316:c:\program files (x86)\gnu tools arm embedded\6 2017-q2-update\arm-none-eabi\include\stdio.h **** int	_EXFUN(vfiprintf, (FILE *, const char *, __VALIST)
 317:c:\program files (x86)\gnu tools arm embedded\6 2017-q2-update\arm-none-eabi\include\stdio.h ****                _ATTRIBUTE ((__format__ (__printf__, 2, 0))));
 318:c:\program files (x86)\gnu tools arm embedded\6 2017-q2-update\arm-none-eabi\include\stdio.h **** int	_EXFUN(vfiscanf, (FILE *, const char *, __VALIST)
 319:c:\program files (x86)\gnu tools arm embedded\6 2017-q2-update\arm-none-eabi\include\stdio.h ****                _ATTRIBUTE ((__format__ (__scanf__, 2, 0))));
 320:c:\program files (x86)\gnu tools arm embedded\6 2017-q2-update\arm-none-eabi\include\stdio.h **** int	_EXFUN(viprintf, (const char *, __VALIST)
 321:c:\program files (x86)\gnu tools arm embedded\6 2017-q2-update\arm-none-eabi\include\stdio.h ****                _ATTRIBUTE ((__format__ (__printf__, 1, 0))));
 322:c:\program files (x86)\gnu tools arm embedded\6 2017-q2-update\arm-none-eabi\include\stdio.h **** int	_EXFUN(viscanf, (const char *, __VALIST)
 323:c:\program files (x86)\gnu tools arm embedded\6 2017-q2-update\arm-none-eabi\include\stdio.h ****                _ATTRIBUTE ((__format__ (__scanf__, 1, 0))));
 324:c:\program files (x86)\gnu tools arm embedded\6 2017-q2-update\arm-none-eabi\include\stdio.h **** int	_EXFUN(vsiprintf, (char *, const char *, __VALIST)
 325:c:\program files (x86)\gnu tools arm embedded\6 2017-q2-update\arm-none-eabi\include\stdio.h ****                _ATTRIBUTE ((__format__ (__printf__, 2, 0))));
 326:c:\program files (x86)\gnu tools arm embedded\6 2017-q2-update\arm-none-eabi\include\stdio.h **** int	_EXFUN(vsiscanf, (const char *, const char *, __VALIST)
 327:c:\program files (x86)\gnu tools arm embedded\6 2017-q2-update\arm-none-eabi\include\stdio.h ****                _ATTRIBUTE ((__format__ (__scanf__, 2, 0))));
 328:c:\program files (x86)\gnu tools arm embedded\6 2017-q2-update\arm-none-eabi\include\stdio.h **** int	_EXFUN(vsniprintf, (char *, size_t, const char *, __VALIST)
 329:c:\program files (x86)\gnu tools arm embedded\6 2017-q2-update\arm-none-eabi\include\stdio.h ****                _ATTRIBUTE ((__format__ (__printf__, 3, 0))));
 330:c:\program files (x86)\gnu tools arm embedded\6 2017-q2-update\arm-none-eabi\include\stdio.h **** #endif /* __MISC_VISIBLE */
 331:c:\program files (x86)\gnu tools arm embedded\6 2017-q2-update\arm-none-eabi\include\stdio.h **** #endif /* !_REENT_ONLY */
 332:c:\program files (x86)\gnu tools arm embedded\6 2017-q2-update\arm-none-eabi\include\stdio.h **** 
 333:c:\program files (x86)\gnu tools arm embedded\6 2017-q2-update\arm-none-eabi\include\stdio.h **** /*
 334:c:\program files (x86)\gnu tools arm embedded\6 2017-q2-update\arm-none-eabi\include\stdio.h ****  * Routines in POSIX 1003.1:2001.
 335:c:\program files (x86)\gnu tools arm embedded\6 2017-q2-update\arm-none-eabi\include\stdio.h ****  */
 336:c:\program files (x86)\gnu tools arm embedded\6 2017-q2-update\arm-none-eabi\include\stdio.h **** 
 337:c:\program files (x86)\gnu tools arm embedded\6 2017-q2-update\arm-none-eabi\include\stdio.h **** #if __POSIX_VISIBLE
 338:c:\program files (x86)\gnu tools arm embedded\6 2017-q2-update\arm-none-eabi\include\stdio.h **** #ifndef _REENT_ONLY
 339:c:\program files (x86)\gnu tools arm embedded\6 2017-q2-update\arm-none-eabi\include\stdio.h **** FILE *	_EXFUN(fdopen, (int, const char *));
 340:c:\program files (x86)\gnu tools arm embedded\6 2017-q2-update\arm-none-eabi\include\stdio.h **** #endif
 341:c:\program files (x86)\gnu tools arm embedded\6 2017-q2-update\arm-none-eabi\include\stdio.h **** int	_EXFUN(fileno, (FILE *));
 342:c:\program files (x86)\gnu tools arm embedded\6 2017-q2-update\arm-none-eabi\include\stdio.h **** #endif
 343:c:\program files (x86)\gnu tools arm embedded\6 2017-q2-update\arm-none-eabi\include\stdio.h **** #if __MISC_VISIBLE || __POSIX_VISIBLE >= 199209
 344:c:\program files (x86)\gnu tools arm embedded\6 2017-q2-update\arm-none-eabi\include\stdio.h **** int	_EXFUN(pclose, (FILE *));
 345:c:\program files (x86)\gnu tools arm embedded\6 2017-q2-update\arm-none-eabi\include\stdio.h **** FILE *  _EXFUN(popen, (const char *, const char *));
 346:c:\program files (x86)\gnu tools arm embedded\6 2017-q2-update\arm-none-eabi\include\stdio.h **** #endif
 347:c:\program files (x86)\gnu tools arm embedded\6 2017-q2-update\arm-none-eabi\include\stdio.h **** 
 348:c:\program files (x86)\gnu tools arm embedded\6 2017-q2-update\arm-none-eabi\include\stdio.h **** #if __BSD_VISIBLE
 349:c:\program files (x86)\gnu tools arm embedded\6 2017-q2-update\arm-none-eabi\include\stdio.h **** void    _EXFUN(setbuffer, (FILE *, char *, int));
 350:c:\program files (x86)\gnu tools arm embedded\6 2017-q2-update\arm-none-eabi\include\stdio.h **** int	_EXFUN(setlinebuf, (FILE *));
 351:c:\program files (x86)\gnu tools arm embedded\6 2017-q2-update\arm-none-eabi\include\stdio.h **** #endif
 352:c:\program files (x86)\gnu tools arm embedded\6 2017-q2-update\arm-none-eabi\include\stdio.h **** 
 353:c:\program files (x86)\gnu tools arm embedded\6 2017-q2-update\arm-none-eabi\include\stdio.h **** #if __MISC_VISIBLE || (__XSI_VISIBLE && __POSIX_VISIBLE < 200112)
 354:c:\program files (x86)\gnu tools arm embedded\6 2017-q2-update\arm-none-eabi\include\stdio.h **** int	_EXFUN(getw, (FILE *));
 355:c:\program files (x86)\gnu tools arm embedded\6 2017-q2-update\arm-none-eabi\include\stdio.h **** int	_EXFUN(putw, (int, FILE *));
 356:c:\program files (x86)\gnu tools arm embedded\6 2017-q2-update\arm-none-eabi\include\stdio.h **** #endif
 357:c:\program files (x86)\gnu tools arm embedded\6 2017-q2-update\arm-none-eabi\include\stdio.h **** #if __MISC_VISIBLE || __POSIX_VISIBLE
 358:c:\program files (x86)\gnu tools arm embedded\6 2017-q2-update\arm-none-eabi\include\stdio.h **** int	_EXFUN(getc_unlocked, (FILE *));
 359:c:\program files (x86)\gnu tools arm embedded\6 2017-q2-update\arm-none-eabi\include\stdio.h **** int	_EXFUN(getchar_unlocked, (void));
 360:c:\program files (x86)\gnu tools arm embedded\6 2017-q2-update\arm-none-eabi\include\stdio.h **** void	_EXFUN(flockfile, (FILE *));
 361:c:\program files (x86)\gnu tools arm embedded\6 2017-q2-update\arm-none-eabi\include\stdio.h **** int	_EXFUN(ftrylockfile, (FILE *));
 362:c:\program files (x86)\gnu tools arm embedded\6 2017-q2-update\arm-none-eabi\include\stdio.h **** void	_EXFUN(funlockfile, (FILE *));
 363:c:\program files (x86)\gnu tools arm embedded\6 2017-q2-update\arm-none-eabi\include\stdio.h **** int	_EXFUN(putc_unlocked, (int, FILE *));
 364:c:\program files (x86)\gnu tools arm embedded\6 2017-q2-update\arm-none-eabi\include\stdio.h **** int	_EXFUN(putchar_unlocked, (int));
 365:c:\program files (x86)\gnu tools arm embedded\6 2017-q2-update\arm-none-eabi\include\stdio.h **** #endif
 366:c:\program files (x86)\gnu tools arm embedded\6 2017-q2-update\arm-none-eabi\include\stdio.h **** 
 367:c:\program files (x86)\gnu tools arm embedded\6 2017-q2-update\arm-none-eabi\include\stdio.h **** /*
 368:c:\program files (x86)\gnu tools arm embedded\6 2017-q2-update\arm-none-eabi\include\stdio.h ****  * Routines in POSIX 1003.1:200x.
 369:c:\program files (x86)\gnu tools arm embedded\6 2017-q2-update\arm-none-eabi\include\stdio.h ****  */
 370:c:\program files (x86)\gnu tools arm embedded\6 2017-q2-update\arm-none-eabi\include\stdio.h **** 
 371:c:\program files (x86)\gnu tools arm embedded\6 2017-q2-update\arm-none-eabi\include\stdio.h **** #if __POSIX_VISIBLE >= 200809
 372:c:\program files (x86)\gnu tools arm embedded\6 2017-q2-update\arm-none-eabi\include\stdio.h **** # ifndef _REENT_ONLY
 373:c:\program files (x86)\gnu tools arm embedded\6 2017-q2-update\arm-none-eabi\include\stdio.h **** #  ifndef dprintf
 374:c:\program files (x86)\gnu tools arm embedded\6 2017-q2-update\arm-none-eabi\include\stdio.h **** int	_EXFUN(dprintf, (int, const char *__restrict, ...)
 375:c:\program files (x86)\gnu tools arm embedded\6 2017-q2-update\arm-none-eabi\include\stdio.h ****                _ATTRIBUTE ((__format__ (__printf__, 2, 3))));
 376:c:\program files (x86)\gnu tools arm embedded\6 2017-q2-update\arm-none-eabi\include\stdio.h **** #  endif
 377:c:\program files (x86)\gnu tools arm embedded\6 2017-q2-update\arm-none-eabi\include\stdio.h **** FILE *	_EXFUN(fmemopen, (void *__restrict, size_t, const char *__restrict));
 378:c:\program files (x86)\gnu tools arm embedded\6 2017-q2-update\arm-none-eabi\include\stdio.h **** /* getdelim - see __getdelim for now */
 379:c:\program files (x86)\gnu tools arm embedded\6 2017-q2-update\arm-none-eabi\include\stdio.h **** /* getline - see __getline for now */
 380:c:\program files (x86)\gnu tools arm embedded\6 2017-q2-update\arm-none-eabi\include\stdio.h **** FILE *	_EXFUN(open_memstream, (char **, size_t *));
 381:c:\program files (x86)\gnu tools arm embedded\6 2017-q2-update\arm-none-eabi\include\stdio.h **** int	_EXFUN(vdprintf, (int, const char *__restrict, __VALIST)
 382:c:\program files (x86)\gnu tools arm embedded\6 2017-q2-update\arm-none-eabi\include\stdio.h ****                _ATTRIBUTE ((__format__ (__printf__, 2, 0))));
 383:c:\program files (x86)\gnu tools arm embedded\6 2017-q2-update\arm-none-eabi\include\stdio.h **** # endif
 384:c:\program files (x86)\gnu tools arm embedded\6 2017-q2-update\arm-none-eabi\include\stdio.h **** #endif
 385:c:\program files (x86)\gnu tools arm embedded\6 2017-q2-update\arm-none-eabi\include\stdio.h **** #if __ATFILE_VISIBLE
 386:c:\program files (x86)\gnu tools arm embedded\6 2017-q2-update\arm-none-eabi\include\stdio.h **** int	_EXFUN(renameat, (int, const char *, int, const char *));
 387:c:\program files (x86)\gnu tools arm embedded\6 2017-q2-update\arm-none-eabi\include\stdio.h **** #endif
 388:c:\program files (x86)\gnu tools arm embedded\6 2017-q2-update\arm-none-eabi\include\stdio.h **** 
 389:c:\program files (x86)\gnu tools arm embedded\6 2017-q2-update\arm-none-eabi\include\stdio.h **** /*
 390:c:\program files (x86)\gnu tools arm embedded\6 2017-q2-update\arm-none-eabi\include\stdio.h ****  * Recursive versions of the above.
 391:c:\program files (x86)\gnu tools arm embedded\6 2017-q2-update\arm-none-eabi\include\stdio.h ****  */
 392:c:\program files (x86)\gnu tools arm embedded\6 2017-q2-update\arm-none-eabi\include\stdio.h **** 
 393:c:\program files (x86)\gnu tools arm embedded\6 2017-q2-update\arm-none-eabi\include\stdio.h **** int	_EXFUN(_asiprintf_r, (struct _reent *, char **, const char *, ...)
 394:c:\program files (x86)\gnu tools arm embedded\6 2017-q2-update\arm-none-eabi\include\stdio.h ****                _ATTRIBUTE ((__format__ (__printf__, 3, 4))));
 395:c:\program files (x86)\gnu tools arm embedded\6 2017-q2-update\arm-none-eabi\include\stdio.h **** char *	_EXFUN(_asniprintf_r, (struct _reent *, char *, size_t *, const char *, ...)
 396:c:\program files (x86)\gnu tools arm embedded\6 2017-q2-update\arm-none-eabi\include\stdio.h ****                _ATTRIBUTE ((__format__ (__printf__, 4, 5))));
 397:c:\program files (x86)\gnu tools arm embedded\6 2017-q2-update\arm-none-eabi\include\stdio.h **** char *	_EXFUN(_asnprintf_r, (struct _reent *, char *__restrict, size_t *__restrict, const char *__r
 398:c:\program files (x86)\gnu tools arm embedded\6 2017-q2-update\arm-none-eabi\include\stdio.h ****                _ATTRIBUTE ((__format__ (__printf__, 4, 5))));
 399:c:\program files (x86)\gnu tools arm embedded\6 2017-q2-update\arm-none-eabi\include\stdio.h **** int	_EXFUN(_asprintf_r, (struct _reent *, char **__restrict, const char *__restrict, ...)
 400:c:\program files (x86)\gnu tools arm embedded\6 2017-q2-update\arm-none-eabi\include\stdio.h ****                _ATTRIBUTE ((__format__ (__printf__, 3, 4))));
 401:c:\program files (x86)\gnu tools arm embedded\6 2017-q2-update\arm-none-eabi\include\stdio.h **** int	_EXFUN(_diprintf_r, (struct _reent *, int, const char *, ...)
 402:c:\program files (x86)\gnu tools arm embedded\6 2017-q2-update\arm-none-eabi\include\stdio.h ****                _ATTRIBUTE ((__format__ (__printf__, 3, 4))));
 403:c:\program files (x86)\gnu tools arm embedded\6 2017-q2-update\arm-none-eabi\include\stdio.h **** int	_EXFUN(_dprintf_r, (struct _reent *, int, const char *__restrict, ...)
 404:c:\program files (x86)\gnu tools arm embedded\6 2017-q2-update\arm-none-eabi\include\stdio.h ****                _ATTRIBUTE ((__format__ (__printf__, 3, 4))));
 405:c:\program files (x86)\gnu tools arm embedded\6 2017-q2-update\arm-none-eabi\include\stdio.h **** int	_EXFUN(_fclose_r, (struct _reent *, FILE *));
 406:c:\program files (x86)\gnu tools arm embedded\6 2017-q2-update\arm-none-eabi\include\stdio.h **** int	_EXFUN(_fcloseall_r, (struct _reent *));
 407:c:\program files (x86)\gnu tools arm embedded\6 2017-q2-update\arm-none-eabi\include\stdio.h **** FILE *	_EXFUN(_fdopen_r, (struct _reent *, int, const char *));
 408:c:\program files (x86)\gnu tools arm embedded\6 2017-q2-update\arm-none-eabi\include\stdio.h **** int	_EXFUN(_fflush_r, (struct _reent *, FILE *));
 409:c:\program files (x86)\gnu tools arm embedded\6 2017-q2-update\arm-none-eabi\include\stdio.h **** int	_EXFUN(_fgetc_r, (struct _reent *, FILE *));
 410:c:\program files (x86)\gnu tools arm embedded\6 2017-q2-update\arm-none-eabi\include\stdio.h **** int	_EXFUN(_fgetc_unlocked_r, (struct _reent *, FILE *));
 411:c:\program files (x86)\gnu tools arm embedded\6 2017-q2-update\arm-none-eabi\include\stdio.h **** char *  _EXFUN(_fgets_r, (struct _reent *, char *__restrict, int, FILE *__restrict));
 412:c:\program files (x86)\gnu tools arm embedded\6 2017-q2-update\arm-none-eabi\include\stdio.h **** char *  _EXFUN(_fgets_unlocked_r, (struct _reent *, char *__restrict, int, FILE *__restrict));
 413:c:\program files (x86)\gnu tools arm embedded\6 2017-q2-update\arm-none-eabi\include\stdio.h **** #ifdef _COMPILING_NEWLIB
 414:c:\program files (x86)\gnu tools arm embedded\6 2017-q2-update\arm-none-eabi\include\stdio.h **** int	_EXFUN(_fgetpos_r, (struct _reent *, FILE *__restrict, _fpos_t *__restrict));
 415:c:\program files (x86)\gnu tools arm embedded\6 2017-q2-update\arm-none-eabi\include\stdio.h **** int	_EXFUN(_fsetpos_r, (struct _reent *, FILE *, const _fpos_t *));
 416:c:\program files (x86)\gnu tools arm embedded\6 2017-q2-update\arm-none-eabi\include\stdio.h **** #else
 417:c:\program files (x86)\gnu tools arm embedded\6 2017-q2-update\arm-none-eabi\include\stdio.h **** int	_EXFUN(_fgetpos_r, (struct _reent *, FILE *, fpos_t *));
 418:c:\program files (x86)\gnu tools arm embedded\6 2017-q2-update\arm-none-eabi\include\stdio.h **** int	_EXFUN(_fsetpos_r, (struct _reent *, FILE *, const fpos_t *));
 419:c:\program files (x86)\gnu tools arm embedded\6 2017-q2-update\arm-none-eabi\include\stdio.h **** #endif
 420:c:\program files (x86)\gnu tools arm embedded\6 2017-q2-update\arm-none-eabi\include\stdio.h **** int	_EXFUN(_fiprintf_r, (struct _reent *, FILE *, const char *, ...)
 421:c:\program files (x86)\gnu tools arm embedded\6 2017-q2-update\arm-none-eabi\include\stdio.h ****                _ATTRIBUTE ((__format__ (__printf__, 3, 4))));
 422:c:\program files (x86)\gnu tools arm embedded\6 2017-q2-update\arm-none-eabi\include\stdio.h **** int	_EXFUN(_fiscanf_r, (struct _reent *, FILE *, const char *, ...)
 423:c:\program files (x86)\gnu tools arm embedded\6 2017-q2-update\arm-none-eabi\include\stdio.h ****                _ATTRIBUTE ((__format__ (__scanf__, 3, 4))));
 424:c:\program files (x86)\gnu tools arm embedded\6 2017-q2-update\arm-none-eabi\include\stdio.h **** FILE *	_EXFUN(_fmemopen_r, (struct _reent *, void *__restrict, size_t, const char *__restrict));
 425:c:\program files (x86)\gnu tools arm embedded\6 2017-q2-update\arm-none-eabi\include\stdio.h **** FILE *	_EXFUN(_fopen_r, (struct _reent *, const char *__restrict, const char *__restrict));
 426:c:\program files (x86)\gnu tools arm embedded\6 2017-q2-update\arm-none-eabi\include\stdio.h **** FILE *	_EXFUN(_freopen_r, (struct _reent *, const char *__restrict, const char *__restrict, FILE *_
 427:c:\program files (x86)\gnu tools arm embedded\6 2017-q2-update\arm-none-eabi\include\stdio.h **** int	_EXFUN(_fprintf_r, (struct _reent *, FILE *__restrict, const char *__restrict, ...)
 428:c:\program files (x86)\gnu tools arm embedded\6 2017-q2-update\arm-none-eabi\include\stdio.h ****                _ATTRIBUTE ((__format__ (__printf__, 3, 4))));
 429:c:\program files (x86)\gnu tools arm embedded\6 2017-q2-update\arm-none-eabi\include\stdio.h **** int	_EXFUN(_fpurge_r, (struct _reent *, FILE *));
 430:c:\program files (x86)\gnu tools arm embedded\6 2017-q2-update\arm-none-eabi\include\stdio.h **** int	_EXFUN(_fputc_r, (struct _reent *, int, FILE *));
 431:c:\program files (x86)\gnu tools arm embedded\6 2017-q2-update\arm-none-eabi\include\stdio.h **** int	_EXFUN(_fputc_unlocked_r, (struct _reent *, int, FILE *));
 432:c:\program files (x86)\gnu tools arm embedded\6 2017-q2-update\arm-none-eabi\include\stdio.h **** int	_EXFUN(_fputs_r, (struct _reent *, const char *__restrict, FILE *__restrict));
 433:c:\program files (x86)\gnu tools arm embedded\6 2017-q2-update\arm-none-eabi\include\stdio.h **** int	_EXFUN(_fputs_unlocked_r, (struct _reent *, const char *__restrict, FILE *__restrict));
 434:c:\program files (x86)\gnu tools arm embedded\6 2017-q2-update\arm-none-eabi\include\stdio.h **** size_t	_EXFUN(_fread_r, (struct _reent *, _PTR __restrict, size_t _size, size_t _n, FILE *__restric
 435:c:\program files (x86)\gnu tools arm embedded\6 2017-q2-update\arm-none-eabi\include\stdio.h **** size_t	_EXFUN(_fread_unlocked_r, (struct _reent *, _PTR __restrict, size_t _size, size_t _n, FILE *
 436:c:\program files (x86)\gnu tools arm embedded\6 2017-q2-update\arm-none-eabi\include\stdio.h **** int	_EXFUN(_fscanf_r, (struct _reent *, FILE *__restrict, const char *__restrict, ...)
 437:c:\program files (x86)\gnu tools arm embedded\6 2017-q2-update\arm-none-eabi\include\stdio.h ****                _ATTRIBUTE ((__format__ (__scanf__, 3, 4))));
 438:c:\program files (x86)\gnu tools arm embedded\6 2017-q2-update\arm-none-eabi\include\stdio.h **** int	_EXFUN(_fseek_r, (struct _reent *, FILE *, long, int));
 439:c:\program files (x86)\gnu tools arm embedded\6 2017-q2-update\arm-none-eabi\include\stdio.h **** int	_EXFUN(_fseeko_r,(struct _reent *, FILE *, _off_t, int));
 440:c:\program files (x86)\gnu tools arm embedded\6 2017-q2-update\arm-none-eabi\include\stdio.h **** long	_EXFUN(_ftell_r, (struct _reent *, FILE *));
 441:c:\program files (x86)\gnu tools arm embedded\6 2017-q2-update\arm-none-eabi\include\stdio.h **** _off_t	_EXFUN(_ftello_r,(struct _reent *, FILE *));
 442:c:\program files (x86)\gnu tools arm embedded\6 2017-q2-update\arm-none-eabi\include\stdio.h **** void	_EXFUN(_rewind_r, (struct _reent *, FILE *));
 443:c:\program files (x86)\gnu tools arm embedded\6 2017-q2-update\arm-none-eabi\include\stdio.h **** size_t	_EXFUN(_fwrite_r, (struct _reent *, const _PTR __restrict, size_t _size, size_t _n, FILE *__
 444:c:\program files (x86)\gnu tools arm embedded\6 2017-q2-update\arm-none-eabi\include\stdio.h **** size_t	_EXFUN(_fwrite_unlocked_r, (struct _reent *, const _PTR __restrict, size_t _size, size_t _n,
 445:c:\program files (x86)\gnu tools arm embedded\6 2017-q2-update\arm-none-eabi\include\stdio.h **** int	_EXFUN(_getc_r, (struct _reent *, FILE *));
 446:c:\program files (x86)\gnu tools arm embedded\6 2017-q2-update\arm-none-eabi\include\stdio.h **** int	_EXFUN(_getc_unlocked_r, (struct _reent *, FILE *));
 447:c:\program files (x86)\gnu tools arm embedded\6 2017-q2-update\arm-none-eabi\include\stdio.h **** int	_EXFUN(_getchar_r, (struct _reent *));
 448:c:\program files (x86)\gnu tools arm embedded\6 2017-q2-update\arm-none-eabi\include\stdio.h **** int	_EXFUN(_getchar_unlocked_r, (struct _reent *));
 449:c:\program files (x86)\gnu tools arm embedded\6 2017-q2-update\arm-none-eabi\include\stdio.h **** char *	_EXFUN(_gets_r, (struct _reent *, char *));
 450:c:\program files (x86)\gnu tools arm embedded\6 2017-q2-update\arm-none-eabi\include\stdio.h **** int	_EXFUN(_iprintf_r, (struct _reent *, const char *, ...)
 451:c:\program files (x86)\gnu tools arm embedded\6 2017-q2-update\arm-none-eabi\include\stdio.h ****                _ATTRIBUTE ((__format__ (__printf__, 2, 3))));
 452:c:\program files (x86)\gnu tools arm embedded\6 2017-q2-update\arm-none-eabi\include\stdio.h **** int	_EXFUN(_iscanf_r, (struct _reent *, const char *, ...)
 453:c:\program files (x86)\gnu tools arm embedded\6 2017-q2-update\arm-none-eabi\include\stdio.h ****                _ATTRIBUTE ((__format__ (__scanf__, 2, 3))));
 454:c:\program files (x86)\gnu tools arm embedded\6 2017-q2-update\arm-none-eabi\include\stdio.h **** FILE *	_EXFUN(_open_memstream_r, (struct _reent *, char **, size_t *));
 455:c:\program files (x86)\gnu tools arm embedded\6 2017-q2-update\arm-none-eabi\include\stdio.h **** void	_EXFUN(_perror_r, (struct _reent *, const char *));
 456:c:\program files (x86)\gnu tools arm embedded\6 2017-q2-update\arm-none-eabi\include\stdio.h **** int	_EXFUN(_printf_r, (struct _reent *, const char *__restrict, ...)
 457:c:\program files (x86)\gnu tools arm embedded\6 2017-q2-update\arm-none-eabi\include\stdio.h ****                _ATTRIBUTE ((__format__ (__printf__, 2, 3))));
 458:c:\program files (x86)\gnu tools arm embedded\6 2017-q2-update\arm-none-eabi\include\stdio.h **** int	_EXFUN(_putc_r, (struct _reent *, int, FILE *));
 459:c:\program files (x86)\gnu tools arm embedded\6 2017-q2-update\arm-none-eabi\include\stdio.h **** int	_EXFUN(_putc_unlocked_r, (struct _reent *, int, FILE *));
 460:c:\program files (x86)\gnu tools arm embedded\6 2017-q2-update\arm-none-eabi\include\stdio.h **** int	_EXFUN(_putchar_unlocked_r, (struct _reent *, int));
 461:c:\program files (x86)\gnu tools arm embedded\6 2017-q2-update\arm-none-eabi\include\stdio.h **** int	_EXFUN(_putchar_r, (struct _reent *, int));
 462:c:\program files (x86)\gnu tools arm embedded\6 2017-q2-update\arm-none-eabi\include\stdio.h **** int	_EXFUN(_puts_r, (struct _reent *, const char *));
 463:c:\program files (x86)\gnu tools arm embedded\6 2017-q2-update\arm-none-eabi\include\stdio.h **** int	_EXFUN(_remove_r, (struct _reent *, const char *));
 464:c:\program files (x86)\gnu tools arm embedded\6 2017-q2-update\arm-none-eabi\include\stdio.h **** int	_EXFUN(_rename_r, (struct _reent *,
 465:c:\program files (x86)\gnu tools arm embedded\6 2017-q2-update\arm-none-eabi\include\stdio.h **** 			   const char *_old, const char *_new));
 466:c:\program files (x86)\gnu tools arm embedded\6 2017-q2-update\arm-none-eabi\include\stdio.h **** int	_EXFUN(_scanf_r, (struct _reent *, const char *__restrict, ...)
 467:c:\program files (x86)\gnu tools arm embedded\6 2017-q2-update\arm-none-eabi\include\stdio.h ****                _ATTRIBUTE ((__format__ (__scanf__, 2, 3))));
 468:c:\program files (x86)\gnu tools arm embedded\6 2017-q2-update\arm-none-eabi\include\stdio.h **** int	_EXFUN(_siprintf_r, (struct _reent *, char *, const char *, ...)
 469:c:\program files (x86)\gnu tools arm embedded\6 2017-q2-update\arm-none-eabi\include\stdio.h ****                _ATTRIBUTE ((__format__ (__printf__, 3, 4))));
 470:c:\program files (x86)\gnu tools arm embedded\6 2017-q2-update\arm-none-eabi\include\stdio.h **** int	_EXFUN(_siscanf_r, (struct _reent *, const char *, const char *, ...)
 471:c:\program files (x86)\gnu tools arm embedded\6 2017-q2-update\arm-none-eabi\include\stdio.h ****                _ATTRIBUTE ((__format__ (__scanf__, 3, 4))));
 472:c:\program files (x86)\gnu tools arm embedded\6 2017-q2-update\arm-none-eabi\include\stdio.h **** int	_EXFUN(_sniprintf_r, (struct _reent *, char *, size_t, const char *, ...)
 473:c:\program files (x86)\gnu tools arm embedded\6 2017-q2-update\arm-none-eabi\include\stdio.h ****                _ATTRIBUTE ((__format__ (__printf__, 4, 5))));
 474:c:\program files (x86)\gnu tools arm embedded\6 2017-q2-update\arm-none-eabi\include\stdio.h **** int	_EXFUN(_snprintf_r, (struct _reent *, char *__restrict, size_t, const char *__restrict, ...)
 475:c:\program files (x86)\gnu tools arm embedded\6 2017-q2-update\arm-none-eabi\include\stdio.h ****                _ATTRIBUTE ((__format__ (__printf__, 4, 5))));
 476:c:\program files (x86)\gnu tools arm embedded\6 2017-q2-update\arm-none-eabi\include\stdio.h **** int	_EXFUN(_sprintf_r, (struct _reent *, char *__restrict, const char *__restrict, ...)
 477:c:\program files (x86)\gnu tools arm embedded\6 2017-q2-update\arm-none-eabi\include\stdio.h ****                _ATTRIBUTE ((__format__ (__printf__, 3, 4))));
 478:c:\program files (x86)\gnu tools arm embedded\6 2017-q2-update\arm-none-eabi\include\stdio.h **** int	_EXFUN(_sscanf_r, (struct _reent *, const char *__restrict, const char *__restrict, ...)
 479:c:\program files (x86)\gnu tools arm embedded\6 2017-q2-update\arm-none-eabi\include\stdio.h ****                _ATTRIBUTE ((__format__ (__scanf__, 3, 4))));
 480:c:\program files (x86)\gnu tools arm embedded\6 2017-q2-update\arm-none-eabi\include\stdio.h **** char *	_EXFUN(_tempnam_r, (struct _reent *, const char *, const char *));
 481:c:\program files (x86)\gnu tools arm embedded\6 2017-q2-update\arm-none-eabi\include\stdio.h **** FILE *	_EXFUN(_tmpfile_r, (struct _reent *));
 482:c:\program files (x86)\gnu tools arm embedded\6 2017-q2-update\arm-none-eabi\include\stdio.h **** char *	_EXFUN(_tmpnam_r, (struct _reent *, char *));
 483:c:\program files (x86)\gnu tools arm embedded\6 2017-q2-update\arm-none-eabi\include\stdio.h **** int	_EXFUN(_ungetc_r, (struct _reent *, int, FILE *));
 484:c:\program files (x86)\gnu tools arm embedded\6 2017-q2-update\arm-none-eabi\include\stdio.h **** int	_EXFUN(_vasiprintf_r, (struct _reent *, char **, const char *, __VALIST)
 485:c:\program files (x86)\gnu tools arm embedded\6 2017-q2-update\arm-none-eabi\include\stdio.h ****                _ATTRIBUTE ((__format__ (__printf__, 3, 0))));
 486:c:\program files (x86)\gnu tools arm embedded\6 2017-q2-update\arm-none-eabi\include\stdio.h **** char *	_EXFUN(_vasniprintf_r, (struct _reent*, char *, size_t *, const char *, __VALIST)
 487:c:\program files (x86)\gnu tools arm embedded\6 2017-q2-update\arm-none-eabi\include\stdio.h ****                _ATTRIBUTE ((__format__ (__printf__, 4, 0))));
 488:c:\program files (x86)\gnu tools arm embedded\6 2017-q2-update\arm-none-eabi\include\stdio.h **** char *	_EXFUN(_vasnprintf_r, (struct _reent*, char *, size_t *, const char *, __VALIST)
 489:c:\program files (x86)\gnu tools arm embedded\6 2017-q2-update\arm-none-eabi\include\stdio.h ****                _ATTRIBUTE ((__format__ (__printf__, 4, 0))));
 490:c:\program files (x86)\gnu tools arm embedded\6 2017-q2-update\arm-none-eabi\include\stdio.h **** int	_EXFUN(_vasprintf_r, (struct _reent *, char **, const char *, __VALIST)
 491:c:\program files (x86)\gnu tools arm embedded\6 2017-q2-update\arm-none-eabi\include\stdio.h ****                _ATTRIBUTE ((__format__ (__printf__, 3, 0))));
 492:c:\program files (x86)\gnu tools arm embedded\6 2017-q2-update\arm-none-eabi\include\stdio.h **** int	_EXFUN(_vdiprintf_r, (struct _reent *, int, const char *, __VALIST)
 493:c:\program files (x86)\gnu tools arm embedded\6 2017-q2-update\arm-none-eabi\include\stdio.h ****                _ATTRIBUTE ((__format__ (__printf__, 3, 0))));
 494:c:\program files (x86)\gnu tools arm embedded\6 2017-q2-update\arm-none-eabi\include\stdio.h **** int	_EXFUN(_vdprintf_r, (struct _reent *, int, const char *__restrict, __VALIST)
 495:c:\program files (x86)\gnu tools arm embedded\6 2017-q2-update\arm-none-eabi\include\stdio.h ****                _ATTRIBUTE ((__format__ (__printf__, 3, 0))));
 496:c:\program files (x86)\gnu tools arm embedded\6 2017-q2-update\arm-none-eabi\include\stdio.h **** int	_EXFUN(_vfiprintf_r, (struct _reent *, FILE *, const char *, __VALIST)
 497:c:\program files (x86)\gnu tools arm embedded\6 2017-q2-update\arm-none-eabi\include\stdio.h ****                _ATTRIBUTE ((__format__ (__printf__, 3, 0))));
 498:c:\program files (x86)\gnu tools arm embedded\6 2017-q2-update\arm-none-eabi\include\stdio.h **** int	_EXFUN(_vfiscanf_r, (struct _reent *, FILE *, const char *, __VALIST)
 499:c:\program files (x86)\gnu tools arm embedded\6 2017-q2-update\arm-none-eabi\include\stdio.h ****                _ATTRIBUTE ((__format__ (__scanf__, 3, 0))));
 500:c:\program files (x86)\gnu tools arm embedded\6 2017-q2-update\arm-none-eabi\include\stdio.h **** int	_EXFUN(_vfprintf_r, (struct _reent *, FILE *__restrict, const char *__restrict, __VALIST)
 501:c:\program files (x86)\gnu tools arm embedded\6 2017-q2-update\arm-none-eabi\include\stdio.h ****                _ATTRIBUTE ((__format__ (__printf__, 3, 0))));
 502:c:\program files (x86)\gnu tools arm embedded\6 2017-q2-update\arm-none-eabi\include\stdio.h **** int	_EXFUN(_vfscanf_r, (struct _reent *, FILE *__restrict, const char *__restrict, __VALIST)
 503:c:\program files (x86)\gnu tools arm embedded\6 2017-q2-update\arm-none-eabi\include\stdio.h ****                _ATTRIBUTE ((__format__ (__scanf__, 3, 0))));
 504:c:\program files (x86)\gnu tools arm embedded\6 2017-q2-update\arm-none-eabi\include\stdio.h **** int	_EXFUN(_viprintf_r, (struct _reent *, const char *, __VALIST)
 505:c:\program files (x86)\gnu tools arm embedded\6 2017-q2-update\arm-none-eabi\include\stdio.h ****                _ATTRIBUTE ((__format__ (__printf__, 2, 0))));
 506:c:\program files (x86)\gnu tools arm embedded\6 2017-q2-update\arm-none-eabi\include\stdio.h **** int	_EXFUN(_viscanf_r, (struct _reent *, const char *, __VALIST)
 507:c:\program files (x86)\gnu tools arm embedded\6 2017-q2-update\arm-none-eabi\include\stdio.h ****                _ATTRIBUTE ((__format__ (__scanf__, 2, 0))));
 508:c:\program files (x86)\gnu tools arm embedded\6 2017-q2-update\arm-none-eabi\include\stdio.h **** int	_EXFUN(_vprintf_r, (struct _reent *, const char *__restrict, __VALIST)
 509:c:\program files (x86)\gnu tools arm embedded\6 2017-q2-update\arm-none-eabi\include\stdio.h ****                _ATTRIBUTE ((__format__ (__printf__, 2, 0))));
 510:c:\program files (x86)\gnu tools arm embedded\6 2017-q2-update\arm-none-eabi\include\stdio.h **** int	_EXFUN(_vscanf_r, (struct _reent *, const char *__restrict, __VALIST)
 511:c:\program files (x86)\gnu tools arm embedded\6 2017-q2-update\arm-none-eabi\include\stdio.h ****                _ATTRIBUTE ((__format__ (__scanf__, 2, 0))));
 512:c:\program files (x86)\gnu tools arm embedded\6 2017-q2-update\arm-none-eabi\include\stdio.h **** int	_EXFUN(_vsiprintf_r, (struct _reent *, char *, const char *, __VALIST)
 513:c:\program files (x86)\gnu tools arm embedded\6 2017-q2-update\arm-none-eabi\include\stdio.h ****                _ATTRIBUTE ((__format__ (__printf__, 3, 0))));
 514:c:\program files (x86)\gnu tools arm embedded\6 2017-q2-update\arm-none-eabi\include\stdio.h **** int	_EXFUN(_vsiscanf_r, (struct _reent *, const char *, const char *, __VALIST)
 515:c:\program files (x86)\gnu tools arm embedded\6 2017-q2-update\arm-none-eabi\include\stdio.h ****                _ATTRIBUTE ((__format__ (__scanf__, 3, 0))));
 516:c:\program files (x86)\gnu tools arm embedded\6 2017-q2-update\arm-none-eabi\include\stdio.h **** int	_EXFUN(_vsniprintf_r, (struct _reent *, char *, size_t, const char *, __VALIST)
 517:c:\program files (x86)\gnu tools arm embedded\6 2017-q2-update\arm-none-eabi\include\stdio.h ****                _ATTRIBUTE ((__format__ (__printf__, 4, 0))));
 518:c:\program files (x86)\gnu tools arm embedded\6 2017-q2-update\arm-none-eabi\include\stdio.h **** int	_EXFUN(_vsnprintf_r, (struct _reent *, char *__restrict, size_t, const char *__restrict, __VALI
 519:c:\program files (x86)\gnu tools arm embedded\6 2017-q2-update\arm-none-eabi\include\stdio.h ****                _ATTRIBUTE ((__format__ (__printf__, 4, 0))));
 520:c:\program files (x86)\gnu tools arm embedded\6 2017-q2-update\arm-none-eabi\include\stdio.h **** int	_EXFUN(_vsprintf_r, (struct _reent *, char *__restrict, const char *__restrict, __VALIST)
 521:c:\program files (x86)\gnu tools arm embedded\6 2017-q2-update\arm-none-eabi\include\stdio.h ****                _ATTRIBUTE ((__format__ (__printf__, 3, 0))));
 522:c:\program files (x86)\gnu tools arm embedded\6 2017-q2-update\arm-none-eabi\include\stdio.h **** int	_EXFUN(_vsscanf_r, (struct _reent *, const char *__restrict, const char *__restrict, __VALIST)
 523:c:\program files (x86)\gnu tools arm embedded\6 2017-q2-update\arm-none-eabi\include\stdio.h ****                _ATTRIBUTE ((__format__ (__scanf__, 3, 0))));
 524:c:\program files (x86)\gnu tools arm embedded\6 2017-q2-update\arm-none-eabi\include\stdio.h **** 
 525:c:\program files (x86)\gnu tools arm embedded\6 2017-q2-update\arm-none-eabi\include\stdio.h **** /* Other extensions.  */
 526:c:\program files (x86)\gnu tools arm embedded\6 2017-q2-update\arm-none-eabi\include\stdio.h **** 
 527:c:\program files (x86)\gnu tools arm embedded\6 2017-q2-update\arm-none-eabi\include\stdio.h **** int	_EXFUN(fpurge, (FILE *));
 528:c:\program files (x86)\gnu tools arm embedded\6 2017-q2-update\arm-none-eabi\include\stdio.h **** ssize_t _EXFUN(__getdelim, (char **, size_t *, int, FILE *));
 529:c:\program files (x86)\gnu tools arm embedded\6 2017-q2-update\arm-none-eabi\include\stdio.h **** ssize_t _EXFUN(__getline, (char **, size_t *, FILE *));
 530:c:\program files (x86)\gnu tools arm embedded\6 2017-q2-update\arm-none-eabi\include\stdio.h **** 
 531:c:\program files (x86)\gnu tools arm embedded\6 2017-q2-update\arm-none-eabi\include\stdio.h **** #if __MISC_VISIBLE
 532:c:\program files (x86)\gnu tools arm embedded\6 2017-q2-update\arm-none-eabi\include\stdio.h **** void	_EXFUN(clearerr_unlocked, (FILE *));
 533:c:\program files (x86)\gnu tools arm embedded\6 2017-q2-update\arm-none-eabi\include\stdio.h **** int	_EXFUN(feof_unlocked, (FILE *));
 534:c:\program files (x86)\gnu tools arm embedded\6 2017-q2-update\arm-none-eabi\include\stdio.h **** int	_EXFUN(ferror_unlocked, (FILE *));
 535:c:\program files (x86)\gnu tools arm embedded\6 2017-q2-update\arm-none-eabi\include\stdio.h **** int	_EXFUN(fileno_unlocked, (FILE *));
 536:c:\program files (x86)\gnu tools arm embedded\6 2017-q2-update\arm-none-eabi\include\stdio.h **** int	_EXFUN(fflush_unlocked, (FILE *));
 537:c:\program files (x86)\gnu tools arm embedded\6 2017-q2-update\arm-none-eabi\include\stdio.h **** int	_EXFUN(fgetc_unlocked, (FILE *));
 538:c:\program files (x86)\gnu tools arm embedded\6 2017-q2-update\arm-none-eabi\include\stdio.h **** int	_EXFUN(fputc_unlocked, (int, FILE *));
 539:c:\program files (x86)\gnu tools arm embedded\6 2017-q2-update\arm-none-eabi\include\stdio.h **** size_t	_EXFUN(fread_unlocked, (_PTR __restrict, size_t _size, size_t _n, FILE *__restrict));
 540:c:\program files (x86)\gnu tools arm embedded\6 2017-q2-update\arm-none-eabi\include\stdio.h **** size_t	_EXFUN(fwrite_unlocked, (const _PTR __restrict , size_t _size, size_t _n, FILE *));
 541:c:\program files (x86)\gnu tools arm embedded\6 2017-q2-update\arm-none-eabi\include\stdio.h **** #endif
 542:c:\program files (x86)\gnu tools arm embedded\6 2017-q2-update\arm-none-eabi\include\stdio.h **** 
 543:c:\program files (x86)\gnu tools arm embedded\6 2017-q2-update\arm-none-eabi\include\stdio.h **** #if __GNU_VISIBLE
 544:c:\program files (x86)\gnu tools arm embedded\6 2017-q2-update\arm-none-eabi\include\stdio.h **** char *  _EXFUN(fgets_unlocked, (char *__restrict, int, FILE *__restrict));
 545:c:\program files (x86)\gnu tools arm embedded\6 2017-q2-update\arm-none-eabi\include\stdio.h **** int	_EXFUN(fputs_unlocked, (const char *__restrict, FILE *__restrict));
 546:c:\program files (x86)\gnu tools arm embedded\6 2017-q2-update\arm-none-eabi\include\stdio.h **** #endif
 547:c:\program files (x86)\gnu tools arm embedded\6 2017-q2-update\arm-none-eabi\include\stdio.h **** 
 548:c:\program files (x86)\gnu tools arm embedded\6 2017-q2-update\arm-none-eabi\include\stdio.h **** #ifdef __LARGE64_FILES
 549:c:\program files (x86)\gnu tools arm embedded\6 2017-q2-update\arm-none-eabi\include\stdio.h **** #if !defined(__CYGWIN__) || defined(_COMPILING_NEWLIB)
 550:c:\program files (x86)\gnu tools arm embedded\6 2017-q2-update\arm-none-eabi\include\stdio.h **** FILE *	_EXFUN(fdopen64, (int, const char *));
 551:c:\program files (x86)\gnu tools arm embedded\6 2017-q2-update\arm-none-eabi\include\stdio.h **** FILE *  _EXFUN(fopen64, (const char *, const char *));
 552:c:\program files (x86)\gnu tools arm embedded\6 2017-q2-update\arm-none-eabi\include\stdio.h **** FILE *  _EXFUN(freopen64, (_CONST char *, _CONST char *, FILE *));
 553:c:\program files (x86)\gnu tools arm embedded\6 2017-q2-update\arm-none-eabi\include\stdio.h **** _off64_t _EXFUN(ftello64, (FILE *));
 554:c:\program files (x86)\gnu tools arm embedded\6 2017-q2-update\arm-none-eabi\include\stdio.h **** _off64_t _EXFUN(fseeko64, (FILE *, _off64_t, int));
 555:c:\program files (x86)\gnu tools arm embedded\6 2017-q2-update\arm-none-eabi\include\stdio.h **** int     _EXFUN(fgetpos64, (FILE *, _fpos64_t *));
 556:c:\program files (x86)\gnu tools arm embedded\6 2017-q2-update\arm-none-eabi\include\stdio.h **** int     _EXFUN(fsetpos64, (FILE *, const _fpos64_t *));
 557:c:\program files (x86)\gnu tools arm embedded\6 2017-q2-update\arm-none-eabi\include\stdio.h **** FILE *  _EXFUN(tmpfile64, (void));
 558:c:\program files (x86)\gnu tools arm embedded\6 2017-q2-update\arm-none-eabi\include\stdio.h **** 
 559:c:\program files (x86)\gnu tools arm embedded\6 2017-q2-update\arm-none-eabi\include\stdio.h **** FILE *	_EXFUN(_fdopen64_r, (struct _reent *, int, const char *));
 560:c:\program files (x86)\gnu tools arm embedded\6 2017-q2-update\arm-none-eabi\include\stdio.h **** FILE *  _EXFUN(_fopen64_r, (struct _reent *,const char *, const char *));
 561:c:\program files (x86)\gnu tools arm embedded\6 2017-q2-update\arm-none-eabi\include\stdio.h **** FILE *  _EXFUN(_freopen64_r, (struct _reent *, _CONST char *, _CONST char *, FILE *));
 562:c:\program files (x86)\gnu tools arm embedded\6 2017-q2-update\arm-none-eabi\include\stdio.h **** _off64_t _EXFUN(_ftello64_r, (struct _reent *, FILE *));
 563:c:\program files (x86)\gnu tools arm embedded\6 2017-q2-update\arm-none-eabi\include\stdio.h **** _off64_t _EXFUN(_fseeko64_r, (struct _reent *, FILE *, _off64_t, int));
 564:c:\program files (x86)\gnu tools arm embedded\6 2017-q2-update\arm-none-eabi\include\stdio.h **** int     _EXFUN(_fgetpos64_r, (struct _reent *, FILE *, _fpos64_t *));
 565:c:\program files (x86)\gnu tools arm embedded\6 2017-q2-update\arm-none-eabi\include\stdio.h **** int     _EXFUN(_fsetpos64_r, (struct _reent *, FILE *, const _fpos64_t *));
 566:c:\program files (x86)\gnu tools arm embedded\6 2017-q2-update\arm-none-eabi\include\stdio.h **** FILE *  _EXFUN(_tmpfile64_r, (struct _reent *));
 567:c:\program files (x86)\gnu tools arm embedded\6 2017-q2-update\arm-none-eabi\include\stdio.h **** #endif /* !__CYGWIN__ */
 568:c:\program files (x86)\gnu tools arm embedded\6 2017-q2-update\arm-none-eabi\include\stdio.h **** #endif /* __LARGE64_FILES */
 569:c:\program files (x86)\gnu tools arm embedded\6 2017-q2-update\arm-none-eabi\include\stdio.h **** 
 570:c:\program files (x86)\gnu tools arm embedded\6 2017-q2-update\arm-none-eabi\include\stdio.h **** /*
 571:c:\program files (x86)\gnu tools arm embedded\6 2017-q2-update\arm-none-eabi\include\stdio.h ****  * Routines internal to the implementation.
 572:c:\program files (x86)\gnu tools arm embedded\6 2017-q2-update\arm-none-eabi\include\stdio.h ****  */
 573:c:\program files (x86)\gnu tools arm embedded\6 2017-q2-update\arm-none-eabi\include\stdio.h **** 
 574:c:\program files (x86)\gnu tools arm embedded\6 2017-q2-update\arm-none-eabi\include\stdio.h **** int	_EXFUN(__srget_r, (struct _reent *, FILE *));
 575:c:\program files (x86)\gnu tools arm embedded\6 2017-q2-update\arm-none-eabi\include\stdio.h **** int	_EXFUN(__swbuf_r, (struct _reent *, int, FILE *));
 576:c:\program files (x86)\gnu tools arm embedded\6 2017-q2-update\arm-none-eabi\include\stdio.h **** 
 577:c:\program files (x86)\gnu tools arm embedded\6 2017-q2-update\arm-none-eabi\include\stdio.h **** /*
 578:c:\program files (x86)\gnu tools arm embedded\6 2017-q2-update\arm-none-eabi\include\stdio.h ****  * Stdio function-access interface.
 579:c:\program files (x86)\gnu tools arm embedded\6 2017-q2-update\arm-none-eabi\include\stdio.h ****  */
 580:c:\program files (x86)\gnu tools arm embedded\6 2017-q2-update\arm-none-eabi\include\stdio.h **** 
 581:c:\program files (x86)\gnu tools arm embedded\6 2017-q2-update\arm-none-eabi\include\stdio.h **** #if __BSD_VISIBLE
 582:c:\program files (x86)\gnu tools arm embedded\6 2017-q2-update\arm-none-eabi\include\stdio.h **** # ifdef __LARGE64_FILES
 583:c:\program files (x86)\gnu tools arm embedded\6 2017-q2-update\arm-none-eabi\include\stdio.h **** FILE	*_EXFUN(funopen,(const _PTR __cookie,
 584:c:\program files (x86)\gnu tools arm embedded\6 2017-q2-update\arm-none-eabi\include\stdio.h **** 		int (*__readfn)(_PTR __c, char *__buf,
 585:c:\program files (x86)\gnu tools arm embedded\6 2017-q2-update\arm-none-eabi\include\stdio.h **** 				_READ_WRITE_BUFSIZE_TYPE __n),
 586:c:\program files (x86)\gnu tools arm embedded\6 2017-q2-update\arm-none-eabi\include\stdio.h **** 		int (*__writefn)(_PTR __c, const char *__buf,
 587:c:\program files (x86)\gnu tools arm embedded\6 2017-q2-update\arm-none-eabi\include\stdio.h **** 				 _READ_WRITE_BUFSIZE_TYPE __n),
 588:c:\program files (x86)\gnu tools arm embedded\6 2017-q2-update\arm-none-eabi\include\stdio.h **** 		_fpos64_t (*__seekfn)(_PTR __c, _fpos64_t __off, int __whence),
 589:c:\program files (x86)\gnu tools arm embedded\6 2017-q2-update\arm-none-eabi\include\stdio.h **** 		int (*__closefn)(_PTR __c)));
 590:c:\program files (x86)\gnu tools arm embedded\6 2017-q2-update\arm-none-eabi\include\stdio.h **** FILE	*_EXFUN(_funopen_r,(struct _reent *, const _PTR __cookie,
 591:c:\program files (x86)\gnu tools arm embedded\6 2017-q2-update\arm-none-eabi\include\stdio.h **** 		int (*__readfn)(_PTR __c, char *__buf,
 592:c:\program files (x86)\gnu tools arm embedded\6 2017-q2-update\arm-none-eabi\include\stdio.h **** 				_READ_WRITE_BUFSIZE_TYPE __n),
 593:c:\program files (x86)\gnu tools arm embedded\6 2017-q2-update\arm-none-eabi\include\stdio.h **** 		int (*__writefn)(_PTR __c, const char *__buf,
 594:c:\program files (x86)\gnu tools arm embedded\6 2017-q2-update\arm-none-eabi\include\stdio.h **** 				 _READ_WRITE_BUFSIZE_TYPE __n),
 595:c:\program files (x86)\gnu tools arm embedded\6 2017-q2-update\arm-none-eabi\include\stdio.h **** 		_fpos64_t (*__seekfn)(_PTR __c, _fpos64_t __off, int __whence),
 596:c:\program files (x86)\gnu tools arm embedded\6 2017-q2-update\arm-none-eabi\include\stdio.h **** 		int (*__closefn)(_PTR __c)));
 597:c:\program files (x86)\gnu tools arm embedded\6 2017-q2-update\arm-none-eabi\include\stdio.h **** # else
 598:c:\program files (x86)\gnu tools arm embedded\6 2017-q2-update\arm-none-eabi\include\stdio.h **** FILE	*_EXFUN(funopen,(const _PTR __cookie,
 599:c:\program files (x86)\gnu tools arm embedded\6 2017-q2-update\arm-none-eabi\include\stdio.h **** 		int (*__readfn)(_PTR __cookie, char *__buf,
 600:c:\program files (x86)\gnu tools arm embedded\6 2017-q2-update\arm-none-eabi\include\stdio.h **** 				_READ_WRITE_BUFSIZE_TYPE __n),
 601:c:\program files (x86)\gnu tools arm embedded\6 2017-q2-update\arm-none-eabi\include\stdio.h **** 		int (*__writefn)(_PTR __cookie, const char *__buf,
 602:c:\program files (x86)\gnu tools arm embedded\6 2017-q2-update\arm-none-eabi\include\stdio.h **** 				 _READ_WRITE_BUFSIZE_TYPE __n),
 603:c:\program files (x86)\gnu tools arm embedded\6 2017-q2-update\arm-none-eabi\include\stdio.h **** 		fpos_t (*__seekfn)(_PTR __cookie, fpos_t __off, int __whence),
 604:c:\program files (x86)\gnu tools arm embedded\6 2017-q2-update\arm-none-eabi\include\stdio.h **** 		int (*__closefn)(_PTR __cookie)));
 605:c:\program files (x86)\gnu tools arm embedded\6 2017-q2-update\arm-none-eabi\include\stdio.h **** FILE	*_EXFUN(_funopen_r,(struct _reent *, const _PTR __cookie,
 606:c:\program files (x86)\gnu tools arm embedded\6 2017-q2-update\arm-none-eabi\include\stdio.h **** 		int (*__readfn)(_PTR __cookie, char *__buf,
 607:c:\program files (x86)\gnu tools arm embedded\6 2017-q2-update\arm-none-eabi\include\stdio.h **** 				_READ_WRITE_BUFSIZE_TYPE __n),
 608:c:\program files (x86)\gnu tools arm embedded\6 2017-q2-update\arm-none-eabi\include\stdio.h **** 		int (*__writefn)(_PTR __cookie, const char *__buf,
 609:c:\program files (x86)\gnu tools arm embedded\6 2017-q2-update\arm-none-eabi\include\stdio.h **** 				 _READ_WRITE_BUFSIZE_TYPE __n),
 610:c:\program files (x86)\gnu tools arm embedded\6 2017-q2-update\arm-none-eabi\include\stdio.h **** 		fpos_t (*__seekfn)(_PTR __cookie, fpos_t __off, int __whence),
 611:c:\program files (x86)\gnu tools arm embedded\6 2017-q2-update\arm-none-eabi\include\stdio.h **** 		int (*__closefn)(_PTR __cookie)));
 612:c:\program files (x86)\gnu tools arm embedded\6 2017-q2-update\arm-none-eabi\include\stdio.h **** # endif /* !__LARGE64_FILES */
 613:c:\program files (x86)\gnu tools arm embedded\6 2017-q2-update\arm-none-eabi\include\stdio.h **** 
 614:c:\program files (x86)\gnu tools arm embedded\6 2017-q2-update\arm-none-eabi\include\stdio.h **** # define	fropen(__cookie, __fn) funopen(__cookie, __fn, (int (*)())0, \
 615:c:\program files (x86)\gnu tools arm embedded\6 2017-q2-update\arm-none-eabi\include\stdio.h **** 					       (fpos_t (*)())0, (int (*)())0)
 616:c:\program files (x86)\gnu tools arm embedded\6 2017-q2-update\arm-none-eabi\include\stdio.h **** # define	fwopen(__cookie, __fn) funopen(__cookie, (int (*)())0, __fn, \
 617:c:\program files (x86)\gnu tools arm embedded\6 2017-q2-update\arm-none-eabi\include\stdio.h **** 					       (fpos_t (*)())0, (int (*)())0)
 618:c:\program files (x86)\gnu tools arm embedded\6 2017-q2-update\arm-none-eabi\include\stdio.h **** #endif /* __BSD_VISIBLE */
 619:c:\program files (x86)\gnu tools arm embedded\6 2017-q2-update\arm-none-eabi\include\stdio.h **** 
 620:c:\program files (x86)\gnu tools arm embedded\6 2017-q2-update\arm-none-eabi\include\stdio.h **** #if __GNU_VISIBLE
 621:c:\program files (x86)\gnu tools arm embedded\6 2017-q2-update\arm-none-eabi\include\stdio.h **** typedef ssize_t cookie_read_function_t(void *__cookie, char *__buf, size_t __n);
 622:c:\program files (x86)\gnu tools arm embedded\6 2017-q2-update\arm-none-eabi\include\stdio.h **** typedef ssize_t cookie_write_function_t(void *__cookie, const char *__buf,
 623:c:\program files (x86)\gnu tools arm embedded\6 2017-q2-update\arm-none-eabi\include\stdio.h **** 					size_t __n);
 624:c:\program files (x86)\gnu tools arm embedded\6 2017-q2-update\arm-none-eabi\include\stdio.h **** # ifdef __LARGE64_FILES
 625:c:\program files (x86)\gnu tools arm embedded\6 2017-q2-update\arm-none-eabi\include\stdio.h **** typedef int cookie_seek_function_t(void *__cookie, _off64_t *__off,
 626:c:\program files (x86)\gnu tools arm embedded\6 2017-q2-update\arm-none-eabi\include\stdio.h **** 				   int __whence);
 627:c:\program files (x86)\gnu tools arm embedded\6 2017-q2-update\arm-none-eabi\include\stdio.h **** # else
 628:c:\program files (x86)\gnu tools arm embedded\6 2017-q2-update\arm-none-eabi\include\stdio.h **** typedef int cookie_seek_function_t(void *__cookie, off_t *__off, int __whence);
 629:c:\program files (x86)\gnu tools arm embedded\6 2017-q2-update\arm-none-eabi\include\stdio.h **** # endif /* !__LARGE64_FILES */
 630:c:\program files (x86)\gnu tools arm embedded\6 2017-q2-update\arm-none-eabi\include\stdio.h **** typedef int cookie_close_function_t(void *__cookie);
 631:c:\program files (x86)\gnu tools arm embedded\6 2017-q2-update\arm-none-eabi\include\stdio.h **** typedef struct
 632:c:\program files (x86)\gnu tools arm embedded\6 2017-q2-update\arm-none-eabi\include\stdio.h **** {
 633:c:\program files (x86)\gnu tools arm embedded\6 2017-q2-update\arm-none-eabi\include\stdio.h ****   /* These four struct member names are dictated by Linux; hopefully,
 634:c:\program files (x86)\gnu tools arm embedded\6 2017-q2-update\arm-none-eabi\include\stdio.h ****      they don't conflict with any macros.  */
 635:c:\program files (x86)\gnu tools arm embedded\6 2017-q2-update\arm-none-eabi\include\stdio.h ****   cookie_read_function_t  *read;
 636:c:\program files (x86)\gnu tools arm embedded\6 2017-q2-update\arm-none-eabi\include\stdio.h ****   cookie_write_function_t *write;
 637:c:\program files (x86)\gnu tools arm embedded\6 2017-q2-update\arm-none-eabi\include\stdio.h ****   cookie_seek_function_t  *seek;
 638:c:\program files (x86)\gnu tools arm embedded\6 2017-q2-update\arm-none-eabi\include\stdio.h ****   cookie_close_function_t *close;
 639:c:\program files (x86)\gnu tools arm embedded\6 2017-q2-update\arm-none-eabi\include\stdio.h **** } cookie_io_functions_t;
 640:c:\program files (x86)\gnu tools arm embedded\6 2017-q2-update\arm-none-eabi\include\stdio.h **** FILE *_EXFUN(fopencookie,(void *__cookie,
 641:c:\program files (x86)\gnu tools arm embedded\6 2017-q2-update\arm-none-eabi\include\stdio.h **** 		const char *__mode, cookie_io_functions_t __functions));
 642:c:\program files (x86)\gnu tools arm embedded\6 2017-q2-update\arm-none-eabi\include\stdio.h **** FILE *_EXFUN(_fopencookie_r,(struct _reent *, void *__cookie,
 643:c:\program files (x86)\gnu tools arm embedded\6 2017-q2-update\arm-none-eabi\include\stdio.h **** 		const char *__mode, cookie_io_functions_t __functions));
 644:c:\program files (x86)\gnu tools arm embedded\6 2017-q2-update\arm-none-eabi\include\stdio.h **** #endif /* __GNU_VISIBLE */
 645:c:\program files (x86)\gnu tools arm embedded\6 2017-q2-update\arm-none-eabi\include\stdio.h **** 
 646:c:\program files (x86)\gnu tools arm embedded\6 2017-q2-update\arm-none-eabi\include\stdio.h **** #ifndef __CUSTOM_FILE_IO__
 647:c:\program files (x86)\gnu tools arm embedded\6 2017-q2-update\arm-none-eabi\include\stdio.h **** /*
 648:c:\program files (x86)\gnu tools arm embedded\6 2017-q2-update\arm-none-eabi\include\stdio.h ****  * The __sfoo macros are here so that we can 
 649:c:\program files (x86)\gnu tools arm embedded\6 2017-q2-update\arm-none-eabi\include\stdio.h ****  * define function versions in the C library.
 650:c:\program files (x86)\gnu tools arm embedded\6 2017-q2-update\arm-none-eabi\include\stdio.h ****  */
 651:c:\program files (x86)\gnu tools arm embedded\6 2017-q2-update\arm-none-eabi\include\stdio.h **** #define       __sgetc_raw_r(__ptr, __f) (--(__f)->_r < 0 ? __srget_r(__ptr, __f) : (int)(*(__f)->_p
 652:c:\program files (x86)\gnu tools arm embedded\6 2017-q2-update\arm-none-eabi\include\stdio.h **** 
 653:c:\program files (x86)\gnu tools arm embedded\6 2017-q2-update\arm-none-eabi\include\stdio.h **** #ifdef __SCLE
 654:c:\program files (x86)\gnu tools arm embedded\6 2017-q2-update\arm-none-eabi\include\stdio.h **** /*  For a platform with CR/LF, additional logic is required by
 655:c:\program files (x86)\gnu tools arm embedded\6 2017-q2-update\arm-none-eabi\include\stdio.h ****   __sgetc_r which would otherwise simply be a macro; therefore we
 656:c:\program files (x86)\gnu tools arm embedded\6 2017-q2-update\arm-none-eabi\include\stdio.h ****   use an inlined function.  The function is only meant to be inlined
 657:c:\program files (x86)\gnu tools arm embedded\6 2017-q2-update\arm-none-eabi\include\stdio.h ****   in place as used and the function body should never be emitted.  
 658:c:\program files (x86)\gnu tools arm embedded\6 2017-q2-update\arm-none-eabi\include\stdio.h **** 
 659:c:\program files (x86)\gnu tools arm embedded\6 2017-q2-update\arm-none-eabi\include\stdio.h ****   There are two possible means to this end when compiling with GCC,
 660:c:\program files (x86)\gnu tools arm embedded\6 2017-q2-update\arm-none-eabi\include\stdio.h ****   one when compiling with a standard C99 compiler, and for other
 661:c:\program files (x86)\gnu tools arm embedded\6 2017-q2-update\arm-none-eabi\include\stdio.h ****   compilers we're just stuck.  At the moment, this issue only
 662:c:\program files (x86)\gnu tools arm embedded\6 2017-q2-update\arm-none-eabi\include\stdio.h ****   affects the Cygwin target, so we'll most likely be using GCC. */
 663:c:\program files (x86)\gnu tools arm embedded\6 2017-q2-update\arm-none-eabi\include\stdio.h **** 
 664:c:\program files (x86)\gnu tools arm embedded\6 2017-q2-update\arm-none-eabi\include\stdio.h **** _ELIDABLE_INLINE int __sgetc_r(struct _reent *__ptr, FILE *__p);
 665:c:\program files (x86)\gnu tools arm embedded\6 2017-q2-update\arm-none-eabi\include\stdio.h **** 
 666:c:\program files (x86)\gnu tools arm embedded\6 2017-q2-update\arm-none-eabi\include\stdio.h **** _ELIDABLE_INLINE int __sgetc_r(struct _reent *__ptr, FILE *__p)
 667:c:\program files (x86)\gnu tools arm embedded\6 2017-q2-update\arm-none-eabi\include\stdio.h ****   {
 668:c:\program files (x86)\gnu tools arm embedded\6 2017-q2-update\arm-none-eabi\include\stdio.h ****     int __c = __sgetc_raw_r(__ptr, __p);
 669:c:\program files (x86)\gnu tools arm embedded\6 2017-q2-update\arm-none-eabi\include\stdio.h ****     if ((__p->_flags & __SCLE) && (__c == '\r'))
 670:c:\program files (x86)\gnu tools arm embedded\6 2017-q2-update\arm-none-eabi\include\stdio.h ****       {
 671:c:\program files (x86)\gnu tools arm embedded\6 2017-q2-update\arm-none-eabi\include\stdio.h ****       int __c2 = __sgetc_raw_r(__ptr, __p);
 672:c:\program files (x86)\gnu tools arm embedded\6 2017-q2-update\arm-none-eabi\include\stdio.h ****       if (__c2 == '\n')
 673:c:\program files (x86)\gnu tools arm embedded\6 2017-q2-update\arm-none-eabi\include\stdio.h ****         __c = __c2;
 674:c:\program files (x86)\gnu tools arm embedded\6 2017-q2-update\arm-none-eabi\include\stdio.h ****       else
 675:c:\program files (x86)\gnu tools arm embedded\6 2017-q2-update\arm-none-eabi\include\stdio.h ****         ungetc(__c2, __p);
 676:c:\program files (x86)\gnu tools arm embedded\6 2017-q2-update\arm-none-eabi\include\stdio.h ****       }
 677:c:\program files (x86)\gnu tools arm embedded\6 2017-q2-update\arm-none-eabi\include\stdio.h ****     return __c;
 678:c:\program files (x86)\gnu tools arm embedded\6 2017-q2-update\arm-none-eabi\include\stdio.h ****   }
 679:c:\program files (x86)\gnu tools arm embedded\6 2017-q2-update\arm-none-eabi\include\stdio.h **** #else
 680:c:\program files (x86)\gnu tools arm embedded\6 2017-q2-update\arm-none-eabi\include\stdio.h **** #define __sgetc_r(__ptr, __p) __sgetc_raw_r(__ptr, __p)
 681:c:\program files (x86)\gnu tools arm embedded\6 2017-q2-update\arm-none-eabi\include\stdio.h **** #endif
 682:c:\program files (x86)\gnu tools arm embedded\6 2017-q2-update\arm-none-eabi\include\stdio.h **** 
 683:c:\program files (x86)\gnu tools arm embedded\6 2017-q2-update\arm-none-eabi\include\stdio.h **** #ifdef __GNUC__
 684:c:\program files (x86)\gnu tools arm embedded\6 2017-q2-update\arm-none-eabi\include\stdio.h **** _ELIDABLE_INLINE int __sputc_r(struct _reent *_ptr, int _c, FILE *_p) {
 685:c:\program files (x86)\gnu tools arm embedded\6 2017-q2-update\arm-none-eabi\include\stdio.h **** #ifdef __SCLE
 686:c:\program files (x86)\gnu tools arm embedded\6 2017-q2-update\arm-none-eabi\include\stdio.h **** 	if ((_p->_flags & __SCLE) && _c == '\n')
 687:c:\program files (x86)\gnu tools arm embedded\6 2017-q2-update\arm-none-eabi\include\stdio.h **** 	  __sputc_r (_ptr, '\r', _p);
 688:c:\program files (x86)\gnu tools arm embedded\6 2017-q2-update\arm-none-eabi\include\stdio.h **** #endif
 689:c:\program files (x86)\gnu tools arm embedded\6 2017-q2-update\arm-none-eabi\include\stdio.h **** 	if (--_p->_w >= 0 || (_p->_w >= _p->_lbfsize && (char)_c != '\n'))
 2181              		.loc 2 689 0
 2182 0058 083092E5 		ldr	r3, [r2, #8]
 2183 005c 013043E2 		sub	r3, r3, #1
 2184 0060 083082E5 		str	r3, [r2, #8]
 2185 0064 000053E3 		cmp	r3, #0
 2186 0068 210000BA 		blt	.L228
 2187              	.L207:
 690:c:\program files (x86)\gnu tools arm embedded\6 2017-q2-update\arm-none-eabi\include\stdio.h **** 		return (*_p->_p++ = _c);
 2188              		.loc 2 690 0
 2189 006c 003092E5 		ldr	r3, [r2]
 2190 0070 011083E2 		add	r1, r3, #1
 2191 0074 001082E5 		str	r1, [r2]
 2192 0078 0820A0E3 		mov	r2, #8
 2193              	.LVL258:
 2194 007c 0020C3E5 		strb	r2, [r3]
 2195              	.LVL259:
 2196              	.L209:
 2197              	.LBE25:
 2198              	.LBE24:
1337:../src/renesas/application/r_cui_image_adjust.c ****                         putchar(ASCII_BS);
 2199              		.loc 1 1337 0
 2200 0080 003000E3 		movw	r3, #:lower16:_impure_ptr
 2201 0084 003040E3 		movt	r3, #:upper16:_impure_ptr
 2202 0088 000093E5 		ldr	r0, [r3]
 2203 008c 082090E5 		ldr	r2, [r0, #8]
 2204              	.LVL260:
 2205              	.LBB27:
 2206              	.LBB28:
 689:c:\program files (x86)\gnu tools arm embedded\6 2017-q2-update\arm-none-eabi\include\stdio.h **** 		return (*_p->_p++ = _c);
 2207              		.loc 2 689 0
 2208 0090 083092E5 		ldr	r3, [r2, #8]
 2209 0094 013043E2 		sub	r3, r3, #1
 2210 0098 083082E5 		str	r3, [r2, #8]
 2211 009c 000053E3 		cmp	r3, #0
 2212 00a0 190000BA 		blt	.L229
 2213              	.L210:
 2214              		.loc 2 690 0
 2215 00a4 003092E5 		ldr	r3, [r2]
 2216 00a8 011083E2 		add	r1, r3, #1
 2217 00ac 001082E5 		str	r1, [r2]
 2218 00b0 2020A0E3 		mov	r2, #32
 2219              	.LVL261:
 2220 00b4 0020C3E5 		strb	r2, [r3]
 2221              	.LVL262:
 2222              	.L212:
 2223              	.LBE28:
 2224              	.LBE27:
1338:../src/renesas/application/r_cui_image_adjust.c **** 
 2225              		.loc 1 1338 0
 2226 00b8 003000E3 		movw	r3, #:lower16:_impure_ptr
 2227 00bc 003040E3 		movt	r3, #:upper16:_impure_ptr
 2228 00c0 000093E5 		ldr	r0, [r3]
 2229 00c4 082090E5 		ldr	r2, [r0, #8]
 2230              	.LVL263:
 2231              	.LBB30:
 2232              	.LBB31:
 689:c:\program files (x86)\gnu tools arm embedded\6 2017-q2-update\arm-none-eabi\include\stdio.h **** 		return (*_p->_p++ = _c);
 2233              		.loc 2 689 0
 2234 00c8 083092E5 		ldr	r3, [r2, #8]
 2235 00cc 013043E2 		sub	r3, r3, #1
 2236 00d0 083082E5 		str	r3, [r2, #8]
 2237 00d4 000053E3 		cmp	r3, #0
 2238 00d8 110000BA 		blt	.L230
 2239              	.L213:
 2240              		.loc 2 690 0
 2241 00dc 003092E5 		ldr	r3, [r2]
 2242 00e0 011083E2 		add	r1, r3, #1
 2243 00e4 001082E5 		str	r1, [r2]
 2244 00e8 0820A0E3 		mov	r2, #8
 2245              	.LVL264:
 2246 00ec 0020C3E5 		strb	r2, [r3]
 2247 00f0 420000EA 		b	.L202
 2248              	.LVL265:
 2249              	.L228:
 2250              	.LBE31:
 2251              	.LBE30:
 2252              	.LBB33:
 2253              	.LBB26:
 689:c:\program files (x86)\gnu tools arm embedded\6 2017-q2-update\arm-none-eabi\include\stdio.h **** 		return (*_p->_p++ = _c);
 2254              		.loc 2 689 0
 2255 00f4 181092E5 		ldr	r1, [r2, #24]
 2256 00f8 010053E1 		cmp	r3, r1
 2257 00fc DAFFFFAA 		bge	.L207
 691:c:\program files (x86)\gnu tools arm embedded\6 2017-q2-update\arm-none-eabi\include\stdio.h **** 	else
 692:c:\program files (x86)\gnu tools arm embedded\6 2017-q2-update\arm-none-eabi\include\stdio.h **** 		return (__swbuf_r(_ptr, _c, _p));
 2258              		.loc 2 692 0
 2259 0100 0810A0E3 		mov	r1, #8
 2260 0104 FEFFFFEB 		bl	__swbuf_r
 2261              	.LVL266:
 2262 0108 DCFFFFEA 		b	.L209
 2263              	.LVL267:
 2264              	.L229:
 2265              	.LBE26:
 2266              	.LBE33:
 2267              	.LBB34:
 2268              	.LBB29:
 689:c:\program files (x86)\gnu tools arm embedded\6 2017-q2-update\arm-none-eabi\include\stdio.h **** 		return (*_p->_p++ = _c);
 2269              		.loc 2 689 0
 2270 010c 181092E5 		ldr	r1, [r2, #24]
 2271 0110 010053E1 		cmp	r3, r1
 2272 0114 E2FFFFAA 		bge	.L210
 2273              		.loc 2 692 0
 2274 0118 2010A0E3 		mov	r1, #32
 2275 011c FEFFFFEB 		bl	__swbuf_r
 2276              	.LVL268:
 2277 0120 E4FFFFEA 		b	.L212
 2278              	.LVL269:
 2279              	.L230:
 2280              	.LBE29:
 2281              	.LBE34:
 2282              	.LBB35:
 2283              	.LBB32:
 689:c:\program files (x86)\gnu tools arm embedded\6 2017-q2-update\arm-none-eabi\include\stdio.h **** 		return (*_p->_p++ = _c);
 2284              		.loc 2 689 0
 2285 0124 181092E5 		ldr	r1, [r2, #24]
 2286 0128 010053E1 		cmp	r3, r1
 2287 012c EAFFFFAA 		bge	.L213
 2288              		.loc 2 692 0
 2289 0130 0810A0E3 		mov	r1, #8
 2290 0134 FEFFFFEB 		bl	__swbuf_r
 2291              	.LVL270:
 2292 0138 300000EA 		b	.L202
 2293              	.LVL271:
 2294              	.L205:
 2295              	.LBE32:
 2296              	.LBE35:
1348:../src/renesas/application/r_cui_image_adjust.c ****                 {
 2297              		.loc 1 1348 0
 2298 013c 0D0050E3 		cmp	r0, #13
 2299 0140 1500000A 		beq	.L231
1408:../src/renesas/application/r_cui_image_adjust.c ****                 {
 2300              		.loc 1 1408 0
 2301 0144 203040E2 		sub	r3, r0, #32
 2302 0148 5E0053E3 		cmp	r3, #94
 2303 014c 2A00008A 		bhi	.L220
1410:../src/renesas/application/r_cui_image_adjust.c ****                     {
 2304              		.loc 1 1410 0
 2305 0150 090054E3 		cmp	r4, #9
 2306 0154 2100008A 		bhi	.L221
1413:../src/renesas/application/r_cui_image_adjust.c ****                         putchar(key_input[index]);
 2307              		.loc 1 1413 0
 2308 0158 7010EFE6 		uxtb	r1, r0
 2309 015c 0410C5E7 		strb	r1, [r5, r4]
1414:../src/renesas/application/r_cui_image_adjust.c ****                         index++;
 2310              		.loc 1 1414 0
 2311 0160 003000E3 		movw	r3, #:lower16:_impure_ptr
 2312 0164 003040E3 		movt	r3, #:upper16:_impure_ptr
 2313 0168 000093E5 		ldr	r0, [r3]
 2314              	.LVL272:
 2315 016c 082090E5 		ldr	r2, [r0, #8]
 2316              	.LVL273:
 2317              	.LBB36:
 2318              	.LBB37:
 689:c:\program files (x86)\gnu tools arm embedded\6 2017-q2-update\arm-none-eabi\include\stdio.h **** 		return (*_p->_p++ = _c);
 2319              		.loc 2 689 0
 2320 0170 083092E5 		ldr	r3, [r2, #8]
 2321 0174 013043E2 		sub	r3, r3, #1
 2322 0178 083082E5 		str	r3, [r2, #8]
 2323 017c 000053E3 		cmp	r3, #0
 2324 0180 0F0000BA 		blt	.L232
 2325              	.L222:
 690:c:\program files (x86)\gnu tools arm embedded\6 2017-q2-update\arm-none-eabi\include\stdio.h **** 	else
 2326              		.loc 2 690 0
 2327 0184 003092E5 		ldr	r3, [r2]
 2328 0188 010083E2 		add	r0, r3, #1
 2329              	.LVL274:
 2330 018c 000082E5 		str	r0, [r2]
 2331              	.LVL275:
 2332 0190 0010C3E5 		strb	r1, [r3]
 2333              	.LVL276:
 2334              	.L224:
 2335              	.LBE37:
 2336              	.LBE36:
1415:../src/renesas/application/r_cui_image_adjust.c ****                     }
 2337              		.loc 1 1415 0
 2338 0194 014084E2 		add	r4, r4, #1
 2339              	.LVL277:
 2340 0198 180000EA 		b	.L202
 2341              	.LVL278:
 2342              	.L231:
1350:../src/renesas/application/r_cui_image_adjust.c ****                     {
 2343              		.loc 1 1350 0
 2344 019c 000054E3 		cmp	r4, #0
 2345 01a0 0500000A 		beq	.L226
1358:../src/renesas/application/r_cui_image_adjust.c ****                     }
 2346              		.loc 1 1358 0
 2347 01a4 0400C5E7 		strb	r0, [r5, r4]
1321:../src/renesas/application/r_cui_image_adjust.c **** 
 2348              		.loc 1 1321 0
 2349 01a8 0040A0E3 		mov	r4, #0
 2350              	.LVL279:
 2351              	.L218:
1360:../src/renesas/application/r_cui_image_adjust.c ****                     break;
 2352              		.loc 1 1360 0
 2353 01ac 000000E3 		movw	r0, #:lower16:.LC1
 2354              	.LVL280:
 2355 01b0 000040E3 		movt	r0, #:upper16:.LC1
 2356 01b4 FEFFFFEB 		bl	puts
 2357              	.LVL281:
1361:../src/renesas/application/r_cui_image_adjust.c ****                 }
 2358              		.loc 1 1361 0
 2359 01b8 280000EA 		b	.L219
 2360              	.LVL282:
 2361              	.L226:
1353:../src/renesas/application/r_cui_image_adjust.c ****                     }
 2362              		.loc 1 1353 0
 2363 01bc 0140A0E3 		mov	r4, #1
 2364              	.LVL283:
 2365 01c0 F9FFFFEA 		b	.L218
 2366              	.LVL284:
 2367              	.L232:
 2368              	.LBB39:
 2369              	.LBB38:
 689:c:\program files (x86)\gnu tools arm embedded\6 2017-q2-update\arm-none-eabi\include\stdio.h **** 		return (*_p->_p++ = _c);
 2370              		.loc 2 689 0
 2371 01c4 18C092E5 		ldr	ip, [r2, #24]
 2372 01c8 0C0053E1 		cmp	r3, ip
 2373 01cc 010000BA 		blt	.L223
 2374 01d0 0A0051E3 		cmp	r1, #10
 2375 01d4 EAFFFF1A 		bne	.L222
 2376              	.L223:
 2377              		.loc 2 692 0
 2378 01d8 FEFFFFEB 		bl	__swbuf_r
 2379              	.LVL285:
 2380 01dc ECFFFFEA 		b	.L224
 2381              	.LVL286:
 2382              	.L221:
 2383              	.LBE38:
 2384              	.LBE39:
1421:../src/renesas/application/r_cui_image_adjust.c ****                         printf("\r\n");
 2385              		.loc 1 1421 0
 2386 01e0 0D30A0E3 		mov	r3, #13
 2387 01e4 0B30C5E5 		strb	r3, [r5, #11]
1422:../src/renesas/application/r_cui_image_adjust.c ****                         break;
 2388              		.loc 1 1422 0
 2389 01e8 000000E3 		movw	r0, #:lower16:.LC1
 2390              	.LVL287:
 2391 01ec 000040E3 		movt	r0, #:upper16:.LC1
 2392 01f0 FEFFFFEB 		bl	puts
 2393              	.LVL288:
1321:../src/renesas/application/r_cui_image_adjust.c **** 
 2394              		.loc 1 1321 0
 2395 01f4 0040A0E3 		mov	r4, #0
 2396              	.LVL289:
1423:../src/renesas/application/r_cui_image_adjust.c **** #else
 2397              		.loc 1 1423 0
 2398 01f8 180000EA 		b	.L219
 2399              	.LVL290:
 2400              	.L220:
1435:../src/renesas/application/r_cui_image_adjust.c ****                 }
 2401              		.loc 1 1435 0
 2402              		.syntax divided
 2403              	@ 1435 "../src/renesas/application/r_cui_image_adjust.c" 1
 2404 01fc 00F020E3 		nop
 2405              	@ 0 "" 2
 2406              	.LVL291:
 2407              		.arm
 2408              		.syntax unified
 2409              	.L202:
1323:../src/renesas/application/r_cui_image_adjust.c ****             {
 2410              		.loc 1 1323 0
 2411 0200 0B0054E3 		cmp	r4, #11
 2412 0204 1400008A 		bhi	.L233
1326:../src/renesas/application/r_cui_image_adjust.c **** 
 2413              		.loc 1 1326 0
 2414 0208 003000E3 		movw	r3, #:lower16:_impure_ptr
 2415 020c 003040E3 		movt	r3, #:upper16:_impure_ptr
 2416 0210 000093E5 		ldr	r0, [r3]
 2417 0214 042090E5 		ldr	r2, [r0, #4]
 2418 0218 043092E5 		ldr	r3, [r2, #4]
 2419 021c 013043E2 		sub	r3, r3, #1
 2420 0220 043082E5 		str	r3, [r2, #4]
 2421 0224 000053E3 		cmp	r3, #0
 2422 0228 80FFFFBA 		blt	.L234
1326:../src/renesas/application/r_cui_image_adjust.c **** 
 2423              		.loc 1 1326 0 is_stmt 0 discriminator 2
 2424 022c 042090E5 		ldr	r2, [r0, #4]
 2425 0230 003092E5 		ldr	r3, [r2]
 2426 0234 011083E2 		add	r1, r3, #1
 2427 0238 001082E5 		str	r1, [r2]
 2428 023c 0000D3E5 		ldrb	r0, [r3]	@ zero_extendqisi2
 2429              	.L204:
 2430              	.LVL292:
1329:../src/renesas/application/r_cui_image_adjust.c ****                 {
 2431              		.loc 1 1329 0 is_stmt 1 discriminator 4
 2432 0240 7F0050E3 		cmp	r0, #127
 2433 0244 08005013 		cmpne	r0, #8
 2434 0248 BBFFFF1A 		bne	.L205
1331:../src/renesas/application/r_cui_image_adjust.c ****                     {
 2435              		.loc 1 1331 0
 2436 024c 000054E3 		cmp	r4, #0
 2437 0250 79FFFF1A 		bne	.L235
1343:../src/renesas/application/r_cui_image_adjust.c ****                     }
 2438              		.loc 1 1343 0
 2439              		.syntax divided
 2440              	@ 1343 "../src/renesas/application/r_cui_image_adjust.c" 1
 2441 0254 00F020E3 		nop
 2442              	@ 0 "" 2
 2443              		.arm
 2444              		.syntax unified
 2445 0258 E8FFFFEA 		b	.L202
 2446              	.LVL293:
 2447              	.L233:
1321:../src/renesas/application/r_cui_image_adjust.c **** 
 2448              		.loc 1 1321 0
 2449 025c 0040A0E3 		mov	r4, #0
 2450              	.LVL294:
 2451              	.L219:
1438:../src/renesas/application/r_cui_image_adjust.c ****     }
 2452              		.loc 1 1438 0
 2453 0260 010054E3 		cmp	r4, #1
 2454 0264 0400001A 		bne	.L236
 2455              	.LVL295:
 2456              	.L198:
1312:../src/renesas/application/r_cui_image_adjust.c **** 
 2457              		.loc 1 1312 0
 2458 0268 000000E3 		movw	r0, #:lower16:.LC26
 2459 026c 000040E3 		movt	r0, #:upper16:.LC26
 2460 0270 FEFFFFEB 		bl	printf
 2461              	.LVL296:
1315:../src/renesas/application/r_cui_image_adjust.c ****             {
 2462              		.loc 1 1315 0
 2463 0274 0030A0E3 		mov	r3, #0
 2464 0278 68FFFFEA 		b	.L200
 2465              	.LVL297:
 2466              	.L236:
 2467 027c 7080BDE8 		pop	{r4, r5, r6, pc}
 2468              		.cfi_endproc
 2469              	.LFE9:
 2471              		.section	.text.cui_task,"ax",%progbits
 2472              		.align	2
 2473              		.global	cui_task
 2474              		.syntax unified
 2475              		.arm
 2476              		.fpu neon
 2478              	cui_task:
 2479              	.LFB2:
 876:../src/renesas/application/r_cui_image_adjust.c ****     uint32_t result = RESULT_OK;
 2480              		.loc 1 876 0
 2481              		.cfi_startproc
 2482              		@ args = 0, pretend = 0, frame = 0
 2483              		@ frame_needed = 0, uses_anonymous_args = 0
 2484              	.LVL298:
 2485 0000 10402DE9 		push	{r4, lr}
 2486              		.cfi_def_cfa_offset 8
 2487              		.cfi_offset 4, -8
 2488              		.cfi_offset 14, -4
 2489              	.LVL299:
 894:../src/renesas/application/r_cui_image_adjust.c **** 
 2490              		.loc 1 894 0
 2491 0004 FEFFFFEB 		bl	cui_local_init
 2492              	.LVL300:
 2493              	.L243:
 900:../src/renesas/application/r_cui_image_adjust.c **** 
 2494              		.loc 1 900 0
 2495 0008 FEFFFFEB 		bl	cui_menu_index_get
 2496              	.LVL301:
 2497 000c 003000E3 		movw	r3, #:lower16:.LANCHOR2
 2498 0010 003040E3 		movt	r3, #:upper16:.LANCHOR2
 2499 0014 000083E5 		str	r0, [r3]
 903:../src/renesas/application/r_cui_image_adjust.c **** 
 2500              		.loc 1 903 0
 2501 0018 FEFFFFEB 		bl	cui_menu_disp
 2502              	.LVL302:
 2503 001c 060000EA 		b	.L242
 2504              	.LVL303:
 2505              	.L238:
 922:../src/renesas/application/r_cui_image_adjust.c ****             }
 2506              		.loc 1 922 0
 2507              		.syntax divided
 2508              	@ 922 "../src/renesas/application/r_cui_image_adjust.c" 1
 2509 0020 00F020E3 		nop
 2510              	@ 0 "" 2
 2511              		.arm
 2512              		.syntax unified
 2513 0024 120000EA 		b	.L239
 2514              	.L240:
 931:../src/renesas/application/r_cui_image_adjust.c ****             }
 2515              		.loc 1 931 0
 2516 0028 000000E3 		movw	r0, #:lower16:.LC27
 2517              	.LVL304:
 2518 002c 000040E3 		movt	r0, #:upper16:.LC27
 2519 0030 FEFFFFEB 		bl	puts
 2520              	.LVL305:
 2521              	.L241:
 935:../src/renesas/application/r_cui_image_adjust.c ****     }
 2522              		.loc 1 935 0
 2523 0034 000054E3 		cmp	r4, #0
 2524 0038 F2FFFF0A 		beq	.L243
 2525              	.LVL306:
 2526              	.L242:
 907:../src/renesas/application/r_cui_image_adjust.c **** 
 2527              		.loc 1 907 0
 2528 003c 0100A0E3 		mov	r0, #1
 2529 0040 FEFFFFEB 		bl	R_OS_TaskSleep
 2530              	.LVL307:
 910:../src/renesas/application/r_cui_image_adjust.c **** 
 2531              		.loc 1 910 0
 2532 0044 004000E3 		movw	r4, #:lower16:.LANCHOR3
 2533 0048 004040E3 		movt	r4, #:upper16:.LANCHOR3
 2534 004c 0400A0E1 		mov	r0, r4
 2535 0050 FEFFFFEB 		bl	cui_serial_input
 2536              	.LVL308:
 913:../src/renesas/application/r_cui_image_adjust.c **** 
 2537              		.loc 1 913 0
 2538 0054 0400A0E1 		mov	r0, r4
 2539 0058 FEFFFFEB 		bl	cui_input_judge
 2540              	.LVL309:
 915:../src/renesas/application/r_cui_image_adjust.c ****             {
 2541              		.loc 1 915 0
 2542 005c 004050E2 		subs	r4, r0, #0
 2543 0060 EEFFFF1A 		bne	.L238
 918:../src/renesas/application/r_cui_image_adjust.c ****             }
 2544              		.loc 1 918 0
 2545 0064 000000E3 		movw	r0, #:lower16:.LANCHOR3
 2546              	.LVL310:
 2547 0068 000040E3 		movt	r0, #:upper16:.LANCHOR3
 2548 006c FEFFFFEB 		bl	cui_state_transition
 2549              	.LVL311:
 2550 0070 0040A0E1 		mov	r4, r0
 2551              	.LVL312:
 2552              	.L239:
 925:../src/renesas/application/r_cui_image_adjust.c ****             {
 2553              		.loc 1 925 0
 2554 0074 000054E3 		cmp	r4, #0
 2555 0078 EAFFFF1A 		bne	.L240
 927:../src/renesas/application/r_cui_image_adjust.c ****             }
 2556              		.loc 1 927 0
 2557              		.syntax divided
 2558              	@ 927 "../src/renesas/application/r_cui_image_adjust.c" 1
 2559 007c 00F020E3 		nop
 2560              	@ 0 "" 2
 2561              		.arm
 2562              		.syntax unified
 2563 0080 EBFFFFEA 		b	.L241
 2564              		.cfi_endproc
 2565              	.LFE2:
 2567              		.section	.text.CreateCuiTask,"ax",%progbits
 2568              		.align	2
 2569              		.global	CreateCuiTask
 2570              		.syntax unified
 2571              		.arm
 2572              		.fpu neon
 2574              	CreateCuiTask:
 2575              	.LFB1:
 849:../src/renesas/application/r_cui_image_adjust.c ****     printf("Camera and Display Application \r\n");
 2576              		.loc 1 849 0
 2577              		.cfi_startproc
 2578              		@ args = 0, pretend = 0, frame = 0
 2579              		@ frame_needed = 0, uses_anonymous_args = 0
 2580 0000 04E02DE5 		str	lr, [sp, #-4]!
 2581              		.cfi_def_cfa_offset 4
 2582              		.cfi_offset 14, -4
 2583 0004 0CD04DE2 		sub	sp, sp, #12
 2584              		.cfi_def_cfa_offset 16
 850:../src/renesas/application/r_cui_image_adjust.c **** 
 2585              		.loc 1 850 0
 2586 0008 000000E3 		movw	r0, #:lower16:.LC28
 2587 000c 000040E3 		movt	r0, #:upper16:.LC28
 2588 0010 FEFFFFEB 		bl	puts
 2589              	.LVL313:
 858:../src/renesas/application/r_cui_image_adjust.c **** 
 2590              		.loc 1 858 0
 2591 0014 0630A0E3 		mov	r3, #6
 2592 0018 00308DE5 		str	r3, [sp]
 2593 001c 0230A0E3 		mov	r3, #2
 2594 0020 0020A0E3 		mov	r2, #0
 2595 0024 001000E3 		movw	r1, #:lower16:cui_task
 2596 0028 001040E3 		movt	r1, #:upper16:cui_task
 2597 002c 000000E3 		movw	r0, #:lower16:.LC29
 2598 0030 000040E3 		movt	r0, #:upper16:.LC29
 2599 0034 FEFFFFEB 		bl	R_OS_TaskCreate
 2600              	.LVL314:
 861:../src/renesas/application/r_cui_image_adjust.c ****     {
 2601              		.loc 1 861 0
 2602 0038 000050E3 		cmp	r0, #0
 2603 003c 0100000A 		beq	.L248
 2604              	.LVL315:
 2605              	.L245:
 865:../src/renesas/application/r_cui_image_adjust.c **** /*******************************************************************************
 2606              		.loc 1 865 0
 2607 0040 0CD08DE2 		add	sp, sp, #12
 2608              		.cfi_remember_state
 2609              		.cfi_def_cfa_offset 4
 2610              		@ sp needed
 2611 0044 04F09DE4 		ldr	pc, [sp], #4
 2612              	.LVL316:
 2613              	.L248:
 2614              		.cfi_restore_state
 863:../src/renesas/application/r_cui_image_adjust.c ****     }
 2615              		.loc 1 863 0
 2616 0048 000000E3 		movw	r0, #:lower16:.LC30
 2617              	.LVL317:
 2618 004c 000040E3 		movt	r0, #:upper16:.LC30
 2619 0050 FEFFFFEB 		bl	puts
 2620              	.LVL318:
 865:../src/renesas/application/r_cui_image_adjust.c **** /*******************************************************************************
 2621              		.loc 1 865 0
 2622 0054 F9FFFFEA 		b	.L245
 2623              		.cfi_endproc
 2624              	.LFE1:
 2626              		.section	.bss.gs_cur_index,"aw",%nobits
 2627              		.align	2
 2628              		.set	.LANCHOR2,. + 0
 2631              	gs_cur_index:
 2632 0000 00000000 		.space	4
 2633              		.section	.bss.gs_cur_status,"aw",%nobits
 2634              		.align	2
 2635              		.set	.LANCHOR1,. + 0
 2638              	gs_cur_status:
 2639 0000 00000000 		.space	4
 2640              		.section	.bss.gs_key_input_data,"aw",%nobits
 2641              		.align	2
 2642              		.set	.LANCHOR3,. + 0
 2645              	gs_key_input_data:
 2646 0000 00000000 		.space	12
 2646      00000000 
 2646      00000000 
 2647              		.section	.bss.gs_preset_value,"aw",%nobits
 2648              		.align	2
 2649              		.set	.LANCHOR4,. + 0
 2652              	gs_preset_value:
 2653 0000 00000000 		.space	208
 2653      00000000 
 2653      00000000 
 2653      00000000 
 2653      00000000 
 2654              		.section	.data.gsp_bright_input_mode_list,"aw",%progbits
 2655              		.align	2
 2658              	gsp_bright_input_mode_list:
 2659 0000 2C5C0000 		.word	.LC564
 2660 0004 2C5C0000 		.word	.LC564
 2661 0008 385C0000 		.word	.LC565
 2662 000c 505C0000 		.word	.LC566
 2663              		.section	.data.gsp_controller_select_list,"aw",%progbits
 2664              		.align	2
 2667              	gsp_controller_select_list:
 2668 0000 F05D0000 		.word	.LC588
 2669 0004 045E0000 		.word	.LC589
 2670              		.section	.data.gsp_dither_mode_list,"aw",%progbits
 2671              		.align	2
 2674              	gsp_dither_mode_list:
 2675 0000 A45B0000 		.word	.LC556
 2676 0004 B45B0000 		.word	.LC557
 2677 0008 C85B0000 		.word	.LC558
 2678 000c D85B0000 		.word	.LC559
 2679              		.section	.data.gsp_dither_select_list,"aw",%progbits
 2680              		.align	2
 2683              	gsp_dither_select_list:
 2684 0000 E85C0000 		.word	.LC571
 2685 0004 F05C0000 		.word	.LC572
 2686 0008 FC5C0000 		.word	.LC573
 2687 000c 105D0000 		.word	.LC574
 2688 0010 285D0000 		.word	.LC575
 2689              		.section	.data.gsp_function_on_off_list,"aw",%progbits
 2690              		.align	2
 2693              	gsp_function_on_off_list:
 2694 0000 1C5C0000 		.word	.LC562
 2695 0004 245C0000 		.word	.LC563
 2696              		.section	.data.gsp_gamma_select_list,"aw",%progbits
 2697              		.align	2
 2700              	gsp_gamma_select_list:
 2701 0000 385D0000 		.word	.LC576
 2702 0004 445D0000 		.word	.LC577
 2703 0008 505D0000 		.word	.LC578
 2704 000c 5C5D0000 		.word	.LC579
 2705 0010 685D0000 		.word	.LC580
 2706 0014 E05C0000 		.word	.LC570
 2707              		.section	.data.gsp_hml_select_list,"aw",%progbits
 2708              		.align	2
 2711              	gsp_hml_select_list:
 2712 0000 DC5D0000 		.word	.LC585
 2713 0004 E45D0000 		.word	.LC586
 2714 0008 EC5D0000 		.word	.LC587
 2715 000c A05C0000 		.word	.LC569
 2716 0010 E05C0000 		.word	.LC570
 2717              		.section	.data.gsp_median_tap_sel_list,"aw",%progbits
 2718              		.align	2
 2721              	gsp_median_tap_sel_list:
 2722 0000 EC5B0000 		.word	.LC560
 2723 0004 045C0000 		.word	.LC561
 2724              		.section	.data.gsp_rotation_select_list,"aw",%progbits
 2725              		.align	2
 2728              	gsp_rotation_select_list:
 2729 0000 6C5C0000 		.word	.LC567
 2730 0004 885C0000 		.word	.LC568
 2731 0008 A05C0000 		.word	.LC569
 2732 000c E05C0000 		.word	.LC570
 2733              		.section	.data.gsp_sharp_select_list,"aw",%progbits
 2734              		.align	2
 2737              	gsp_sharp_select_list:
 2738 0000 885D0000 		.word	.LC581
 2739 0004 9C5D0000 		.word	.LC582
 2740 0008 B45D0000 		.word	.LC583
 2741 000c C45D0000 		.word	.LC584
 2742 0010 E05C0000 		.word	.LC570
 2743              		.section	.data.gsp_top_select_list,"aw",%progbits
 2744              		.align	2
 2747              	gsp_top_select_list:
 2748 0000 185E0000 		.word	.LC590
 2749 0004 245E0000 		.word	.LC591
 2750 0008 305E0000 		.word	.LC592
 2751 000c 3C5E0000 		.word	.LC593
 2752 0010 505E0000 		.word	.LC594
 2753 0014 605E0000 		.word	.LC595
 2754              		.section	.rodata.CreateCuiTask.str1.4,"aMS",%progbits,1
 2755              		.align	2
 2756              	.LC28:
 2757 0000 43616D65 		.ascii	"Camera and Display Application \015\000"
 2757      72612061 
 2757      6E642044 
 2757      6973706C 
 2757      61792041 
 2758 0021 000000   		.space	3
 2759              	.LC29:
 2760 0024 47726170 		.ascii	"Graphics\000"
 2760      68696373 
 2760      00
 2761 002d 000000   		.space	3
 2762              	.LC30:
 2763 0030 43616D65 		.ascii	"Camera driver can not be loaded, demo system does n"
 2763      72612064 
 2763      72697665 
 2763      72206361 
 2763      6E206E6F 
 2764 0063 6F742077 		.ascii	"ot work correctly\015\000"
 2764      6F726B20 
 2764      636F7272 
 2764      6563746C 
 2764      790D00
 2765              		.section	.rodata.cui_menu_disp.str1.4,"aMS",%progbits,1
 2766              		.align	2
 2767              	.LC20:
 2768 0000 52203A20 		.ascii	"R : Show each value of the customizable registers.\015"
 2768      53686F77 
 2768      20656163 
 2768      68207661 
 2768      6C756520 
 2769 0033 00       		.ascii	"\000"
 2770              	.LC21:
 2771 0034 44203A20 		.ascii	"D : All Default Settings.\015\000"
 2771      416C6C20 
 2771      44656661 
 2771      756C7420 
 2771      53657474 
 2772 004f 00       		.space	1
 2773              	.LC22:
 2774 0050 42203A20 		.ascii	"B : Go to Back Menu.\015\000"
 2774      476F2074 
 2774      6F204261 
 2774      636B204D 
 2774      656E752E 
 2775 0066 0000     		.space	2
 2776              	.LC23:
 2777 0068 54203A20 		.ascii	"T : Go to Top Menu.\015\000"
 2777      476F2074 
 2777      6F20546F 
 2777      70204D65 
 2777      6E752E0D 
 2778              		.section	.rodata.cui_menu_disp_explanation.str1.4,"aMS",%progbits,1
 2779              		.align	2
 2780              	.LC7:
 2781 0000 506C6561 		.ascii	"Please refer to the Application Note with regard to"
 2781      73652072 
 2781      65666572 
 2781      20746F20 
 2781      74686520 
 2782 0033 20746865 		.ascii	" the Register setting block.\015\000"
 2782      20526567 
 2782      69737465 
 2782      72207365 
 2782      7474696E 
 2783 0051 000000   		.space	3
 2784              	.LC8:
 2785 0054 28496E70 		.ascii	"(Input controller - Output controller)\015\000"
 2785      75742063 
 2785      6F6E7472 
 2785      6F6C6C65 
 2785      72202D20 
 2786              	.LC9:
 2787 007c 506C6561 		.ascii	"Please refer the startup guide about Pattern0-Patte"
 2787      73652072 
 2787      65666572 
 2787      20746865 
 2787      20737461 
 2788 00af 726E330D 		.ascii	"rn3\015\000"
 2788      00
 2789              	.LC10:
 2790 00b4 2564203A 		.ascii	"%d : %s = %d\015\012\000"
 2790      20257320 
 2790      3D202564 
 2790      0D0A00
 2791 00c3 00       		.space	1
 2792              	.LC11:
 2793 00c4 2564202D 		.ascii	"%d - %d :Input Value\015\012\000"
 2793      20256420 
 2793      3A496E70 
 2793      75742056 
 2793      616C7565 
 2794 00db 00       		.space	1
 2795              	.LC12:
 2796 00dc 44203A20 		.ascii	"D : Default(Hardware Initial Value Refer to the Har"
 2796      44656661 
 2796      756C7428 
 2796      48617264 
 2796      77617265 
 2797 010f 64776172 		.ascii	"dware Manual)\015\000"
 2797      65204D61 
 2797      6E75616C 
 2797      290D00
 2798 011e 0000     		.space	2
 2799              	.LC13:
 2800 0120 54686973 		.ascii	"This function can not be used in case of camera inp"
 2800      2066756E 
 2800      6374696F 
 2800      6E206361 
 2800      6E206E6F 
 2801 0153 75742049 		.ascii	"ut INPUT_CMOS_CAM_2 or INPUT_CMOS_CAM_3.\015\000"
 2801      4E505554 
 2801      5F434D4F 
 2801      535F4341 
 2801      4D5F3220 
 2802 017d 000000   		.space	3
 2803              	.LC14:
 2804 0180 49662079 		.ascii	"If you would like to to use this function, you need"
 2804      6F752077 
 2804      6F756C64 
 2804      206C696B 
 2804      6520746F 
 2805 01b3 20746F20 		.ascii	" to change the TARGET_INPUT setting\015\000"
 2805      6368616E 
 2805      67652074 
 2805      68652054 
 2805      41524745 
 2806              	.LC15:
 2807 01d8 66726F6D 		.ascii	"from INPUT_CMOS_CAM_2 or INPUT_CMOS_CAM_3 to INPUT_"
 2807      20494E50 
 2807      55545F43 
 2807      4D4F535F 
 2807      43414D5F 
 2808 020b 434D4F53 		.ascii	"CMOS_CAM_1.\015\000"
 2808      5F43414D 
 2808      5F312E0D 
 2808      00
 2809              	.LC16:
 2810 0218 2564203A 		.ascii	"%d : %s\015\012\000"
 2810      2025730D 
 2810      0A00
 2811 0222 0000     		.space	2
 2812              	.LC17:
 2813 0224 44203A20 		.ascii	"D : %s\015\012\000"
 2813      25730D0A 
 2813      00
 2814 022d 000000   		.space	3
 2815              	.LC18:
 2816 0230 43203A20 		.ascii	"C : Custom\015\000"
 2816      43757374 
 2816      6F6D0D00 
 2817              	.LC19:
 2818 023c 2D2D2D2D 		.ascii	"----------------------------------------\015\000"
 2818      2D2D2D2D 
 2818      2D2D2D2D 
 2818      2D2D2D2D 
 2818      2D2D2D2D 
 2819              		.section	.rodata.cui_menu_disp_title.str1.4,"aMS",%progbits,1
 2820              		.align	2
 2821              	.LC1:
 2822 0000 0D00     		.ascii	"\015\000"
 2823 0002 0000     		.space	2
 2824              	.LC2:
 2825 0004 2D2D2D2D 		.ascii	"---------------------------------------\015\000"
 2825      2D2D2D2D 
 2825      2D2D2D2D 
 2825      2D2D2D2D 
 2825      2D2D2D2D 
 2826 002d 000000   		.space	3
 2827              	.LC3:
 2828 0030 25730D0A 		.ascii	"%s\015\012\000"
 2828      00
 2829 0035 000000   		.space	3
 2830              	.LC4:
 2831 0038 43757272 		.ascii	"Current Setting : %s\015\012\000"
 2831      656E7420 
 2831      53657474 
 2831      696E6720 
 2831      3A202573 
 2832 004f 00       		.space	1
 2833              	.LC5:
 2834 0050 25732025 		.ascii	"%s %s\015\012\000"
 2834      730D0A00 
 2835              	.LC6:
 2836 0058 43757272 		.ascii	"Current Setting : %d\015\012\000"
 2836      656E7420 
 2836      53657474 
 2836      696E6720 
 2836      3A202564 
 2837              		.section	.rodata.cui_serial_input.str1.4,"aMS",%progbits,1
 2838              		.align	2
 2839              	.LC26:
 2840 0000 3E3E00   		.ascii	">>\000"
 2841              		.section	.rodata.cui_set_update_register.str1.4,"aMS",%progbits,1
 2842              		.align	2
 2843              	.LC0:
 2844 0000 52656769 		.ascii	"Register Changed\015\000"
 2844      73746572 
 2844      20436861 
 2844      6E676564 
 2844      0D00
 2845              		.section	.rodata.cui_state_transition.str1.4,"aMS",%progbits,1
 2846              		.align	2
 2847              	.LC24:
 2848 0000 257300   		.ascii	"%s\000"
 2849 0003 00       		.space	1
 2850              	.LC25:
 2851 0004 5245475F 		.ascii	"REG_READ_ERR!!\000"
 2851      52454144 
 2851      5F455252 
 2851      212100
 2852              		.section	.rodata.cui_task.str1.4,"aMS",%progbits,1
 2853              		.align	2
 2854              	.LC27:
 2855 0000 4552524F 		.ascii	"ERROR : Invalid value\015\012\015\000"
 2855      52203A20 
 2855      496E7661 
 2855      6C696420 
 2855      76616C75 
 2856              		.section	.rodata.current_menu,"a",%progbits
 2857              		.align	2
 2858              		.set	.LANCHOR0,. + 0
 2861              	current_menu:
 2862 0000 FFFFFFFF 		.word	-1
 2863 0004 01000000 		.word	1
 2864 0008 06000000 		.word	6
 2865 000c 00000000 		.word	gs_top_content
 2866 0010 00000000 		.word	gs_explanation_top_br_co
 2867 0014 00000000 		.word	gsp_top_select_list
 2868 0018 00000000 		.word	0
 2869 001c 00000000 		.word	0
 2870 0020 FFFFFF00 		.word	16777215
 2871 0024 01000000 		.word	1
 2872 0028 02000000 		.word	2
 2873 002c 00000000 		.word	gs_bright_content
 2874 0030 00000000 		.word	gs_explanation_top_br_co
 2875 0034 00000000 		.word	gsp_controller_select_list
 2876 0038 00000000 		.word	0
 2877 003c 00000000 		.word	0
 2878 0040 FFFF0000 		.word	65535
 2879 0044 02000000 		.word	2
 2880 0048 03000000 		.word	3
 2881 004c 00000000 		.word	gs_bright_in_content
 2882 0050 00000000 		.word	gs_explanation_preset
 2883 0054 00000000 		.word	gsp_hml_select_list
 2884 0058 00000000 		.word	gs_reg_bright_in
 2885 005c 01000000 		.word	1
 2886 0060 FFFF0100 		.word	131071
 2887 0064 02000000 		.word	2
 2888 0068 03000000 		.word	3
 2889 006c 00000000 		.word	gs_bright_out_content
 2890 0070 00000000 		.word	gs_explanation_preset
 2891 0074 00000000 		.word	gsp_hml_select_list
 2892 0078 00000000 		.word	gs_reg_bright_out
 2893 007c 03000000 		.word	3
 2894 0080 FF0C0000 		.word	3327
 2895 0084 03000000 		.word	3
 2896 0088 01000000 		.word	1
 2897 008c 00000000 		.word	gs_all_custom
 2898 0090 00000000 		.word	gs_explanation_customreg
 2899 0094 00000000 		.word	0
 2900 0098 00000000 		.word	gs_reg_bright_in
 2901 009c 01000000 		.word	1
 2902 00a0 000C0000 		.word	3072
 2903 00a4 04000000 		.word	4
 2904 00a8 00000000 		.word	0
 2905 00ac 00000000 		.word	gs_all_custom_reg
 2906 00b0 00000000 		.word	gs_explanation_custom
 2907 00b4 00000000 		.word	0
 2908 00b8 00000000 		.word	gs_reg_bright_in
 2909 00bc 00000000 		.word	0
 2910 00c0 FF0C0100 		.word	68863
 2911 00c4 03000000 		.word	3
 2912 00c8 03000000 		.word	3
 2913 00cc 00000000 		.word	gs_all_custom
 2914 00d0 00000000 		.word	gs_explanation_customreg
 2915 00d4 00000000 		.word	0
 2916 00d8 00000000 		.word	gs_reg_bright_out
 2917 00dc 03000000 		.word	3
 2918 00e0 000C0100 		.word	68608
 2919 00e4 04000000 		.word	4
 2920 00e8 00000000 		.word	0
 2921 00ec 00000000 		.word	gs_all_custom_reg
 2922 00f0 00000000 		.word	gs_explanation_custom
 2923 00f4 00000000 		.word	0
 2924 00f8 00000000 		.word	gs_reg_bright_out
 2925 00fc 00000000 		.word	0
 2926 0100 010C0100 		.word	68609
 2927 0104 04000000 		.word	4
 2928 0108 00000000 		.word	0
 2929 010c 00000000 		.word	gs_all_custom_reg
 2930 0110 00000000 		.word	gs_explanation_custom
 2931 0114 00000000 		.word	0
 2932 0118 30000000 		.word	gs_reg_bright_out+48
 2933 011c 00000000 		.word	0
 2934 0120 020C0100 		.word	68610
 2935 0124 04000000 		.word	4
 2936 0128 00000000 		.word	0
 2937 012c 00000000 		.word	gs_all_custom_reg
 2938 0130 00000000 		.word	gs_explanation_custom
 2939 0134 00000000 		.word	0
 2940 0138 60000000 		.word	gs_reg_bright_out+96
 2941 013c 00000000 		.word	0
 2942 0140 FFFFFF01 		.word	33554431
 2943 0144 01000000 		.word	1
 2944 0148 02000000 		.word	2
 2945 014c 00000000 		.word	gs_contra_content
 2946 0150 00000000 		.word	gs_explanation_top_br_co
 2947 0154 00000000 		.word	gsp_controller_select_list
 2948 0158 00000000 		.word	0
 2949 015c 00000000 		.word	0
 2950 0160 FFFF0001 		.word	16842751
 2951 0164 02000000 		.word	2
 2952 0168 03000000 		.word	3
 2953 016c 00000000 		.word	gs_contra_in_content
 2954 0170 00000000 		.word	gs_explanation_preset
 2955 0174 00000000 		.word	gsp_hml_select_list
 2956 0178 00000000 		.word	gs_reg_cont_in
 2957 017c 01000000 		.word	1
 2958 0180 FFFF0101 		.word	16908287
 2959 0184 02000000 		.word	2
 2960 0188 03000000 		.word	3
 2961 018c 00000000 		.word	gs_contra_out_content
 2962 0190 00000000 		.word	gs_explanation_preset
 2963 0194 00000000 		.word	gsp_hml_select_list
 2964 0198 00000000 		.word	gs_reg_cont_out
 2965 019c 03000000 		.word	3
 2966 01a0 FF0C0001 		.word	16780543
 2967 01a4 03000000 		.word	3
 2968 01a8 01000000 		.word	1
 2969 01ac 00000000 		.word	gs_all_custom
 2970 01b0 00000000 		.word	gs_explanation_customreg
 2971 01b4 00000000 		.word	0
 2972 01b8 00000000 		.word	gs_reg_cont_in
 2973 01bc 01000000 		.word	1
 2974 01c0 000C0001 		.word	16780288
 2975 01c4 04000000 		.word	4
 2976 01c8 00000000 		.word	0
 2977 01cc 00000000 		.word	gs_all_custom_reg
 2978 01d0 00000000 		.word	gs_explanation_custom
 2979 01d4 00000000 		.word	0
 2980 01d8 00000000 		.word	gs_reg_cont_in
 2981 01dc 00000000 		.word	0
 2982 01e0 FF0C0101 		.word	16846079
 2983 01e4 03000000 		.word	3
 2984 01e8 03000000 		.word	3
 2985 01ec 00000000 		.word	gs_all_custom
 2986 01f0 00000000 		.word	gs_explanation_customreg
 2987 01f4 00000000 		.word	0
 2988 01f8 00000000 		.word	gs_reg_cont_out
 2989 01fc 03000000 		.word	3
 2990 0200 000C0101 		.word	16845824
 2991 0204 04000000 		.word	4
 2992 0208 00000000 		.word	0
 2993 020c 00000000 		.word	gs_all_custom_reg
 2994 0210 00000000 		.word	gs_explanation_custom
 2995 0214 00000000 		.word	0
 2996 0218 00000000 		.word	gs_reg_cont_out
 2997 021c 00000000 		.word	0
 2998 0220 010C0101 		.word	16845825
 2999 0224 04000000 		.word	4
 3000 0228 00000000 		.word	0
 3001 022c 00000000 		.word	gs_all_custom_reg
 3002 0230 00000000 		.word	gs_explanation_custom
 3003 0234 00000000 		.word	0
 3004 0238 30000000 		.word	gs_reg_cont_out+48
 3005 023c 00000000 		.word	0
 3006 0240 020C0101 		.word	16845826
 3007 0244 04000000 		.word	4
 3008 0248 00000000 		.word	0
 3009 024c 00000000 		.word	gs_all_custom_reg
 3010 0250 00000000 		.word	gs_explanation_custom
 3011 0254 00000000 		.word	0
 3012 0258 60000000 		.word	gs_reg_cont_out+96
 3013 025c 00000000 		.word	0
 3014 0260 FFFFFF02 		.word	50331647
 3015 0264 02000000 		.word	2
 3016 0268 03000000 		.word	3
 3017 026c 00000000 		.word	gs_sharp_content
 3018 0270 00000000 		.word	gs_explanation_preset
 3019 0274 00000000 		.word	gsp_sharp_select_list
 3020 0278 00000000 		.word	gs_reg_sharpness
 3021 027c 1A000000 		.word	26
 3022 0280 FF0CFF02 		.word	50269439
 3023 0284 03000000 		.word	3
 3024 0288 1A000000 		.word	26
 3025 028c 00000000 		.word	gs_all_custom
 3026 0290 00000000 		.word	gs_explanation_customreg
 3027 0294 00000000 		.word	0
 3028 0298 00000000 		.word	gs_reg_sharpness
 3029 029c 1A000000 		.word	26
 3030 02a0 000CFF02 		.word	50269184
 3031 02a4 04000000 		.word	4
 3032 02a8 00000000 		.word	0
 3033 02ac 00000000 		.word	gs_all_custom_reg
 3034 02b0 00000000 		.word	gs_explanation_custom
 3035 02b4 00000000 		.word	0
 3036 02b8 00000000 		.word	gs_reg_sharpness
 3037 02bc 00000000 		.word	0
 3038 02c0 010CFF02 		.word	50269185
 3039 02c4 04000000 		.word	4
 3040 02c8 00000000 		.word	0
 3041 02cc 00000000 		.word	gs_all_custom_reg
 3042 02d0 00000000 		.word	gs_explanation_custom
 3043 02d4 00000000 		.word	0
 3044 02d8 30000000 		.word	gs_reg_sharpness+48
 3045 02dc 00000000 		.word	0
 3046 02e0 020CFF02 		.word	50269186
 3047 02e4 04000000 		.word	4
 3048 02e8 00000000 		.word	0
 3049 02ec 00000000 		.word	gs_all_custom_reg
 3050 02f0 00000000 		.word	gs_explanation_custom
 3051 02f4 00000000 		.word	0
 3052 02f8 60000000 		.word	gs_reg_sharpness+96
 3053 02fc 00000000 		.word	0
 3054 0300 030CFF02 		.word	50269187
 3055 0304 04000000 		.word	4
 3056 0308 00000000 		.word	0
 3057 030c 00000000 		.word	gs_all_custom_reg
 3058 0310 00000000 		.word	gs_explanation_custom
 3059 0314 00000000 		.word	0
 3060 0318 90000000 		.word	gs_reg_sharpness+144
 3061 031c 00000000 		.word	0
 3062 0320 040CFF02 		.word	50269188
 3063 0324 04000000 		.word	4
 3064 0328 00000000 		.word	0
 3065 032c 00000000 		.word	gs_all_custom_reg
 3066 0330 00000000 		.word	gs_explanation_custom
 3067 0334 00000000 		.word	0
 3068 0338 C0000000 		.word	gs_reg_sharpness+192
 3069 033c 00000000 		.word	0
 3070 0340 050CFF02 		.word	50269189
 3071 0344 04000000 		.word	4
 3072 0348 00000000 		.word	0
 3073 034c 00000000 		.word	gs_all_custom_reg
 3074 0350 00000000 		.word	gs_explanation_custom
 3075 0354 00000000 		.word	0
 3076 0358 F0000000 		.word	gs_reg_sharpness+240
 3077 035c 00000000 		.word	0
 3078 0360 060CFF02 		.word	50269190
 3079 0364 04000000 		.word	4
 3080 0368 00000000 		.word	0
 3081 036c 00000000 		.word	gs_all_custom_reg
 3082 0370 00000000 		.word	gs_explanation_custom
 3083 0374 00000000 		.word	0
 3084 0378 20010000 		.word	gs_reg_sharpness+288
 3085 037c 00000000 		.word	0
 3086 0380 070CFF02 		.word	50269191
 3087 0384 04000000 		.word	4
 3088 0388 00000000 		.word	0
 3089 038c 00000000 		.word	gs_all_custom_reg
 3090 0390 00000000 		.word	gs_explanation_custom
 3091 0394 00000000 		.word	0
 3092 0398 50010000 		.word	gs_reg_sharpness+336
 3093 039c 00000000 		.word	0
 3094 03a0 080CFF02 		.word	50269192
 3095 03a4 04000000 		.word	4
 3096 03a8 00000000 		.word	0
 3097 03ac 00000000 		.word	gs_all_custom_reg
 3098 03b0 00000000 		.word	gs_explanation_custom
 3099 03b4 00000000 		.word	0
 3100 03b8 80010000 		.word	gs_reg_sharpness+384
 3101 03bc 00000000 		.word	0
 3102 03c0 090CFF02 		.word	50269193
 3103 03c4 04000000 		.word	4
 3104 03c8 00000000 		.word	0
 3105 03cc 00000000 		.word	gs_all_custom_reg
 3106 03d0 00000000 		.word	gs_explanation_custom
 3107 03d4 00000000 		.word	0
 3108 03d8 B0010000 		.word	gs_reg_sharpness+432
 3109 03dc 00000000 		.word	0
 3110 03e0 0A0CFF02 		.word	50269194
 3111 03e4 04000000 		.word	4
 3112 03e8 00000000 		.word	0
 3113 03ec 00000000 		.word	gs_all_custom_reg
 3114 03f0 00000000 		.word	gs_explanation_custom
 3115 03f4 00000000 		.word	0
 3116 03f8 E0010000 		.word	gs_reg_sharpness+480
 3117 03fc 00000000 		.word	0
 3118 0400 0B0CFF02 		.word	50269195
 3119 0404 04000000 		.word	4
 3120 0408 00000000 		.word	0
 3121 040c 00000000 		.word	gs_all_custom_reg
 3122 0410 00000000 		.word	gs_explanation_custom
 3123 0414 00000000 		.word	0
 3124 0418 10020000 		.word	gs_reg_sharpness+528
 3125 041c 00000000 		.word	0
 3126 0420 0C0CFF02 		.word	50269196
 3127 0424 04000000 		.word	4
 3128 0428 00000000 		.word	0
 3129 042c 00000000 		.word	gs_all_custom_reg
 3130 0430 00000000 		.word	gs_explanation_custom
 3131 0434 00000000 		.word	0
 3132 0438 40020000 		.word	gs_reg_sharpness+576
 3133 043c 00000000 		.word	0
 3134 0440 0D0CFF02 		.word	50269197
 3135 0444 04000000 		.word	4
 3136 0448 00000000 		.word	0
 3137 044c 00000000 		.word	gs_all_custom_reg
 3138 0450 00000000 		.word	gs_explanation_custom
 3139 0454 00000000 		.word	0
 3140 0458 70020000 		.word	gs_reg_sharpness+624
 3141 045c 00000000 		.word	0
 3142 0460 0E0CFF02 		.word	50269198
 3143 0464 04000000 		.word	4
 3144 0468 00000000 		.word	0
 3145 046c 00000000 		.word	gs_all_custom_reg
 3146 0470 00000000 		.word	gs_explanation_custom
 3147 0474 00000000 		.word	0
 3148 0478 A0020000 		.word	gs_reg_sharpness+672
 3149 047c 00000000 		.word	0
 3150 0480 0F0CFF02 		.word	50269199
 3151 0484 04000000 		.word	4
 3152 0488 00000000 		.word	0
 3153 048c 00000000 		.word	gs_all_custom_reg
 3154 0490 00000000 		.word	gs_explanation_custom
 3155 0494 00000000 		.word	0
 3156 0498 D0020000 		.word	gs_reg_sharpness+720
 3157 049c 00000000 		.word	0
 3158 04a0 100CFF02 		.word	50269200
 3159 04a4 04000000 		.word	4
 3160 04a8 00000000 		.word	0
 3161 04ac 00000000 		.word	gs_all_custom_reg
 3162 04b0 00000000 		.word	gs_explanation_custom
 3163 04b4 00000000 		.word	0
 3164 04b8 00030000 		.word	gs_reg_sharpness+768
 3165 04bc 00000000 		.word	0
 3166 04c0 110CFF02 		.word	50269201
 3167 04c4 04000000 		.word	4
 3168 04c8 00000000 		.word	0
 3169 04cc 00000000 		.word	gs_all_custom_reg
 3170 04d0 00000000 		.word	gs_explanation_custom
 3171 04d4 00000000 		.word	0
 3172 04d8 30030000 		.word	gs_reg_sharpness+816
 3173 04dc 00000000 		.word	0
 3174 04e0 120CFF02 		.word	50269202
 3175 04e4 04000000 		.word	4
 3176 04e8 00000000 		.word	0
 3177 04ec 00000000 		.word	gs_all_custom_reg
 3178 04f0 00000000 		.word	gs_explanation_custom
 3179 04f4 00000000 		.word	0
 3180 04f8 60030000 		.word	gs_reg_sharpness+864
 3181 04fc 00000000 		.word	0
 3182 0500 130CFF02 		.word	50269203
 3183 0504 04000000 		.word	4
 3184 0508 00000000 		.word	0
 3185 050c 00000000 		.word	gs_all_custom_reg
 3186 0510 00000000 		.word	gs_explanation_custom
 3187 0514 00000000 		.word	0
 3188 0518 90030000 		.word	gs_reg_sharpness+912
 3189 051c 00000000 		.word	0
 3190 0520 140CFF02 		.word	50269204
 3191 0524 04000000 		.word	4
 3192 0528 00000000 		.word	0
 3193 052c 00000000 		.word	gs_all_custom_reg
 3194 0530 00000000 		.word	gs_explanation_custom
 3195 0534 00000000 		.word	0
 3196 0538 C0030000 		.word	gs_reg_sharpness+960
 3197 053c 00000000 		.word	0
 3198 0540 150CFF02 		.word	50269205
 3199 0544 04000000 		.word	4
 3200 0548 00000000 		.word	0
 3201 054c 00000000 		.word	gs_all_custom_reg
 3202 0550 00000000 		.word	gs_explanation_custom
 3203 0554 00000000 		.word	0
 3204 0558 F0030000 		.word	gs_reg_sharpness+1008
 3205 055c 00000000 		.word	0
 3206 0560 160CFF02 		.word	50269206
 3207 0564 04000000 		.word	4
 3208 0568 00000000 		.word	0
 3209 056c 00000000 		.word	gs_all_custom_reg
 3210 0570 00000000 		.word	gs_explanation_custom
 3211 0574 00000000 		.word	0
 3212 0578 20040000 		.word	gs_reg_sharpness+1056
 3213 057c 00000000 		.word	0
 3214 0580 170CFF02 		.word	50269207
 3215 0584 04000000 		.word	4
 3216 0588 00000000 		.word	0
 3217 058c 00000000 		.word	gs_all_custom_reg
 3218 0590 00000000 		.word	gs_explanation_custom
 3219 0594 00000000 		.word	0
 3220 0598 50040000 		.word	gs_reg_sharpness+1104
 3221 059c 00000000 		.word	0
 3222 05a0 180CFF02 		.word	50269208
 3223 05a4 04000000 		.word	4
 3224 05a8 00000000 		.word	0
 3225 05ac 00000000 		.word	gs_all_custom_reg
 3226 05b0 00000000 		.word	gs_explanation_custom
 3227 05b4 00000000 		.word	0
 3228 05b8 80040000 		.word	gs_reg_sharpness+1152
 3229 05bc 00000000 		.word	0
 3230 05c0 190CFF02 		.word	50269209
 3231 05c4 04000000 		.word	4
 3232 05c8 00000000 		.word	0
 3233 05cc 00000000 		.word	gs_all_custom_reg
 3234 05d0 00000000 		.word	gs_explanation_custom
 3235 05d4 00000000 		.word	0
 3236 05d8 B0040000 		.word	gs_reg_sharpness+1200
 3237 05dc 00000000 		.word	0
 3238 05e0 FFFFFF03 		.word	67108863
 3239 05e4 02000000 		.word	2
 3240 05e8 04000000 		.word	4
 3241 05ec 00000000 		.word	gs_gamma_content
 3242 05f0 00000000 		.word	gs_explanation_preset
 3243 05f4 00000000 		.word	gsp_gamma_select_list
 3244 05f8 00000000 		.word	gs_reg_gamma
 3245 05fc BE000000 		.word	190
 3246 0600 FFFFFF04 		.word	83886079
 3247 0604 02000000 		.word	2
 3248 0608 04000000 		.word	4
 3249 060c 00000000 		.word	gs_dither_content
 3250 0610 00000000 		.word	gs_explanation_preset
 3251 0614 00000000 		.word	gsp_dither_select_list
 3252 0618 00000000 		.word	gs_reg_dither
 3253 061c 01000000 		.word	1
 3254 0620 FFFFFF05 		.word	100663295
 3255 0624 02000000 		.word	2
 3256 0628 02000000 		.word	2
 3257 062c 00000000 		.word	gs_rotation_content
 3258 0630 00000000 		.word	gs_explanation_preset
 3259 0634 00000000 		.word	gsp_rotation_select_list
 3260 0638 00000000 		.word	gs_reg_rotation
 3261 063c 01000000 		.word	1
 3262 0640 FF0CFF05 		.word	100601087
 3263 0644 03000000 		.word	3
 3264 0648 01000000 		.word	1
 3265 064c 00000000 		.word	gs_all_custom
 3266 0650 00000000 		.word	gs_explanation_customreg
 3267 0654 00000000 		.word	0
 3268 0658 00000000 		.word	gs_reg_rotation
 3269 065c 01000000 		.word	1
 3270 0660 000CFF05 		.word	100600832
 3271 0664 04000000 		.word	4
 3272 0668 00000000 		.word	0
 3273 066c 00000000 		.word	gs_all_custom_reg
 3274 0670 00000000 		.word	gs_explanation_custom
 3275 0674 00000000 		.word	0
 3276 0678 00000000 		.word	gs_reg_rotation
 3277 067c 00000000 		.word	0
 3278              		.section	.rodata.gs_all_custom,"a",%progbits
 3279              		.align	2
 3282              	gs_all_custom:
 3283 0000 43757374 		.ascii	"Custom Register Settings\000"
 3283      6F6D2052 
 3283      65676973 
 3283      74657220 
 3283      53657474 
 3284              		.section	.rodata.gs_all_custom_reg,"a",%progbits
 3285              		.align	2
 3288              	gs_all_custom_reg:
 3289 0000 52656769 		.ascii	"Register Setting of the  \000"
 3289      73746572 
 3289      20536574 
 3289      74696E67 
 3289      206F6620 
 3290              		.section	.rodata.gs_allparam,"a",%progbits
 3291              		.align	2
 3292              		.set	.LANCHOR6,. + 0
 3295              	gs_allparam:
 3296 0000 00       		.byte	0
 3297 0001 000000   		.space	3
 3298 0004 00000000 		.word	0
 3299 0008 B4000000 		.word	.LC40
 3300 000c 00000000 		.word	0
 3301 0010 00       		.byte	0
 3302 0011 000000   		.space	3
 3303 0014 00000000 		.word	0
 3304 0018 08010000 		.word	.LC41
 3305 001c 00000000 		.word	0
 3306 0020 00       		.byte	0
 3307 0021 000000   		.space	3
 3308 0024 00000000 		.word	0
 3309 0028 18010000 		.word	.LC42
 3310 002c 00000000 		.word	0
 3311 0030 00       		.byte	0
 3312 0031 000000   		.space	3
 3313 0034 00000000 		.word	0
 3314 0038 64010000 		.word	.LC43
 3315 003c 00000000 		.word	0
 3316 0040 00       		.byte	0
 3317 0041 000000   		.space	3
 3318 0044 00000000 		.word	0
 3319 0048 B4010000 		.word	.LC44
 3320 004c 00000000 		.word	0
 3321 0050 00       		.byte	0
 3322 0051 000000   		.space	3
 3323 0054 00000000 		.word	0
 3324 0058 04020000 		.word	.LC45
 3325 005c 00000000 		.word	0
 3326 0060 00       		.byte	0
 3327 0061 000000   		.space	3
 3328 0064 00000000 		.word	0
 3329 0068 38020000 		.word	.LC46
 3330 006c 00000000 		.word	0
 3331 0070 00       		.byte	0
 3332 0071 000000   		.space	3
 3333 0074 00000000 		.word	0
 3334 0078 88020000 		.word	.LC47
 3335 007c 00000000 		.word	0
 3336 0080 00       		.byte	0
 3337 0081 000000   		.space	3
 3338 0084 00000000 		.word	0
 3339 0088 D4020000 		.word	.LC48
 3340 008c 00000000 		.word	0
 3341 0090 00       		.byte	0
 3342 0091 000000   		.space	3
 3343 0094 00000000 		.word	0
 3344 0098 24030000 		.word	.LC49
 3345 009c 00000000 		.word	0
 3346 00a0 00       		.byte	0
 3347 00a1 000000   		.space	3
 3348 00a4 00000000 		.word	0
 3349 00a8 6C030000 		.word	.LC50
 3350 00ac 00000000 		.word	0
 3351 00b0 00       		.byte	0
 3352 00b1 000000   		.space	3
 3353 00b4 00000000 		.word	0
 3354 00b8 B8030000 		.word	.LC51
 3355 00bc 00000000 		.word	0
 3356 00c0 00       		.byte	0
 3357 00c1 000000   		.space	3
 3358 00c4 00000000 		.word	0
 3359 00c8 08040000 		.word	.LC52
 3360 00cc 00000000 		.word	0
 3361 00d0 00       		.byte	0
 3362 00d1 000000   		.space	3
 3363 00d4 00000000 		.word	0
 3364 00d8 58040000 		.word	.LC53
 3365 00dc 00000000 		.word	0
 3366 00e0 00       		.byte	0
 3367 00e1 000000   		.space	3
 3368 00e4 00000000 		.word	0
 3369 00e8 A8040000 		.word	.LC54
 3370 00ec 00000000 		.word	0
 3371 00f0 00       		.byte	0
 3372 00f1 000000   		.space	3
 3373 00f4 00000000 		.word	0
 3374 00f8 DC040000 		.word	.LC55
 3375 00fc 00000000 		.word	0
 3376 0100 00       		.byte	0
 3377 0101 000000   		.space	3
 3378 0104 00000000 		.word	0
 3379 0108 2C050000 		.word	.LC56
 3380 010c 00000000 		.word	0
 3381 0110 00       		.byte	0
 3382 0111 000000   		.space	3
 3383 0114 00000000 		.word	0
 3384 0118 7C050000 		.word	.LC57
 3385 011c 00000000 		.word	0
 3386 0120 00       		.byte	0
 3387 0121 000000   		.space	3
 3388 0124 00000000 		.word	0
 3389 0128 C8050000 		.word	.LC58
 3390 012c 00000000 		.word	0
 3391 0130 00       		.byte	0
 3392 0131 000000   		.space	3
 3393 0134 00000000 		.word	0
 3394 0138 DC050000 		.word	.LC59
 3395 013c 00000000 		.word	0
 3396 0140 00       		.byte	0
 3397 0141 000000   		.space	3
 3398 0144 00000000 		.word	0
 3399 0148 00060000 		.word	.LC60
 3400 014c 00000000 		.word	0
 3401 0150 00       		.byte	0
 3402 0151 000000   		.space	3
 3403 0154 00000000 		.word	0
 3404 0158 04060000 		.word	.LC61
 3405 015c 00000000 		.word	0
 3406 0160 00       		.byte	0
 3407 0161 000000   		.space	3
 3408 0164 00000000 		.word	0
 3409 0168 50060000 		.word	.LC62
 3410 016c 00000000 		.word	0
 3411 0170 00       		.byte	0
 3412 0171 000000   		.space	3
 3413 0174 00000000 		.word	0
 3414 0178 A4060000 		.word	.LC63
 3415 017c 00000000 		.word	0
 3416 0180 00       		.byte	0
 3417 0181 000000   		.space	3
 3418 0184 00000000 		.word	0
 3419 0188 F4060000 		.word	.LC64
 3420 018c 00000000 		.word	0
 3421 0190 00       		.byte	0
 3422 0191 000000   		.space	3
 3423 0194 00000000 		.word	0
 3424 0198 18070000 		.word	.LC65
 3425 019c 00000000 		.word	0
 3426 01a0 00       		.byte	0
 3427 01a1 000000   		.space	3
 3428 01a4 00000000 		.word	0
 3429 01a8 48070000 		.word	.LC66
 3430 01ac 00000000 		.word	0
 3431 01b0 00       		.byte	0
 3432 01b1 000000   		.space	3
 3433 01b4 00000000 		.word	0
 3434 01b8 98070000 		.word	.LC67
 3435 01bc 00000000 		.word	0
 3436 01c0 00       		.byte	0
 3437 01c1 000000   		.space	3
 3438 01c4 00000000 		.word	0
 3439 01c8 B0070000 		.word	.LC68
 3440 01cc 00000000 		.word	0
 3441 01d0 00       		.byte	0
 3442 01d1 000000   		.space	3
 3443 01d4 00000000 		.word	0
 3444 01d8 C8070000 		.word	.LC69
 3445 01dc 00000000 		.word	0
 3446 01e0 00       		.byte	0
 3447 01e1 000000   		.space	3
 3448 01e4 00000000 		.word	0
 3449 01e8 1C080000 		.word	.LC70
 3450 01ec 00000000 		.word	0
 3451 01f0 00       		.byte	0
 3452 01f1 000000   		.space	3
 3453 01f4 00000000 		.word	0
 3454 01f8 48070000 		.word	.LC66
 3455 01fc 00000000 		.word	0
 3456 0200 00       		.byte	0
 3457 0201 000000   		.space	3
 3458 0204 00000000 		.word	0
 3459 0208 50080000 		.word	.LC71
 3460 020c 00000000 		.word	0
 3461 0210 00       		.byte	0
 3462 0211 000000   		.space	3
 3463 0214 00000000 		.word	0
 3464 0218 68080000 		.word	.LC72
 3465 021c 00000000 		.word	0
 3466 0220 00       		.byte	0
 3467 0221 000000   		.space	3
 3468 0224 00000000 		.word	0
 3469 0228 C8070000 		.word	.LC69
 3470 022c 00000000 		.word	0
 3471 0230 00       		.byte	0
 3472 0231 000000   		.space	3
 3473 0234 00000000 		.word	0
 3474 0238 84080000 		.word	.LC73
 3475 023c 00000000 		.word	0
 3476 0240 00       		.byte	0
 3477 0241 000000   		.space	3
 3478 0244 00000000 		.word	0
 3479 0248 48070000 		.word	.LC66
 3480 024c 00000000 		.word	0
 3481 0250 00       		.byte	0
 3482 0251 000000   		.space	3
 3483 0254 00000000 		.word	0
 3484 0258 98080000 		.word	.LC74
 3485 025c 00000000 		.word	0
 3486 0260 00       		.byte	0
 3487 0261 000000   		.space	3
 3488 0264 00000000 		.word	0
 3489 0268 B4080000 		.word	.LC75
 3490 026c 00000000 		.word	0
 3491 0270 00       		.byte	0
 3492 0271 000000   		.space	3
 3493 0274 00000000 		.word	0
 3494 0278 CC080000 		.word	.LC76
 3495 027c 00000000 		.word	0
 3496 0280 01       		.byte	1
 3497 0281 000000   		.space	3
 3498 0284 00000000 		.word	gs_reg_input_mtx_mode
 3499 0288 30090000 		.word	.LC77
 3500 028c 00000000 		.word	gsp_bright_input_mode_list
 3501 0290 01       		.byte	1
 3502 0291 000000   		.space	3
 3503 0294 00000000 		.word	gs_reg_bright_in
 3504 0298 60090000 		.word	.LC78
 3505 029c 00000000 		.word	0
 3506 02a0 00       		.byte	0
 3507 02a1 000000   		.space	3
 3508 02a4 00000000 		.word	0
 3509 02a8 90090000 		.word	.LC79
 3510 02ac 00000000 		.word	0
 3511 02b0 00       		.byte	0
 3512 02b1 000000   		.space	3
 3513 02b4 00000000 		.word	0
 3514 02b8 200A0000 		.word	.LC80
 3515 02bc 00000000 		.word	0
 3516 02c0 01       		.byte	1
 3517 02c1 000000   		.space	3
 3518 02c4 00000000 		.word	gs_reg_cont_in
 3519 02c8 B00A0000 		.word	.LC81
 3520 02cc 00000000 		.word	0
 3521 02d0 00       		.byte	0
 3522 02d1 000000   		.space	3
 3523 02d4 00000000 		.word	0
 3524 02d8 E00A0000 		.word	.LC82
 3525 02dc 00000000 		.word	0
 3526 02e0 00       		.byte	0
 3527 02e1 000000   		.space	3
 3528 02e4 00000000 		.word	0
 3529 02e8 700B0000 		.word	.LC83
 3530 02ec 00000000 		.word	0
 3531 02f0 00       		.byte	0
 3532 02f1 000000   		.space	3
 3533 02f4 00000000 		.word	0
 3534 02f8 000C0000 		.word	.LC84
 3535 02fc 00000000 		.word	0
 3536 0300 00       		.byte	0
 3537 0301 000000   		.space	3
 3538 0304 00000000 		.word	0
 3539 0308 900C0000 		.word	.LC85
 3540 030c 00000000 		.word	0
 3541 0310 00       		.byte	0
 3542 0311 000000   		.space	3
 3543 0314 00000000 		.word	0
 3544 0318 200D0000 		.word	.LC86
 3545 031c 00000000 		.word	0
 3546 0320 00       		.byte	0
 3547 0321 000000   		.space	3
 3548 0324 00000000 		.word	0
 3549 0328 B00D0000 		.word	.LC87
 3550 032c 00000000 		.word	0
 3551 0330 00       		.byte	0
 3552 0331 000000   		.space	3
 3553 0334 00000000 		.word	0
 3554 0338 400E0000 		.word	.LC88
 3555 033c 00000000 		.word	0
 3556 0340 00       		.byte	0
 3557 0341 000000   		.space	3
 3558 0344 00000000 		.word	0
 3559 0348 D00E0000 		.word	.LC89
 3560 034c 00000000 		.word	0
 3561 0350 00       		.byte	0
 3562 0351 000000   		.space	3
 3563 0354 00000000 		.word	0
 3564 0358 600F0000 		.word	.LC90
 3565 035c 00000000 		.word	0
 3566 0360 01       		.byte	1
 3567 0361 000000   		.space	3
 3568 0364 00000000 		.word	gs_reg_bright_out
 3569 0368 F00F0000 		.word	.LC91
 3570 036c 00000000 		.word	0
 3571 0370 01       		.byte	1
 3572 0371 000000   		.space	3
 3573 0374 30000000 		.word	gs_reg_bright_out+48
 3574 0378 20100000 		.word	.LC92
 3575 037c 00000000 		.word	0
 3576 0380 01       		.byte	1
 3577 0381 000000   		.space	3
 3578 0384 60000000 		.word	gs_reg_bright_out+96
 3579 0388 50100000 		.word	.LC93
 3580 038c 00000000 		.word	0
 3581 0390 01       		.byte	1
 3582 0391 000000   		.space	3
 3583 0394 00000000 		.word	gs_reg_cont_out
 3584 0398 80100000 		.word	.LC94
 3585 039c 00000000 		.word	0
 3586 03a0 01       		.byte	1
 3587 03a1 000000   		.space	3
 3588 03a4 30000000 		.word	gs_reg_cont_out+48
 3589 03a8 B0100000 		.word	.LC95
 3590 03ac 00000000 		.word	0
 3591 03b0 01       		.byte	1
 3592 03b1 000000   		.space	3
 3593 03b4 60000000 		.word	gs_reg_cont_out+96
 3594 03b8 E0100000 		.word	.LC96
 3595 03bc 00000000 		.word	0
 3596 03c0 00       		.byte	0
 3597 03c1 000000   		.space	3
 3598 03c4 00000000 		.word	0
 3599 03c8 10110000 		.word	.LC97
 3600 03cc 00000000 		.word	0
 3601 03d0 00       		.byte	0
 3602 03d1 000000   		.space	3
 3603 03d4 00000000 		.word	0
 3604 03d8 2C110000 		.word	.LC98
 3605 03dc 00000000 		.word	0
 3606 03e0 01       		.byte	1
 3607 03e1 000000   		.space	3
 3608 03e4 00000000 		.word	gs_reg_sharpness
 3609 03e8 90110000 		.word	.LC99
 3610 03ec 00000000 		.word	gsp_function_on_off_list
 3611 03f0 01       		.byte	1
 3612 03f1 000000   		.space	3
 3613 03f4 30000000 		.word	gs_reg_sharpness+48
 3614 03f8 C0110000 		.word	.LC100
 3615 03fc 00000000 		.word	0
 3616 0400 01       		.byte	1
 3617 0401 000000   		.space	3
 3618 0404 60000000 		.word	gs_reg_sharpness+96
 3619 0408 F0110000 		.word	.LC101
 3620 040c 00000000 		.word	0
 3621 0410 01       		.byte	1
 3622 0411 000000   		.space	3
 3623 0414 90000000 		.word	gs_reg_sharpness+144
 3624 0418 20120000 		.word	.LC102
 3625 041c 00000000 		.word	0
 3626 0420 01       		.byte	1
 3627 0421 000000   		.space	3
 3628 0424 C0000000 		.word	gs_reg_sharpness+192
 3629 0428 50120000 		.word	.LC103
 3630 042c 00000000 		.word	0
 3631 0430 01       		.byte	1
 3632 0431 000000   		.space	3
 3633 0434 F0000000 		.word	gs_reg_sharpness+240
 3634 0438 80120000 		.word	.LC104
 3635 043c 00000000 		.word	0
 3636 0440 01       		.byte	1
 3637 0441 000000   		.space	3
 3638 0444 20010000 		.word	gs_reg_sharpness+288
 3639 0448 B0120000 		.word	.LC105
 3640 044c 00000000 		.word	gsp_function_on_off_list
 3641 0450 01       		.byte	1
 3642 0451 000000   		.space	3
 3643 0454 50010000 		.word	gs_reg_sharpness+336
 3644 0458 E0120000 		.word	.LC106
 3645 045c 00000000 		.word	0
 3646 0460 01       		.byte	1
 3647 0461 000000   		.space	3
 3648 0464 80010000 		.word	gs_reg_sharpness+384
 3649 0468 10130000 		.word	.LC107
 3650 046c 00000000 		.word	0
 3651 0470 01       		.byte	1
 3652 0471 000000   		.space	3
 3653 0474 B0010000 		.word	gs_reg_sharpness+432
 3654 0478 40130000 		.word	.LC108
 3655 047c 00000000 		.word	0
 3656 0480 01       		.byte	1
 3657 0481 000000   		.space	3
 3658 0484 E0010000 		.word	gs_reg_sharpness+480
 3659 0488 70130000 		.word	.LC109
 3660 048c 00000000 		.word	0
 3661 0490 01       		.byte	1
 3662 0491 000000   		.space	3
 3663 0494 10020000 		.word	gs_reg_sharpness+528
 3664 0498 A0130000 		.word	.LC110
 3665 049c 00000000 		.word	0
 3666 04a0 01       		.byte	1
 3667 04a1 000000   		.space	3
 3668 04a4 40020000 		.word	gs_reg_sharpness+576
 3669 04a8 D0130000 		.word	.LC111
 3670 04ac 00000000 		.word	0
 3671 04b0 01       		.byte	1
 3672 04b1 000000   		.space	3
 3673 04b4 70020000 		.word	gs_reg_sharpness+624
 3674 04b8 00140000 		.word	.LC112
 3675 04bc 00000000 		.word	0
 3676 04c0 01       		.byte	1
 3677 04c1 000000   		.space	3
 3678 04c4 A0020000 		.word	gs_reg_sharpness+672
 3679 04c8 30140000 		.word	.LC113
 3680 04cc 00000000 		.word	0
 3681 04d0 01       		.byte	1
 3682 04d1 000000   		.space	3
 3683 04d4 D0020000 		.word	gs_reg_sharpness+720
 3684 04d8 60140000 		.word	.LC114
 3685 04dc 00000000 		.word	0
 3686 04e0 01       		.byte	1
 3687 04e1 000000   		.space	3
 3688 04e4 00030000 		.word	gs_reg_sharpness+768
 3689 04e8 90140000 		.word	.LC115
 3690 04ec 00000000 		.word	0
 3691 04f0 01       		.byte	1
 3692 04f1 000000   		.space	3
 3693 04f4 30030000 		.word	gs_reg_sharpness+816
 3694 04f8 C0140000 		.word	.LC116
 3695 04fc 00000000 		.word	gsp_function_on_off_list
 3696 0500 01       		.byte	1
 3697 0501 000000   		.space	3
 3698 0504 60030000 		.word	gs_reg_sharpness+864
 3699 0508 F0140000 		.word	.LC117
 3700 050c 00000000 		.word	gsp_function_on_off_list
 3701 0510 01       		.byte	1
 3702 0511 000000   		.space	3
 3703 0514 90030000 		.word	gs_reg_sharpness+912
 3704 0518 20150000 		.word	.LC118
 3705 051c 00000000 		.word	0
 3706 0520 01       		.byte	1
 3707 0521 000000   		.space	3
 3708 0524 C0030000 		.word	gs_reg_sharpness+960
 3709 0528 50150000 		.word	.LC119
 3710 052c 00000000 		.word	0
 3711 0530 01       		.byte	1
 3712 0531 000000   		.space	3
 3713 0534 F0030000 		.word	gs_reg_sharpness+1008
 3714 0538 80150000 		.word	.LC120
 3715 053c 00000000 		.word	0
 3716 0540 01       		.byte	1
 3717 0541 000000   		.space	3
 3718 0544 20040000 		.word	gs_reg_sharpness+1056
 3719 0548 B0150000 		.word	.LC121
 3720 054c 00000000 		.word	gsp_median_tap_sel_list
 3721 0550 01       		.byte	1
 3722 0551 000000   		.space	3
 3723 0554 50040000 		.word	gs_reg_sharpness+1104
 3724 0558 E0150000 		.word	.LC122
 3725 055c 00000000 		.word	0
 3726 0560 01       		.byte	1
 3727 0561 000000   		.space	3
 3728 0564 80040000 		.word	gs_reg_sharpness+1152
 3729 0568 10160000 		.word	.LC123
 3730 056c 00000000 		.word	0
 3731 0570 01       		.byte	1
 3732 0571 000000   		.space	3
 3733 0574 B0040000 		.word	gs_reg_sharpness+1200
 3734 0578 40160000 		.word	.LC124
 3735 057c 00000000 		.word	0
 3736 0580 00       		.byte	0
 3737 0581 000000   		.space	3
 3738 0584 00000000 		.word	0
 3739 0588 70160000 		.word	.LC125
 3740 058c 00000000 		.word	0
 3741 0590 00       		.byte	0
 3742 0591 000000   		.space	3
 3743 0594 00000000 		.word	0
 3744 0598 D4160000 		.word	.LC126
 3745 059c 00000000 		.word	0
 3746 05a0 00       		.byte	0
 3747 05a1 000000   		.space	3
 3748 05a4 00000000 		.word	0
 3749 05a8 38170000 		.word	.LC127
 3750 05ac 00000000 		.word	0
 3751 05b0 00       		.byte	0
 3752 05b1 000000   		.space	3
 3753 05b4 00000000 		.word	0
 3754 05b8 9C170000 		.word	.LC128
 3755 05bc 00000000 		.word	0
 3756 05c0 00       		.byte	0
 3757 05c1 000000   		.space	3
 3758 05c4 00000000 		.word	0
 3759 05c8 00180000 		.word	.LC129
 3760 05cc 00000000 		.word	0
 3761 05d0 01       		.byte	1
 3762 05d1 000000   		.space	3
 3763 05d4 00000000 		.word	gs_reg_gamma
 3764 05d8 18180000 		.word	.LC130
 3765 05dc 00000000 		.word	gsp_function_on_off_list
 3766 05e0 01       		.byte	1
 3767 05e1 000000   		.space	3
 3768 05e4 00060000 		.word	gs_reg_gamma+1536
 3769 05e8 48180000 		.word	.LC131
 3770 05ec 00000000 		.word	0
 3771 05f0 01       		.byte	1
 3772 05f1 000000   		.space	3
 3773 05f4 30060000 		.word	gs_reg_gamma+1584
 3774 05f8 78180000 		.word	.LC132
 3775 05fc 00000000 		.word	0
 3776 0600 01       		.byte	1
 3777 0601 000000   		.space	3
 3778 0604 60060000 		.word	gs_reg_gamma+1632
 3779 0608 A8180000 		.word	.LC133
 3780 060c 00000000 		.word	0
 3781 0610 01       		.byte	1
 3782 0611 000000   		.space	3
 3783 0614 90060000 		.word	gs_reg_gamma+1680
 3784 0618 D8180000 		.word	.LC134
 3785 061c 00000000 		.word	0
 3786 0620 01       		.byte	1
 3787 0621 000000   		.space	3
 3788 0624 C0060000 		.word	gs_reg_gamma+1728
 3789 0628 08190000 		.word	.LC135
 3790 062c 00000000 		.word	0
 3791 0630 01       		.byte	1
 3792 0631 000000   		.space	3
 3793 0634 F0060000 		.word	gs_reg_gamma+1776
 3794 0638 38190000 		.word	.LC136
 3795 063c 00000000 		.word	0
 3796 0640 01       		.byte	1
 3797 0641 000000   		.space	3
 3798 0644 20070000 		.word	gs_reg_gamma+1824
 3799 0648 68190000 		.word	.LC137
 3800 064c 00000000 		.word	0
 3801 0650 01       		.byte	1
 3802 0651 000000   		.space	3
 3803 0654 50070000 		.word	gs_reg_gamma+1872
 3804 0658 98190000 		.word	.LC138
 3805 065c 00000000 		.word	0
 3806 0660 01       		.byte	1
 3807 0661 000000   		.space	3
 3808 0664 80070000 		.word	gs_reg_gamma+1920
 3809 0668 C8190000 		.word	.LC139
 3810 066c 00000000 		.word	0
 3811 0670 01       		.byte	1
 3812 0671 000000   		.space	3
 3813 0674 B0070000 		.word	gs_reg_gamma+1968
 3814 0678 F8190000 		.word	.LC140
 3815 067c 00000000 		.word	0
 3816 0680 01       		.byte	1
 3817 0681 000000   		.space	3
 3818 0684 E0070000 		.word	gs_reg_gamma+2016
 3819 0688 281A0000 		.word	.LC141
 3820 068c 00000000 		.word	0
 3821 0690 01       		.byte	1
 3822 0691 000000   		.space	3
 3823 0694 10080000 		.word	gs_reg_gamma+2064
 3824 0698 581A0000 		.word	.LC142
 3825 069c 00000000 		.word	0
 3826 06a0 01       		.byte	1
 3827 06a1 000000   		.space	3
 3828 06a4 40080000 		.word	gs_reg_gamma+2112
 3829 06a8 881A0000 		.word	.LC143
 3830 06ac 00000000 		.word	0
 3831 06b0 01       		.byte	1
 3832 06b1 000000   		.space	3
 3833 06b4 70080000 		.word	gs_reg_gamma+2160
 3834 06b8 B81A0000 		.word	.LC144
 3835 06bc 00000000 		.word	0
 3836 06c0 01       		.byte	1
 3837 06c1 000000   		.space	3
 3838 06c4 A0080000 		.word	gs_reg_gamma+2208
 3839 06c8 E81A0000 		.word	.LC145
 3840 06cc 00000000 		.word	0
 3841 06d0 01       		.byte	1
 3842 06d1 000000   		.space	3
 3843 06d4 D0080000 		.word	gs_reg_gamma+2256
 3844 06d8 181B0000 		.word	.LC146
 3845 06dc 00000000 		.word	0
 3846 06e0 01       		.byte	1
 3847 06e1 000000   		.space	3
 3848 06e4 00090000 		.word	gs_reg_gamma+2304
 3849 06e8 481B0000 		.word	.LC147
 3850 06ec 00000000 		.word	0
 3851 06f0 01       		.byte	1
 3852 06f1 000000   		.space	3
 3853 06f4 30090000 		.word	gs_reg_gamma+2352
 3854 06f8 781B0000 		.word	.LC148
 3855 06fc 00000000 		.word	0
 3856 0700 01       		.byte	1
 3857 0701 000000   		.space	3
 3858 0704 60090000 		.word	gs_reg_gamma+2400
 3859 0708 A81B0000 		.word	.LC149
 3860 070c 00000000 		.word	0
 3861 0710 01       		.byte	1
 3862 0711 000000   		.space	3
 3863 0714 90090000 		.word	gs_reg_gamma+2448
 3864 0718 D81B0000 		.word	.LC150
 3865 071c 00000000 		.word	0
 3866 0720 01       		.byte	1
 3867 0721 000000   		.space	3
 3868 0724 C0090000 		.word	gs_reg_gamma+2496
 3869 0728 081C0000 		.word	.LC151
 3870 072c 00000000 		.word	0
 3871 0730 01       		.byte	1
 3872 0731 000000   		.space	3
 3873 0734 F0090000 		.word	gs_reg_gamma+2544
 3874 0738 381C0000 		.word	.LC152
 3875 073c 00000000 		.word	0
 3876 0740 01       		.byte	1
 3877 0741 000000   		.space	3
 3878 0744 200A0000 		.word	gs_reg_gamma+2592
 3879 0748 681C0000 		.word	.LC153
 3880 074c 00000000 		.word	0
 3881 0750 01       		.byte	1
 3882 0751 000000   		.space	3
 3883 0754 500A0000 		.word	gs_reg_gamma+2640
 3884 0758 981C0000 		.word	.LC154
 3885 075c 00000000 		.word	0
 3886 0760 01       		.byte	1
 3887 0761 000000   		.space	3
 3888 0764 800A0000 		.word	gs_reg_gamma+2688
 3889 0768 C81C0000 		.word	.LC155
 3890 076c 00000000 		.word	0
 3891 0770 01       		.byte	1
 3892 0771 000000   		.space	3
 3893 0774 B00A0000 		.word	gs_reg_gamma+2736
 3894 0778 F81C0000 		.word	.LC156
 3895 077c 00000000 		.word	0
 3896 0780 01       		.byte	1
 3897 0781 000000   		.space	3
 3898 0784 E00A0000 		.word	gs_reg_gamma+2784
 3899 0788 281D0000 		.word	.LC157
 3900 078c 00000000 		.word	0
 3901 0790 01       		.byte	1
 3902 0791 000000   		.space	3
 3903 0794 100B0000 		.word	gs_reg_gamma+2832
 3904 0798 581D0000 		.word	.LC158
 3905 079c 00000000 		.word	0
 3906 07a0 01       		.byte	1
 3907 07a1 000000   		.space	3
 3908 07a4 400B0000 		.word	gs_reg_gamma+2880
 3909 07a8 881D0000 		.word	.LC159
 3910 07ac 00000000 		.word	0
 3911 07b0 01       		.byte	1
 3912 07b1 000000   		.space	3
 3913 07b4 700B0000 		.word	gs_reg_gamma+2928
 3914 07b8 B81D0000 		.word	.LC160
 3915 07bc 00000000 		.word	0
 3916 07c0 01       		.byte	1
 3917 07c1 000000   		.space	3
 3918 07c4 A00B0000 		.word	gs_reg_gamma+2976
 3919 07c8 E81D0000 		.word	.LC161
 3920 07cc 00000000 		.word	0
 3921 07d0 01       		.byte	1
 3922 07d1 000000   		.space	3
 3923 07d4 D00B0000 		.word	gs_reg_gamma+3024
 3924 07d8 181E0000 		.word	.LC162
 3925 07dc 00000000 		.word	0
 3926 07e0 01       		.byte	1
 3927 07e1 000000   		.space	3
 3928 07e4 30000000 		.word	gs_reg_gamma+48
 3929 07e8 481E0000 		.word	.LC163
 3930 07ec 00000000 		.word	0
 3931 07f0 01       		.byte	1
 3932 07f1 000000   		.space	3
 3933 07f4 60000000 		.word	gs_reg_gamma+96
 3934 07f8 781E0000 		.word	.LC164
 3935 07fc 00000000 		.word	0
 3936 0800 01       		.byte	1
 3937 0801 000000   		.space	3
 3938 0804 90000000 		.word	gs_reg_gamma+144
 3939 0808 A81E0000 		.word	.LC165
 3940 080c 00000000 		.word	0
 3941 0810 01       		.byte	1
 3942 0811 000000   		.space	3
 3943 0814 C0000000 		.word	gs_reg_gamma+192
 3944 0818 D81E0000 		.word	.LC166
 3945 081c 00000000 		.word	0
 3946 0820 01       		.byte	1
 3947 0821 000000   		.space	3
 3948 0824 F0000000 		.word	gs_reg_gamma+240
 3949 0828 081F0000 		.word	.LC167
 3950 082c 00000000 		.word	0
 3951 0830 01       		.byte	1
 3952 0831 000000   		.space	3
 3953 0834 20010000 		.word	gs_reg_gamma+288
 3954 0838 381F0000 		.word	.LC168
 3955 083c 00000000 		.word	0
 3956 0840 01       		.byte	1
 3957 0841 000000   		.space	3
 3958 0844 50010000 		.word	gs_reg_gamma+336
 3959 0848 681F0000 		.word	.LC169
 3960 084c 00000000 		.word	0
 3961 0850 01       		.byte	1
 3962 0851 000000   		.space	3
 3963 0854 80010000 		.word	gs_reg_gamma+384
 3964 0858 981F0000 		.word	.LC170
 3965 085c 00000000 		.word	0
 3966 0860 01       		.byte	1
 3967 0861 000000   		.space	3
 3968 0864 B0010000 		.word	gs_reg_gamma+432
 3969 0868 C81F0000 		.word	.LC171
 3970 086c 00000000 		.word	0
 3971 0870 01       		.byte	1
 3972 0871 000000   		.space	3
 3973 0874 E0010000 		.word	gs_reg_gamma+480
 3974 0878 F81F0000 		.word	.LC172
 3975 087c 00000000 		.word	0
 3976 0880 01       		.byte	1
 3977 0881 000000   		.space	3
 3978 0884 10020000 		.word	gs_reg_gamma+528
 3979 0888 28200000 		.word	.LC173
 3980 088c 00000000 		.word	0
 3981 0890 01       		.byte	1
 3982 0891 000000   		.space	3
 3983 0894 40020000 		.word	gs_reg_gamma+576
 3984 0898 58200000 		.word	.LC174
 3985 089c 00000000 		.word	0
 3986 08a0 01       		.byte	1
 3987 08a1 000000   		.space	3
 3988 08a4 70020000 		.word	gs_reg_gamma+624
 3989 08a8 88200000 		.word	.LC175
 3990 08ac 00000000 		.word	0
 3991 08b0 01       		.byte	1
 3992 08b1 000000   		.space	3
 3993 08b4 A0020000 		.word	gs_reg_gamma+672
 3994 08b8 B8200000 		.word	.LC176
 3995 08bc 00000000 		.word	0
 3996 08c0 01       		.byte	1
 3997 08c1 000000   		.space	3
 3998 08c4 D0020000 		.word	gs_reg_gamma+720
 3999 08c8 E8200000 		.word	.LC177
 4000 08cc 00000000 		.word	0
 4001 08d0 01       		.byte	1
 4002 08d1 000000   		.space	3
 4003 08d4 00030000 		.word	gs_reg_gamma+768
 4004 08d8 18210000 		.word	.LC178
 4005 08dc 00000000 		.word	0
 4006 08e0 01       		.byte	1
 4007 08e1 000000   		.space	3
 4008 08e4 30030000 		.word	gs_reg_gamma+816
 4009 08e8 48210000 		.word	.LC179
 4010 08ec 00000000 		.word	0
 4011 08f0 01       		.byte	1
 4012 08f1 000000   		.space	3
 4013 08f4 60030000 		.word	gs_reg_gamma+864
 4014 08f8 78210000 		.word	.LC180
 4015 08fc 00000000 		.word	0
 4016 0900 01       		.byte	1
 4017 0901 000000   		.space	3
 4018 0904 90030000 		.word	gs_reg_gamma+912
 4019 0908 A8210000 		.word	.LC181
 4020 090c 00000000 		.word	0
 4021 0910 01       		.byte	1
 4022 0911 000000   		.space	3
 4023 0914 C0030000 		.word	gs_reg_gamma+960
 4024 0918 D8210000 		.word	.LC182
 4025 091c 00000000 		.word	0
 4026 0920 01       		.byte	1
 4027 0921 000000   		.space	3
 4028 0924 F0030000 		.word	gs_reg_gamma+1008
 4029 0928 08220000 		.word	.LC183
 4030 092c 00000000 		.word	0
 4031 0930 01       		.byte	1
 4032 0931 000000   		.space	3
 4033 0934 20040000 		.word	gs_reg_gamma+1056
 4034 0938 38220000 		.word	.LC184
 4035 093c 00000000 		.word	0
 4036 0940 01       		.byte	1
 4037 0941 000000   		.space	3
 4038 0944 50040000 		.word	gs_reg_gamma+1104
 4039 0948 68220000 		.word	.LC185
 4040 094c 00000000 		.word	0
 4041 0950 01       		.byte	1
 4042 0951 000000   		.space	3
 4043 0954 80040000 		.word	gs_reg_gamma+1152
 4044 0958 98220000 		.word	.LC186
 4045 095c 00000000 		.word	0
 4046 0960 01       		.byte	1
 4047 0961 000000   		.space	3
 4048 0964 B0040000 		.word	gs_reg_gamma+1200
 4049 0968 C8220000 		.word	.LC187
 4050 096c 00000000 		.word	0
 4051 0970 01       		.byte	1
 4052 0971 000000   		.space	3
 4053 0974 E0040000 		.word	gs_reg_gamma+1248
 4054 0978 F8220000 		.word	.LC188
 4055 097c 00000000 		.word	0
 4056 0980 01       		.byte	1
 4057 0981 000000   		.space	3
 4058 0984 10050000 		.word	gs_reg_gamma+1296
 4059 0988 28230000 		.word	.LC189
 4060 098c 00000000 		.word	0
 4061 0990 01       		.byte	1
 4062 0991 000000   		.space	3
 4063 0994 40050000 		.word	gs_reg_gamma+1344
 4064 0998 58230000 		.word	.LC190
 4065 099c 00000000 		.word	0
 4066 09a0 01       		.byte	1
 4067 09a1 000000   		.space	3
 4068 09a4 70050000 		.word	gs_reg_gamma+1392
 4069 09a8 88230000 		.word	.LC191
 4070 09ac 00000000 		.word	0
 4071 09b0 01       		.byte	1
 4072 09b1 000000   		.space	3
 4073 09b4 A0050000 		.word	gs_reg_gamma+1440
 4074 09b8 B8230000 		.word	.LC192
 4075 09bc 00000000 		.word	0
 4076 09c0 01       		.byte	1
 4077 09c1 000000   		.space	3
 4078 09c4 D0050000 		.word	gs_reg_gamma+1488
 4079 09c8 E8230000 		.word	.LC193
 4080 09cc 00000000 		.word	0
 4081 09d0 01       		.byte	1
 4082 09d1 000000   		.space	3
 4083 09d4 D0110000 		.word	gs_reg_gamma+4560
 4084 09d8 18240000 		.word	.LC194
 4085 09dc 00000000 		.word	0
 4086 09e0 01       		.byte	1
 4087 09e1 000000   		.space	3
 4088 09e4 00120000 		.word	gs_reg_gamma+4608
 4089 09e8 48240000 		.word	.LC195
 4090 09ec 00000000 		.word	0
 4091 09f0 01       		.byte	1
 4092 09f1 000000   		.space	3
 4093 09f4 30120000 		.word	gs_reg_gamma+4656
 4094 09f8 78240000 		.word	.LC196
 4095 09fc 00000000 		.word	0
 4096 0a00 01       		.byte	1
 4097 0a01 000000   		.space	3
 4098 0a04 60120000 		.word	gs_reg_gamma+4704
 4099 0a08 A8240000 		.word	.LC197
 4100 0a0c 00000000 		.word	0
 4101 0a10 01       		.byte	1
 4102 0a11 000000   		.space	3
 4103 0a14 90120000 		.word	gs_reg_gamma+4752
 4104 0a18 D8240000 		.word	.LC198
 4105 0a1c 00000000 		.word	0
 4106 0a20 01       		.byte	1
 4107 0a21 000000   		.space	3
 4108 0a24 C0120000 		.word	gs_reg_gamma+4800
 4109 0a28 08250000 		.word	.LC199
 4110 0a2c 00000000 		.word	0
 4111 0a30 01       		.byte	1
 4112 0a31 000000   		.space	3
 4113 0a34 F0120000 		.word	gs_reg_gamma+4848
 4114 0a38 38250000 		.word	.LC200
 4115 0a3c 00000000 		.word	0
 4116 0a40 01       		.byte	1
 4117 0a41 000000   		.space	3
 4118 0a44 20130000 		.word	gs_reg_gamma+4896
 4119 0a48 68250000 		.word	.LC201
 4120 0a4c 00000000 		.word	0
 4121 0a50 01       		.byte	1
 4122 0a51 000000   		.space	3
 4123 0a54 50130000 		.word	gs_reg_gamma+4944
 4124 0a58 98250000 		.word	.LC202
 4125 0a5c 00000000 		.word	0
 4126 0a60 01       		.byte	1
 4127 0a61 000000   		.space	3
 4128 0a64 80130000 		.word	gs_reg_gamma+4992
 4129 0a68 C8250000 		.word	.LC203
 4130 0a6c 00000000 		.word	0
 4131 0a70 01       		.byte	1
 4132 0a71 000000   		.space	3
 4133 0a74 B0130000 		.word	gs_reg_gamma+5040
 4134 0a78 F8250000 		.word	.LC204
 4135 0a7c 00000000 		.word	0
 4136 0a80 01       		.byte	1
 4137 0a81 000000   		.space	3
 4138 0a84 E0130000 		.word	gs_reg_gamma+5088
 4139 0a88 28260000 		.word	.LC205
 4140 0a8c 00000000 		.word	0
 4141 0a90 01       		.byte	1
 4142 0a91 000000   		.space	3
 4143 0a94 10140000 		.word	gs_reg_gamma+5136
 4144 0a98 58260000 		.word	.LC206
 4145 0a9c 00000000 		.word	0
 4146 0aa0 01       		.byte	1
 4147 0aa1 000000   		.space	3
 4148 0aa4 40140000 		.word	gs_reg_gamma+5184
 4149 0aa8 88260000 		.word	.LC207
 4150 0aac 00000000 		.word	0
 4151 0ab0 01       		.byte	1
 4152 0ab1 000000   		.space	3
 4153 0ab4 70140000 		.word	gs_reg_gamma+5232
 4154 0ab8 B8260000 		.word	.LC208
 4155 0abc 00000000 		.word	0
 4156 0ac0 01       		.byte	1
 4157 0ac1 000000   		.space	3
 4158 0ac4 A0140000 		.word	gs_reg_gamma+5280
 4159 0ac8 E8260000 		.word	.LC209
 4160 0acc 00000000 		.word	0
 4161 0ad0 01       		.byte	1
 4162 0ad1 000000   		.space	3
 4163 0ad4 D0140000 		.word	gs_reg_gamma+5328
 4164 0ad8 18270000 		.word	.LC210
 4165 0adc 00000000 		.word	0
 4166 0ae0 01       		.byte	1
 4167 0ae1 000000   		.space	3
 4168 0ae4 00150000 		.word	gs_reg_gamma+5376
 4169 0ae8 48270000 		.word	.LC211
 4170 0aec 00000000 		.word	0
 4171 0af0 01       		.byte	1
 4172 0af1 000000   		.space	3
 4173 0af4 30150000 		.word	gs_reg_gamma+5424
 4174 0af8 78270000 		.word	.LC212
 4175 0afc 00000000 		.word	0
 4176 0b00 01       		.byte	1
 4177 0b01 000000   		.space	3
 4178 0b04 60150000 		.word	gs_reg_gamma+5472
 4179 0b08 A8270000 		.word	.LC213
 4180 0b0c 00000000 		.word	0
 4181 0b10 01       		.byte	1
 4182 0b11 000000   		.space	3
 4183 0b14 90150000 		.word	gs_reg_gamma+5520
 4184 0b18 D8270000 		.word	.LC214
 4185 0b1c 00000000 		.word	0
 4186 0b20 01       		.byte	1
 4187 0b21 000000   		.space	3
 4188 0b24 C0150000 		.word	gs_reg_gamma+5568
 4189 0b28 08280000 		.word	.LC215
 4190 0b2c 00000000 		.word	0
 4191 0b30 01       		.byte	1
 4192 0b31 000000   		.space	3
 4193 0b34 F0150000 		.word	gs_reg_gamma+5616
 4194 0b38 38280000 		.word	.LC216
 4195 0b3c 00000000 		.word	0
 4196 0b40 01       		.byte	1
 4197 0b41 000000   		.space	3
 4198 0b44 20160000 		.word	gs_reg_gamma+5664
 4199 0b48 68280000 		.word	.LC217
 4200 0b4c 00000000 		.word	0
 4201 0b50 01       		.byte	1
 4202 0b51 000000   		.space	3
 4203 0b54 50160000 		.word	gs_reg_gamma+5712
 4204 0b58 98280000 		.word	.LC218
 4205 0b5c 00000000 		.word	0
 4206 0b60 01       		.byte	1
 4207 0b61 000000   		.space	3
 4208 0b64 80160000 		.word	gs_reg_gamma+5760
 4209 0b68 C8280000 		.word	.LC219
 4210 0b6c 00000000 		.word	0
 4211 0b70 01       		.byte	1
 4212 0b71 000000   		.space	3
 4213 0b74 B0160000 		.word	gs_reg_gamma+5808
 4214 0b78 F8280000 		.word	.LC220
 4215 0b7c 00000000 		.word	0
 4216 0b80 01       		.byte	1
 4217 0b81 000000   		.space	3
 4218 0b84 E0160000 		.word	gs_reg_gamma+5856
 4219 0b88 28290000 		.word	.LC221
 4220 0b8c 00000000 		.word	0
 4221 0b90 01       		.byte	1
 4222 0b91 000000   		.space	3
 4223 0b94 10170000 		.word	gs_reg_gamma+5904
 4224 0b98 58290000 		.word	.LC222
 4225 0b9c 00000000 		.word	0
 4226 0ba0 01       		.byte	1
 4227 0ba1 000000   		.space	3
 4228 0ba4 40170000 		.word	gs_reg_gamma+5952
 4229 0ba8 88290000 		.word	.LC223
 4230 0bac 00000000 		.word	0
 4231 0bb0 01       		.byte	1
 4232 0bb1 000000   		.space	3
 4233 0bb4 70170000 		.word	gs_reg_gamma+6000
 4234 0bb8 B8290000 		.word	.LC224
 4235 0bbc 00000000 		.word	0
 4236 0bc0 01       		.byte	1
 4237 0bc1 000000   		.space	3
 4238 0bc4 A0170000 		.word	gs_reg_gamma+6048
 4239 0bc8 E8290000 		.word	.LC225
 4240 0bcc 00000000 		.word	0
 4241 0bd0 01       		.byte	1
 4242 0bd1 000000   		.space	3
 4243 0bd4 000C0000 		.word	gs_reg_gamma+3072
 4244 0bd8 182A0000 		.word	.LC226
 4245 0bdc 00000000 		.word	0
 4246 0be0 01       		.byte	1
 4247 0be1 000000   		.space	3
 4248 0be4 300C0000 		.word	gs_reg_gamma+3120
 4249 0be8 482A0000 		.word	.LC227
 4250 0bec 00000000 		.word	0
 4251 0bf0 01       		.byte	1
 4252 0bf1 000000   		.space	3
 4253 0bf4 600C0000 		.word	gs_reg_gamma+3168
 4254 0bf8 782A0000 		.word	.LC228
 4255 0bfc 00000000 		.word	0
 4256 0c00 01       		.byte	1
 4257 0c01 000000   		.space	3
 4258 0c04 900C0000 		.word	gs_reg_gamma+3216
 4259 0c08 A82A0000 		.word	.LC229
 4260 0c0c 00000000 		.word	0
 4261 0c10 01       		.byte	1
 4262 0c11 000000   		.space	3
 4263 0c14 C00C0000 		.word	gs_reg_gamma+3264
 4264 0c18 D82A0000 		.word	.LC230
 4265 0c1c 00000000 		.word	0
 4266 0c20 01       		.byte	1
 4267 0c21 000000   		.space	3
 4268 0c24 F00C0000 		.word	gs_reg_gamma+3312
 4269 0c28 082B0000 		.word	.LC231
 4270 0c2c 00000000 		.word	0
 4271 0c30 01       		.byte	1
 4272 0c31 000000   		.space	3
 4273 0c34 200D0000 		.word	gs_reg_gamma+3360
 4274 0c38 382B0000 		.word	.LC232
 4275 0c3c 00000000 		.word	0
 4276 0c40 01       		.byte	1
 4277 0c41 000000   		.space	3
 4278 0c44 500D0000 		.word	gs_reg_gamma+3408
 4279 0c48 682B0000 		.word	.LC233
 4280 0c4c 00000000 		.word	0
 4281 0c50 01       		.byte	1
 4282 0c51 000000   		.space	3
 4283 0c54 800D0000 		.word	gs_reg_gamma+3456
 4284 0c58 982B0000 		.word	.LC234
 4285 0c5c 00000000 		.word	0
 4286 0c60 01       		.byte	1
 4287 0c61 000000   		.space	3
 4288 0c64 B00D0000 		.word	gs_reg_gamma+3504
 4289 0c68 C82B0000 		.word	.LC235
 4290 0c6c 00000000 		.word	0
 4291 0c70 01       		.byte	1
 4292 0c71 000000   		.space	3
 4293 0c74 E00D0000 		.word	gs_reg_gamma+3552
 4294 0c78 F82B0000 		.word	.LC236
 4295 0c7c 00000000 		.word	0
 4296 0c80 01       		.byte	1
 4297 0c81 000000   		.space	3
 4298 0c84 100E0000 		.word	gs_reg_gamma+3600
 4299 0c88 282C0000 		.word	.LC237
 4300 0c8c 00000000 		.word	0
 4301 0c90 01       		.byte	1
 4302 0c91 000000   		.space	3
 4303 0c94 400E0000 		.word	gs_reg_gamma+3648
 4304 0c98 582C0000 		.word	.LC238
 4305 0c9c 00000000 		.word	0
 4306 0ca0 01       		.byte	1
 4307 0ca1 000000   		.space	3
 4308 0ca4 700E0000 		.word	gs_reg_gamma+3696
 4309 0ca8 882C0000 		.word	.LC239
 4310 0cac 00000000 		.word	0
 4311 0cb0 01       		.byte	1
 4312 0cb1 000000   		.space	3
 4313 0cb4 A00E0000 		.word	gs_reg_gamma+3744
 4314 0cb8 B82C0000 		.word	.LC240
 4315 0cbc 00000000 		.word	0
 4316 0cc0 01       		.byte	1
 4317 0cc1 000000   		.space	3
 4318 0cc4 D00E0000 		.word	gs_reg_gamma+3792
 4319 0cc8 E82C0000 		.word	.LC241
 4320 0ccc 00000000 		.word	0
 4321 0cd0 01       		.byte	1
 4322 0cd1 000000   		.space	3
 4323 0cd4 000F0000 		.word	gs_reg_gamma+3840
 4324 0cd8 182D0000 		.word	.LC242
 4325 0cdc 00000000 		.word	0
 4326 0ce0 01       		.byte	1
 4327 0ce1 000000   		.space	3
 4328 0ce4 300F0000 		.word	gs_reg_gamma+3888
 4329 0ce8 482D0000 		.word	.LC243
 4330 0cec 00000000 		.word	0
 4331 0cf0 01       		.byte	1
 4332 0cf1 000000   		.space	3
 4333 0cf4 600F0000 		.word	gs_reg_gamma+3936
 4334 0cf8 782D0000 		.word	.LC244
 4335 0cfc 00000000 		.word	0
 4336 0d00 01       		.byte	1
 4337 0d01 000000   		.space	3
 4338 0d04 900F0000 		.word	gs_reg_gamma+3984
 4339 0d08 A82D0000 		.word	.LC245
 4340 0d0c 00000000 		.word	0
 4341 0d10 01       		.byte	1
 4342 0d11 000000   		.space	3
 4343 0d14 C00F0000 		.word	gs_reg_gamma+4032
 4344 0d18 D82D0000 		.word	.LC246
 4345 0d1c 00000000 		.word	0
 4346 0d20 01       		.byte	1
 4347 0d21 000000   		.space	3
 4348 0d24 F00F0000 		.word	gs_reg_gamma+4080
 4349 0d28 082E0000 		.word	.LC247
 4350 0d2c 00000000 		.word	0
 4351 0d30 01       		.byte	1
 4352 0d31 000000   		.space	3
 4353 0d34 20100000 		.word	gs_reg_gamma+4128
 4354 0d38 382E0000 		.word	.LC248
 4355 0d3c 00000000 		.word	0
 4356 0d40 01       		.byte	1
 4357 0d41 000000   		.space	3
 4358 0d44 50100000 		.word	gs_reg_gamma+4176
 4359 0d48 682E0000 		.word	.LC249
 4360 0d4c 00000000 		.word	0
 4361 0d50 01       		.byte	1
 4362 0d51 000000   		.space	3
 4363 0d54 80100000 		.word	gs_reg_gamma+4224
 4364 0d58 982E0000 		.word	.LC250
 4365 0d5c 00000000 		.word	0
 4366 0d60 01       		.byte	1
 4367 0d61 000000   		.space	3
 4368 0d64 B0100000 		.word	gs_reg_gamma+4272
 4369 0d68 C82E0000 		.word	.LC251
 4370 0d6c 00000000 		.word	0
 4371 0d70 01       		.byte	1
 4372 0d71 000000   		.space	3
 4373 0d74 E0100000 		.word	gs_reg_gamma+4320
 4374 0d78 F82E0000 		.word	.LC252
 4375 0d7c 00000000 		.word	0
 4376 0d80 01       		.byte	1
 4377 0d81 000000   		.space	3
 4378 0d84 10110000 		.word	gs_reg_gamma+4368
 4379 0d88 282F0000 		.word	.LC253
 4380 0d8c 00000000 		.word	0
 4381 0d90 01       		.byte	1
 4382 0d91 000000   		.space	3
 4383 0d94 40110000 		.word	gs_reg_gamma+4416
 4384 0d98 582F0000 		.word	.LC254
 4385 0d9c 00000000 		.word	0
 4386 0da0 01       		.byte	1
 4387 0da1 000000   		.space	3
 4388 0da4 70110000 		.word	gs_reg_gamma+4464
 4389 0da8 882F0000 		.word	.LC255
 4390 0dac 00000000 		.word	0
 4391 0db0 01       		.byte	1
 4392 0db1 000000   		.space	3
 4393 0db4 A0110000 		.word	gs_reg_gamma+4512
 4394 0db8 B82F0000 		.word	.LC256
 4395 0dbc 00000000 		.word	0
 4396 0dc0 01       		.byte	1
 4397 0dc1 000000   		.space	3
 4398 0dc4 A01D0000 		.word	gs_reg_gamma+7584
 4399 0dc8 E82F0000 		.word	.LC257
 4400 0dcc 00000000 		.word	0
 4401 0dd0 01       		.byte	1
 4402 0dd1 000000   		.space	3
 4403 0dd4 D01D0000 		.word	gs_reg_gamma+7632
 4404 0dd8 18300000 		.word	.LC258
 4405 0ddc 00000000 		.word	0
 4406 0de0 01       		.byte	1
 4407 0de1 000000   		.space	3
 4408 0de4 001E0000 		.word	gs_reg_gamma+7680
 4409 0de8 48300000 		.word	.LC259
 4410 0dec 00000000 		.word	0
 4411 0df0 01       		.byte	1
 4412 0df1 000000   		.space	3
 4413 0df4 301E0000 		.word	gs_reg_gamma+7728
 4414 0df8 78300000 		.word	.LC260
 4415 0dfc 00000000 		.word	0
 4416 0e00 01       		.byte	1
 4417 0e01 000000   		.space	3
 4418 0e04 601E0000 		.word	gs_reg_gamma+7776
 4419 0e08 A8300000 		.word	.LC261
 4420 0e0c 00000000 		.word	0
 4421 0e10 01       		.byte	1
 4422 0e11 000000   		.space	3
 4423 0e14 901E0000 		.word	gs_reg_gamma+7824
 4424 0e18 D8300000 		.word	.LC262
 4425 0e1c 00000000 		.word	0
 4426 0e20 01       		.byte	1
 4427 0e21 000000   		.space	3
 4428 0e24 C01E0000 		.word	gs_reg_gamma+7872
 4429 0e28 08310000 		.word	.LC263
 4430 0e2c 00000000 		.word	0
 4431 0e30 01       		.byte	1
 4432 0e31 000000   		.space	3
 4433 0e34 F01E0000 		.word	gs_reg_gamma+7920
 4434 0e38 38310000 		.word	.LC264
 4435 0e3c 00000000 		.word	0
 4436 0e40 01       		.byte	1
 4437 0e41 000000   		.space	3
 4438 0e44 201F0000 		.word	gs_reg_gamma+7968
 4439 0e48 68310000 		.word	.LC265
 4440 0e4c 00000000 		.word	0
 4441 0e50 01       		.byte	1
 4442 0e51 000000   		.space	3
 4443 0e54 501F0000 		.word	gs_reg_gamma+8016
 4444 0e58 98310000 		.word	.LC266
 4445 0e5c 00000000 		.word	0
 4446 0e60 01       		.byte	1
 4447 0e61 000000   		.space	3
 4448 0e64 801F0000 		.word	gs_reg_gamma+8064
 4449 0e68 C8310000 		.word	.LC267
 4450 0e6c 00000000 		.word	0
 4451 0e70 01       		.byte	1
 4452 0e71 000000   		.space	3
 4453 0e74 B01F0000 		.word	gs_reg_gamma+8112
 4454 0e78 F8310000 		.word	.LC268
 4455 0e7c 00000000 		.word	0
 4456 0e80 01       		.byte	1
 4457 0e81 000000   		.space	3
 4458 0e84 E01F0000 		.word	gs_reg_gamma+8160
 4459 0e88 28320000 		.word	.LC269
 4460 0e8c 00000000 		.word	0
 4461 0e90 01       		.byte	1
 4462 0e91 000000   		.space	3
 4463 0e94 10200000 		.word	gs_reg_gamma+8208
 4464 0e98 58320000 		.word	.LC270
 4465 0e9c 00000000 		.word	0
 4466 0ea0 01       		.byte	1
 4467 0ea1 000000   		.space	3
 4468 0ea4 40200000 		.word	gs_reg_gamma+8256
 4469 0ea8 88320000 		.word	.LC271
 4470 0eac 00000000 		.word	0
 4471 0eb0 01       		.byte	1
 4472 0eb1 000000   		.space	3
 4473 0eb4 70200000 		.word	gs_reg_gamma+8304
 4474 0eb8 B8320000 		.word	.LC272
 4475 0ebc 00000000 		.word	0
 4476 0ec0 01       		.byte	1
 4477 0ec1 000000   		.space	3
 4478 0ec4 A0200000 		.word	gs_reg_gamma+8352
 4479 0ec8 E8320000 		.word	.LC273
 4480 0ecc 00000000 		.word	0
 4481 0ed0 01       		.byte	1
 4482 0ed1 000000   		.space	3
 4483 0ed4 D0200000 		.word	gs_reg_gamma+8400
 4484 0ed8 18330000 		.word	.LC274
 4485 0edc 00000000 		.word	0
 4486 0ee0 01       		.byte	1
 4487 0ee1 000000   		.space	3
 4488 0ee4 00210000 		.word	gs_reg_gamma+8448
 4489 0ee8 48330000 		.word	.LC275
 4490 0eec 00000000 		.word	0
 4491 0ef0 01       		.byte	1
 4492 0ef1 000000   		.space	3
 4493 0ef4 30210000 		.word	gs_reg_gamma+8496
 4494 0ef8 78330000 		.word	.LC276
 4495 0efc 00000000 		.word	0
 4496 0f00 01       		.byte	1
 4497 0f01 000000   		.space	3
 4498 0f04 60210000 		.word	gs_reg_gamma+8544
 4499 0f08 A8330000 		.word	.LC277
 4500 0f0c 00000000 		.word	0
 4501 0f10 01       		.byte	1
 4502 0f11 000000   		.space	3
 4503 0f14 90210000 		.word	gs_reg_gamma+8592
 4504 0f18 D8330000 		.word	.LC278
 4505 0f1c 00000000 		.word	0
 4506 0f20 01       		.byte	1
 4507 0f21 000000   		.space	3
 4508 0f24 C0210000 		.word	gs_reg_gamma+8640
 4509 0f28 08340000 		.word	.LC279
 4510 0f2c 00000000 		.word	0
 4511 0f30 01       		.byte	1
 4512 0f31 000000   		.space	3
 4513 0f34 F0210000 		.word	gs_reg_gamma+8688
 4514 0f38 38340000 		.word	.LC280
 4515 0f3c 00000000 		.word	0
 4516 0f40 01       		.byte	1
 4517 0f41 000000   		.space	3
 4518 0f44 20220000 		.word	gs_reg_gamma+8736
 4519 0f48 68340000 		.word	.LC281
 4520 0f4c 00000000 		.word	0
 4521 0f50 01       		.byte	1
 4522 0f51 000000   		.space	3
 4523 0f54 50220000 		.word	gs_reg_gamma+8784
 4524 0f58 98340000 		.word	.LC282
 4525 0f5c 00000000 		.word	0
 4526 0f60 01       		.byte	1
 4527 0f61 000000   		.space	3
 4528 0f64 80220000 		.word	gs_reg_gamma+8832
 4529 0f68 C8340000 		.word	.LC283
 4530 0f6c 00000000 		.word	0
 4531 0f70 01       		.byte	1
 4532 0f71 000000   		.space	3
 4533 0f74 B0220000 		.word	gs_reg_gamma+8880
 4534 0f78 F8340000 		.word	.LC284
 4535 0f7c 00000000 		.word	0
 4536 0f80 01       		.byte	1
 4537 0f81 000000   		.space	3
 4538 0f84 E0220000 		.word	gs_reg_gamma+8928
 4539 0f88 28350000 		.word	.LC285
 4540 0f8c 00000000 		.word	0
 4541 0f90 01       		.byte	1
 4542 0f91 000000   		.space	3
 4543 0f94 10230000 		.word	gs_reg_gamma+8976
 4544 0f98 58350000 		.word	.LC286
 4545 0f9c 00000000 		.word	0
 4546 0fa0 01       		.byte	1
 4547 0fa1 000000   		.space	3
 4548 0fa4 40230000 		.word	gs_reg_gamma+9024
 4549 0fa8 88350000 		.word	.LC287
 4550 0fac 00000000 		.word	0
 4551 0fb0 01       		.byte	1
 4552 0fb1 000000   		.space	3
 4553 0fb4 70230000 		.word	gs_reg_gamma+9072
 4554 0fb8 B8350000 		.word	.LC288
 4555 0fbc 00000000 		.word	0
 4556 0fc0 01       		.byte	1
 4557 0fc1 000000   		.space	3
 4558 0fc4 D0170000 		.word	gs_reg_gamma+6096
 4559 0fc8 E8350000 		.word	.LC289
 4560 0fcc 00000000 		.word	0
 4561 0fd0 01       		.byte	1
 4562 0fd1 000000   		.space	3
 4563 0fd4 00180000 		.word	gs_reg_gamma+6144
 4564 0fd8 18360000 		.word	.LC290
 4565 0fdc 00000000 		.word	0
 4566 0fe0 01       		.byte	1
 4567 0fe1 000000   		.space	3
 4568 0fe4 30180000 		.word	gs_reg_gamma+6192
 4569 0fe8 48360000 		.word	.LC291
 4570 0fec 00000000 		.word	0
 4571 0ff0 01       		.byte	1
 4572 0ff1 000000   		.space	3
 4573 0ff4 60180000 		.word	gs_reg_gamma+6240
 4574 0ff8 78360000 		.word	.LC292
 4575 0ffc 00000000 		.word	0
 4576 1000 01       		.byte	1
 4577 1001 000000   		.space	3
 4578 1004 90180000 		.word	gs_reg_gamma+6288
 4579 1008 A8360000 		.word	.LC293
 4580 100c 00000000 		.word	0
 4581 1010 01       		.byte	1
 4582 1011 000000   		.space	3
 4583 1014 C0180000 		.word	gs_reg_gamma+6336
 4584 1018 D8360000 		.word	.LC294
 4585 101c 00000000 		.word	0
 4586 1020 01       		.byte	1
 4587 1021 000000   		.space	3
 4588 1024 F0180000 		.word	gs_reg_gamma+6384
 4589 1028 08370000 		.word	.LC295
 4590 102c 00000000 		.word	0
 4591 1030 01       		.byte	1
 4592 1031 000000   		.space	3
 4593 1034 20190000 		.word	gs_reg_gamma+6432
 4594 1038 38370000 		.word	.LC296
 4595 103c 00000000 		.word	0
 4596 1040 01       		.byte	1
 4597 1041 000000   		.space	3
 4598 1044 50190000 		.word	gs_reg_gamma+6480
 4599 1048 68370000 		.word	.LC297
 4600 104c 00000000 		.word	0
 4601 1050 01       		.byte	1
 4602 1051 000000   		.space	3
 4603 1054 80190000 		.word	gs_reg_gamma+6528
 4604 1058 98370000 		.word	.LC298
 4605 105c 00000000 		.word	0
 4606 1060 01       		.byte	1
 4607 1061 000000   		.space	3
 4608 1064 B0190000 		.word	gs_reg_gamma+6576
 4609 1068 C8370000 		.word	.LC299
 4610 106c 00000000 		.word	0
 4611 1070 01       		.byte	1
 4612 1071 000000   		.space	3
 4613 1074 E0190000 		.word	gs_reg_gamma+6624
 4614 1078 F8370000 		.word	.LC300
 4615 107c 00000000 		.word	0
 4616 1080 01       		.byte	1
 4617 1081 000000   		.space	3
 4618 1084 101A0000 		.word	gs_reg_gamma+6672
 4619 1088 28380000 		.word	.LC301
 4620 108c 00000000 		.word	0
 4621 1090 01       		.byte	1
 4622 1091 000000   		.space	3
 4623 1094 401A0000 		.word	gs_reg_gamma+6720
 4624 1098 58380000 		.word	.LC302
 4625 109c 00000000 		.word	0
 4626 10a0 01       		.byte	1
 4627 10a1 000000   		.space	3
 4628 10a4 701A0000 		.word	gs_reg_gamma+6768
 4629 10a8 88380000 		.word	.LC303
 4630 10ac 00000000 		.word	0
 4631 10b0 01       		.byte	1
 4632 10b1 000000   		.space	3
 4633 10b4 A01A0000 		.word	gs_reg_gamma+6816
 4634 10b8 B8380000 		.word	.LC304
 4635 10bc 00000000 		.word	0
 4636 10c0 01       		.byte	1
 4637 10c1 000000   		.space	3
 4638 10c4 D01A0000 		.word	gs_reg_gamma+6864
 4639 10c8 E8380000 		.word	.LC305
 4640 10cc 00000000 		.word	0
 4641 10d0 01       		.byte	1
 4642 10d1 000000   		.space	3
 4643 10d4 001B0000 		.word	gs_reg_gamma+6912
 4644 10d8 18390000 		.word	.LC306
 4645 10dc 00000000 		.word	0
 4646 10e0 01       		.byte	1
 4647 10e1 000000   		.space	3
 4648 10e4 301B0000 		.word	gs_reg_gamma+6960
 4649 10e8 48390000 		.word	.LC307
 4650 10ec 00000000 		.word	0
 4651 10f0 01       		.byte	1
 4652 10f1 000000   		.space	3
 4653 10f4 601B0000 		.word	gs_reg_gamma+7008
 4654 10f8 78390000 		.word	.LC308
 4655 10fc 00000000 		.word	0
 4656 1100 01       		.byte	1
 4657 1101 000000   		.space	3
 4658 1104 901B0000 		.word	gs_reg_gamma+7056
 4659 1108 A8390000 		.word	.LC309
 4660 110c 00000000 		.word	0
 4661 1110 01       		.byte	1
 4662 1111 000000   		.space	3
 4663 1114 C01B0000 		.word	gs_reg_gamma+7104
 4664 1118 D8390000 		.word	.LC310
 4665 111c 00000000 		.word	0
 4666 1120 01       		.byte	1
 4667 1121 000000   		.space	3
 4668 1124 F01B0000 		.word	gs_reg_gamma+7152
 4669 1128 083A0000 		.word	.LC311
 4670 112c 00000000 		.word	0
 4671 1130 01       		.byte	1
 4672 1131 000000   		.space	3
 4673 1134 201C0000 		.word	gs_reg_gamma+7200
 4674 1138 383A0000 		.word	.LC312
 4675 113c 00000000 		.word	0
 4676 1140 01       		.byte	1
 4677 1141 000000   		.space	3
 4678 1144 501C0000 		.word	gs_reg_gamma+7248
 4679 1148 683A0000 		.word	.LC313
 4680 114c 00000000 		.word	0
 4681 1150 01       		.byte	1
 4682 1151 000000   		.space	3
 4683 1154 801C0000 		.word	gs_reg_gamma+7296
 4684 1158 983A0000 		.word	.LC314
 4685 115c 00000000 		.word	0
 4686 1160 01       		.byte	1
 4687 1161 000000   		.space	3
 4688 1164 B01C0000 		.word	gs_reg_gamma+7344
 4689 1168 C83A0000 		.word	.LC315
 4690 116c 00000000 		.word	0
 4691 1170 01       		.byte	1
 4692 1171 000000   		.space	3
 4693 1174 E01C0000 		.word	gs_reg_gamma+7392
 4694 1178 F83A0000 		.word	.LC316
 4695 117c 00000000 		.word	0
 4696 1180 01       		.byte	1
 4697 1181 000000   		.space	3
 4698 1184 101D0000 		.word	gs_reg_gamma+7440
 4699 1188 283B0000 		.word	.LC317
 4700 118c 00000000 		.word	0
 4701 1190 01       		.byte	1
 4702 1191 000000   		.space	3
 4703 1194 401D0000 		.word	gs_reg_gamma+7488
 4704 1198 583B0000 		.word	.LC318
 4705 119c 00000000 		.word	0
 4706 11a0 01       		.byte	1
 4707 11a1 000000   		.space	3
 4708 11a4 701D0000 		.word	gs_reg_gamma+7536
 4709 11a8 883B0000 		.word	.LC319
 4710 11ac 00000000 		.word	0
 4711 11b0 00       		.byte	0
 4712 11b1 000000   		.space	3
 4713 11b4 00000000 		.word	0
 4714 11b8 B83B0000 		.word	.LC320
 4715 11bc 00000000 		.word	0
 4716 11c0 01       		.byte	1
 4717 11c1 000000   		.space	3
 4718 11c4 00000000 		.word	gs_reg_dither
 4719 11c8 D03B0000 		.word	.LC321
 4720 11cc 00000000 		.word	gsp_dither_mode_list
 4721 11d0 00       		.byte	0
 4722 11d1 000000   		.space	3
 4723 11d4 00000000 		.word	0
 4724 11d8 EC3B0000 		.word	.LC322
 4725 11dc 00000000 		.word	0
 4726 11e0 00       		.byte	0
 4727 11e1 000000   		.space	3
 4728 11e4 00000000 		.word	0
 4729 11e8 783C0000 		.word	.LC323
 4730 11ec 00000000 		.word	0
 4731 11f0 00       		.byte	0
 4732 11f1 000000   		.space	3
 4733 11f4 00000000 		.word	0
 4734 11f8 043D0000 		.word	.LC324
 4735 11fc 00000000 		.word	0
 4736 1200 00       		.byte	0
 4737 1201 000000   		.space	3
 4738 1204 00000000 		.word	0
 4739 1208 903D0000 		.word	.LC325
 4740 120c 00000000 		.word	0
 4741 1210 00       		.byte	0
 4742 1211 000000   		.space	3
 4743 1214 00000000 		.word	0
 4744 1218 1C3E0000 		.word	.LC326
 4745 121c 00000000 		.word	0
 4746 1220 01       		.byte	1
 4747 1221 000000   		.space	3
 4748 1224 00000000 		.word	gs_reg_rotation
 4749 1228 483E0000 		.word	.LC327
 4750 122c 00000000 		.word	0
 4751 1230 00       		.byte	0
 4752 1231 000000   		.space	3
 4753 1234 00000000 		.word	0
 4754 1238 643E0000 		.word	.LC328
 4755 123c 00000000 		.word	0
 4756              		.section	.rodata.gs_bright_content,"a",%progbits
 4757              		.align	2
 4760              	gs_bright_content:
 4761 0000 42726967 		.ascii	"Brightness Setting\000"
 4761      68746E65 
 4761      73732053 
 4761      65747469 
 4761      6E6700
 4762              		.section	.rodata.gs_bright_in_content,"a",%progbits
 4763              		.align	2
 4766              	gs_bright_in_content:
 4767 0000 42726967 		.ascii	"Brightness Setting(Input controller)\000"
 4767      68746E65 
 4767      73732053 
 4767      65747469 
 4767      6E672849 
 4768              		.section	.rodata.gs_bright_out_content,"a",%progbits
 4769              		.align	2
 4772              	gs_bright_out_content:
 4773 0000 42726967 		.ascii	"Brightness Setting(Output controller)\000"
 4773      68746E65 
 4773      73732053 
 4773      65747469 
 4773      6E67284F 
 4774              		.section	.rodata.gs_contra_content,"a",%progbits
 4775              		.align	2
 4778              	gs_contra_content:
 4779 0000 436F6E74 		.ascii	"Contrast Setting\000"
 4779      72617374 
 4779      20536574 
 4779      74696E67 
 4779      00
 4780              		.section	.rodata.gs_contra_in_content,"a",%progbits
 4781              		.align	2
 4784              	gs_contra_in_content:
 4785 0000 436F6E74 		.ascii	"Contrast Setting(Input controller)\000"
 4785      72617374 
 4785      20536574 
 4785      74696E67 
 4785      28496E70 
 4786              		.section	.rodata.gs_contra_out_content,"a",%progbits
 4787              		.align	2
 4790              	gs_contra_out_content:
 4791 0000 436F6E74 		.ascii	"Contrast Setting(Output controller)\000"
 4791      72617374 
 4791      20536574 
 4791      74696E67 
 4791      284F7574 
 4792              		.section	.rodata.gs_dither_content,"a",%progbits
 4793              		.align	2
 4796              	gs_dither_content:
 4797 0000 44697468 		.ascii	"Dither Process\000"
 4797      65722050 
 4797      726F6365 
 4797      737300
 4798              		.section	.rodata.gs_explanation_custom,"a",%progbits
 4799              		.align	2
 4802              	gs_explanation_custom:
 4803 0000 506C6561 		.ascii	"Please Input Value or Select Item\015\012Confirm by"
 4803      73652049 
 4803      6E707574 
 4803      2056616C 
 4803      7565206F 
 4804 002d 20707265 		.ascii	" pressing the Enter key.\000"
 4804      7373696E 
 4804      67207468 
 4804      6520456E 
 4804      74657220 
 4805              		.section	.rodata.gs_explanation_customreg,"a",%progbits
 4806              		.align	2
 4809              	gs_explanation_customreg:
 4810 0000 506C6561 		.ascii	"Please select the register you want to set.\000"
 4810      73652073 
 4810      656C6563 
 4810      74207468 
 4810      65207265 
 4811              		.section	.rodata.gs_explanation_preset,"a",%progbits
 4812              		.align	2
 4815              	gs_explanation_preset:
 4816 0000 506C6561 		.ascii	"Please select preset.\000"
 4816      73652073 
 4816      656C6563 
 4816      74207072 
 4816      65736574 
 4817              		.section	.rodata.gs_explanation_top_br_co,"a",%progbits
 4818              		.align	2
 4821              	gs_explanation_top_br_co:
 4822 0000 506C6561 		.ascii	"Please select the item you want to set.\000"
 4822      73652073 
 4822      656C6563 
 4822      74207468 
 4822      65206974 
 4823              		.section	.rodata.gs_gamma_content,"a",%progbits
 4824              		.align	2
 4827              	gs_gamma_content:
 4828 0000 47616D6D 		.ascii	"Gamma correction\000"
 4828      6120636F 
 4828      72726563 
 4828      74696F6E 
 4828      00
 4829              		.section	.rodata.gs_reg_bright_in,"a",%progbits
 4830              		.align	2
 4833              	gs_reg_bright_in:
 4834 0000 7C5B0000 		.word	.LC555
 4835 0004 A474FFFC 		.word	-50367324
 4836 0008 00000000 		.word	0
 4837 000c FF000000 		.word	255
 4838 0010 80000000 		.word	128
 4839 0014 10000000 		.word	16
 4840 0018 FF000000 		.word	255
 4841 001c C8000000 		.word	200
 4842 0020 96000000 		.word	150
 4843 0024 32000000 		.word	50
 4844 0028 80000000 		.word	128
 4845 002c 00000000 		.word	0
 4846              		.section	.rodata.gs_reg_bright_out,"a",%progbits
 4847              		.align	2
 4850              	gs_reg_bright_out:
 4851 0000 285B0000 		.word	.LC552
 4852 0004 087AFFFC 		.word	-50365944
 4853 0008 00000000 		.word	0
 4854 000c FF030000 		.word	1023
 4855 0010 00020000 		.word	512
 4856 0014 00000000 		.word	0
 4857 0018 FF030000 		.word	1023
 4858 001c F4020000 		.word	756
 4859 0020 26020000 		.word	550
 4860 0024 00010000 		.word	256
 4861 0028 00020000 		.word	512
 4862 002c 00000000 		.word	0
 4863 0030 445B0000 		.word	.LC553
 4864 0034 0C7AFFFC 		.word	-50365940
 4865 0038 00000000 		.word	0
 4866 003c FF030000 		.word	1023
 4867 0040 00020000 		.word	512
 4868 0044 10000000 		.word	16
 4869 0048 FF030000 		.word	1023
 4870 004c F4020000 		.word	756
 4871 0050 26020000 		.word	550
 4872 0054 00010000 		.word	256
 4873 0058 00020000 		.word	512
 4874 005c 00000000 		.word	0
 4875 0060 605B0000 		.word	.LC554
 4876 0064 0C7AFFFC 		.word	-50365940
 4877 0068 00000000 		.word	0
 4878 006c FF030000 		.word	1023
 4879 0070 00020000 		.word	512
 4880 0074 00000000 		.word	0
 4881 0078 FF030000 		.word	1023
 4882 007c F4020000 		.word	756
 4883 0080 26020000 		.word	550
 4884 0084 00010000 		.word	256
 4885 0088 00020000 		.word	512
 4886 008c 00000000 		.word	0
 4887              		.section	.rodata.gs_reg_cont_in,"a",%progbits
 4888              		.align	2
 4891              	gs_reg_cont_in:
 4892 0000 005B0000 		.word	.LC551
 4893 0004 A474FFFC 		.word	-50367324
 4894 0008 00FCFFFF 		.word	-1024
 4895 000c FF030000 		.word	1023
 4896 0010 00010000 		.word	256
 4897 0014 00000000 		.word	0
 4898 0018 FF070000 		.word	2047
 4899 001c 00020000 		.word	512
 4900 0020 2C010000 		.word	300
 4901 0024 96000000 		.word	150
 4902 0028 00010000 		.word	256
 4903 002c 00000000 		.word	0
 4904              		.section	.rodata.gs_reg_cont_out,"a",%progbits
 4905              		.align	2
 4908              	gs_reg_cont_out:
 4909 0000 AC5A0000 		.word	.LC548
 4910 0004 107AFFFC 		.word	-50365936
 4911 0008 00000000 		.word	0
 4912 000c FF000000 		.word	255
 4913 0010 80000000 		.word	128
 4914 0014 10000000 		.word	16
 4915 0018 FF000000 		.word	255
 4916 001c FF000000 		.word	255
 4917 0020 A0000000 		.word	160
 4918 0024 40000000 		.word	64
 4919 0028 80000000 		.word	128
 4920 002c 00000000 		.word	0
 4921 0030 C85A0000 		.word	.LC549
 4922 0034 107AFFFC 		.word	-50365936
 4923 0038 00000000 		.word	0
 4924 003c FF000000 		.word	255
 4925 0040 80000000 		.word	128
 4926 0044 08000000 		.word	8
 4927 0048 FF000000 		.word	255
 4928 004c FF000000 		.word	255
 4929 0050 A0000000 		.word	160
 4930 0054 40000000 		.word	64
 4931 0058 80000000 		.word	128
 4932 005c 00000000 		.word	0
 4933 0060 E45A0000 		.word	.LC550
 4934 0064 107AFFFC 		.word	-50365936
 4935 0068 00000000 		.word	0
 4936 006c FF000000 		.word	255
 4937 0070 80000000 		.word	128
 4938 0074 00000000 		.word	0
 4939 0078 FF000000 		.word	255
 4940 007c FF000000 		.word	255
 4941 0080 A0000000 		.word	160
 4942 0084 40000000 		.word	64
 4943 0088 80000000 		.word	128
 4944 008c 00000000 		.word	0
 4945              		.section	.rodata.gs_reg_dither,"a",%progbits
 4946              		.align	2
 4949              	gs_reg_dither:
 4950 0000 C83E0000 		.word	.LC331
 4951 0004 147AFFFC 		.word	-50365932
 4952 0008 00000000 		.word	0
 4953 000c 03000000 		.word	3
 4954 0010 00000000 		.word	0
 4955 0014 14000000 		.word	20
 4956 0018 03000000 		.word	3
 4957 001c 00000000 		.word	0
 4958 0020 01000000 		.word	1
 4959 0024 02000000 		.word	2
 4960 0028 03000000 		.word	3
 4961 002c 00000000 		.word	0
 4962              		.section	.rodata.gs_reg_gamma,"a",%progbits
 4963              		.align	2
 4966              	gs_reg_gamma:
 4967 0000 E43E0000 		.word	.LC332
 4968 0004 0478FFFC 		.word	-50366460
 4969 0008 00000000 		.word	0
 4970 000c 01000000 		.word	1
 4971 0010 00000000 		.word	0
 4972 0014 00000000 		.word	0
 4973 0018 01000000 		.word	1
 4974 001c 01000000 		.word	1
 4975 0020 01000000 		.word	1
 4976 0024 01000000 		.word	1
 4977 0028 01000000 		.word	1
 4978 002c 00000000 		.word	0
 4979 0030 F43E0000 		.word	.LC333
 4980 0034 4878FFFC 		.word	-50366392
 4981 0038 00000000 		.word	0
 4982 003c FF000000 		.word	255
 4983 0040 08000000 		.word	8
 4984 0044 10000000 		.word	16
 4985 0048 FF000000 		.word	255
 4986 004c 08000000 		.word	8
 4987 0050 08000000 		.word	8
 4988 0054 08000000 		.word	8
 4989 0058 08000000 		.word	8
 4990 005c 08000000 		.word	8
 4991 0060 143F0000 		.word	.LC334
 4992 0064 4878FFFC 		.word	-50366392
 4993 0068 00000000 		.word	0
 4994 006c FF000000 		.word	255
 4995 0070 10000000 		.word	16
 4996 0074 08000000 		.word	8
 4997 0078 FF000000 		.word	255
 4998 007c 10000000 		.word	16
 4999 0080 10000000 		.word	16
 5000 0084 10000000 		.word	16
 5001 0088 10000000 		.word	16
 5002 008c 10000000 		.word	16
 5003 0090 343F0000 		.word	.LC335
 5004 0094 4878FFFC 		.word	-50366392
 5005 0098 00000000 		.word	0
 5006 009c FF000000 		.word	255
 5007 00a0 18000000 		.word	24
 5008 00a4 00000000 		.word	0
 5009 00a8 FF000000 		.word	255
 5010 00ac 18000000 		.word	24
 5011 00b0 18000000 		.word	24
 5012 00b4 18000000 		.word	24
 5013 00b8 18000000 		.word	24
 5014 00bc 18000000 		.word	24
 5015 00c0 543F0000 		.word	.LC336
 5016 00c4 4C78FFFC 		.word	-50366388
 5017 00c8 00000000 		.word	0
 5018 00cc FF000000 		.word	255
 5019 00d0 20000000 		.word	32
 5020 00d4 18000000 		.word	24
 5021 00d8 FF000000 		.word	255
 5022 00dc 20000000 		.word	32
 5023 00e0 20000000 		.word	32
 5024 00e4 20000000 		.word	32
 5025 00e8 20000000 		.word	32
 5026 00ec 20000000 		.word	32
 5027 00f0 743F0000 		.word	.LC337
 5028 00f4 4C78FFFC 		.word	-50366388
 5029 00f8 00000000 		.word	0
 5030 00fc FF000000 		.word	255
 5031 0100 28000000 		.word	40
 5032 0104 10000000 		.word	16
 5033 0108 FF000000 		.word	255
 5034 010c 28000000 		.word	40
 5035 0110 28000000 		.word	40
 5036 0114 28000000 		.word	40
 5037 0118 28000000 		.word	40
 5038 011c 28000000 		.word	40
 5039 0120 943F0000 		.word	.LC338
 5040 0124 4C78FFFC 		.word	-50366388
 5041 0128 00000000 		.word	0
 5042 012c FF000000 		.word	255
 5043 0130 30000000 		.word	48
 5044 0134 08000000 		.word	8
 5045 0138 FF000000 		.word	255
 5046 013c 30000000 		.word	48
 5047 0140 30000000 		.word	48
 5048 0144 30000000 		.word	48
 5049 0148 30000000 		.word	48
 5050 014c 30000000 		.word	48
 5051 0150 B43F0000 		.word	.LC339
 5052 0154 4C78FFFC 		.word	-50366388
 5053 0158 00000000 		.word	0
 5054 015c FF000000 		.word	255
 5055 0160 38000000 		.word	56
 5056 0164 00000000 		.word	0
 5057 0168 FF000000 		.word	255
 5058 016c 38000000 		.word	56
 5059 0170 38000000 		.word	56
 5060 0174 38000000 		.word	56
 5061 0178 38000000 		.word	56
 5062 017c 38000000 		.word	56
 5063 0180 D43F0000 		.word	.LC340
 5064 0184 5078FFFC 		.word	-50366384
 5065 0188 00000000 		.word	0
 5066 018c FF000000 		.word	255
 5067 0190 40000000 		.word	64
 5068 0194 18000000 		.word	24
 5069 0198 FF000000 		.word	255
 5070 019c 40000000 		.word	64
 5071 01a0 40000000 		.word	64
 5072 01a4 40000000 		.word	64
 5073 01a8 40000000 		.word	64
 5074 01ac 40000000 		.word	64
 5075 01b0 F43F0000 		.word	.LC341
 5076 01b4 5078FFFC 		.word	-50366384
 5077 01b8 00000000 		.word	0
 5078 01bc FF000000 		.word	255
 5079 01c0 48000000 		.word	72
 5080 01c4 10000000 		.word	16
 5081 01c8 FF000000 		.word	255
 5082 01cc 48000000 		.word	72
 5083 01d0 48000000 		.word	72
 5084 01d4 48000000 		.word	72
 5085 01d8 48000000 		.word	72
 5086 01dc 48000000 		.word	72
 5087 01e0 14400000 		.word	.LC342
 5088 01e4 5078FFFC 		.word	-50366384
 5089 01e8 00000000 		.word	0
 5090 01ec FF000000 		.word	255
 5091 01f0 50000000 		.word	80
 5092 01f4 08000000 		.word	8
 5093 01f8 FF000000 		.word	255
 5094 01fc 50000000 		.word	80
 5095 0200 50000000 		.word	80
 5096 0204 50000000 		.word	80
 5097 0208 50000000 		.word	80
 5098 020c 50000000 		.word	80
 5099 0210 34400000 		.word	.LC343
 5100 0214 5078FFFC 		.word	-50366384
 5101 0218 00000000 		.word	0
 5102 021c FF000000 		.word	255
 5103 0220 58000000 		.word	88
 5104 0224 00000000 		.word	0
 5105 0228 FF000000 		.word	255
 5106 022c 58000000 		.word	88
 5107 0230 58000000 		.word	88
 5108 0234 58000000 		.word	88
 5109 0238 58000000 		.word	88
 5110 023c 58000000 		.word	88
 5111 0240 54400000 		.word	.LC344
 5112 0244 5478FFFC 		.word	-50366380
 5113 0248 00000000 		.word	0
 5114 024c FF000000 		.word	255
 5115 0250 60000000 		.word	96
 5116 0254 18000000 		.word	24
 5117 0258 FF000000 		.word	255
 5118 025c 60000000 		.word	96
 5119 0260 60000000 		.word	96
 5120 0264 60000000 		.word	96
 5121 0268 60000000 		.word	96
 5122 026c 60000000 		.word	96
 5123 0270 74400000 		.word	.LC345
 5124 0274 5478FFFC 		.word	-50366380
 5125 0278 00000000 		.word	0
 5126 027c FF000000 		.word	255
 5127 0280 68000000 		.word	104
 5128 0284 10000000 		.word	16
 5129 0288 FF000000 		.word	255
 5130 028c 68000000 		.word	104
 5131 0290 68000000 		.word	104
 5132 0294 68000000 		.word	104
 5133 0298 68000000 		.word	104
 5134 029c 68000000 		.word	104
 5135 02a0 94400000 		.word	.LC346
 5136 02a4 5478FFFC 		.word	-50366380
 5137 02a8 00000000 		.word	0
 5138 02ac FF000000 		.word	255
 5139 02b0 70000000 		.word	112
 5140 02b4 08000000 		.word	8
 5141 02b8 FF000000 		.word	255
 5142 02bc 70000000 		.word	112
 5143 02c0 70000000 		.word	112
 5144 02c4 70000000 		.word	112
 5145 02c8 70000000 		.word	112
 5146 02cc 70000000 		.word	112
 5147 02d0 B4400000 		.word	.LC347
 5148 02d4 5478FFFC 		.word	-50366380
 5149 02d8 00000000 		.word	0
 5150 02dc FF000000 		.word	255
 5151 02e0 78000000 		.word	120
 5152 02e4 00000000 		.word	0
 5153 02e8 FF000000 		.word	255
 5154 02ec 78000000 		.word	120
 5155 02f0 78000000 		.word	120
 5156 02f4 78000000 		.word	120
 5157 02f8 78000000 		.word	120
 5158 02fc 78000000 		.word	120
 5159 0300 D4400000 		.word	.LC348
 5160 0304 5878FFFC 		.word	-50366376
 5161 0308 00000000 		.word	0
 5162 030c FF000000 		.word	255
 5163 0310 80000000 		.word	128
 5164 0314 18000000 		.word	24
 5165 0318 FF000000 		.word	255
 5166 031c 80000000 		.word	128
 5167 0320 80000000 		.word	128
 5168 0324 80000000 		.word	128
 5169 0328 80000000 		.word	128
 5170 032c 80000000 		.word	128
 5171 0330 F4400000 		.word	.LC349
 5172 0334 5878FFFC 		.word	-50366376
 5173 0338 00000000 		.word	0
 5174 033c FF000000 		.word	255
 5175 0340 88000000 		.word	136
 5176 0344 10000000 		.word	16
 5177 0348 FF000000 		.word	255
 5178 034c 88000000 		.word	136
 5179 0350 88000000 		.word	136
 5180 0354 88000000 		.word	136
 5181 0358 88000000 		.word	136
 5182 035c 88000000 		.word	136
 5183 0360 14410000 		.word	.LC350
 5184 0364 5878FFFC 		.word	-50366376
 5185 0368 00000000 		.word	0
 5186 036c FF000000 		.word	255
 5187 0370 90000000 		.word	144
 5188 0374 08000000 		.word	8
 5189 0378 FF000000 		.word	255
 5190 037c 90000000 		.word	144
 5191 0380 90000000 		.word	144
 5192 0384 90000000 		.word	144
 5193 0388 90000000 		.word	144
 5194 038c 90000000 		.word	144
 5195 0390 34410000 		.word	.LC351
 5196 0394 5878FFFC 		.word	-50366376
 5197 0398 00000000 		.word	0
 5198 039c FF000000 		.word	255
 5199 03a0 98000000 		.word	152
 5200 03a4 00000000 		.word	0
 5201 03a8 FF000000 		.word	255
 5202 03ac 98000000 		.word	152
 5203 03b0 98000000 		.word	152
 5204 03b4 98000000 		.word	152
 5205 03b8 98000000 		.word	152
 5206 03bc 98000000 		.word	152
 5207 03c0 54410000 		.word	.LC352
 5208 03c4 5C78FFFC 		.word	-50366372
 5209 03c8 00000000 		.word	0
 5210 03cc FF000000 		.word	255
 5211 03d0 A0000000 		.word	160
 5212 03d4 18000000 		.word	24
 5213 03d8 FF000000 		.word	255
 5214 03dc A0000000 		.word	160
 5215 03e0 A0000000 		.word	160
 5216 03e4 A0000000 		.word	160
 5217 03e8 A0000000 		.word	160
 5218 03ec A0000000 		.word	160
 5219 03f0 74410000 		.word	.LC353
 5220 03f4 5C78FFFC 		.word	-50366372
 5221 03f8 00000000 		.word	0
 5222 03fc FF000000 		.word	255
 5223 0400 A8000000 		.word	168
 5224 0404 10000000 		.word	16
 5225 0408 FF000000 		.word	255
 5226 040c A8000000 		.word	168
 5227 0410 A8000000 		.word	168
 5228 0414 A8000000 		.word	168
 5229 0418 A8000000 		.word	168
 5230 041c A8000000 		.word	168
 5231 0420 94410000 		.word	.LC354
 5232 0424 5C78FFFC 		.word	-50366372
 5233 0428 00000000 		.word	0
 5234 042c FF000000 		.word	255
 5235 0430 B0000000 		.word	176
 5236 0434 08000000 		.word	8
 5237 0438 FF000000 		.word	255
 5238 043c B0000000 		.word	176
 5239 0440 B0000000 		.word	176
 5240 0444 B0000000 		.word	176
 5241 0448 B0000000 		.word	176
 5242 044c B0000000 		.word	176
 5243 0450 B4410000 		.word	.LC355
 5244 0454 5C78FFFC 		.word	-50366372
 5245 0458 00000000 		.word	0
 5246 045c FF000000 		.word	255
 5247 0460 B8000000 		.word	184
 5248 0464 00000000 		.word	0
 5249 0468 FF000000 		.word	255
 5250 046c B8000000 		.word	184
 5251 0470 B8000000 		.word	184
 5252 0474 B8000000 		.word	184
 5253 0478 B8000000 		.word	184
 5254 047c B8000000 		.word	184
 5255 0480 D4410000 		.word	.LC356
 5256 0484 6078FFFC 		.word	-50366368
 5257 0488 00000000 		.word	0
 5258 048c FF000000 		.word	255
 5259 0490 C0000000 		.word	192
 5260 0494 18000000 		.word	24
 5261 0498 FF000000 		.word	255
 5262 049c C0000000 		.word	192
 5263 04a0 C0000000 		.word	192
 5264 04a4 C0000000 		.word	192
 5265 04a8 C0000000 		.word	192
 5266 04ac C0000000 		.word	192
 5267 04b0 F4410000 		.word	.LC357
 5268 04b4 6078FFFC 		.word	-50366368
 5269 04b8 00000000 		.word	0
 5270 04bc FF000000 		.word	255
 5271 04c0 C8000000 		.word	200
 5272 04c4 10000000 		.word	16
 5273 04c8 FF000000 		.word	255
 5274 04cc C8000000 		.word	200
 5275 04d0 C8000000 		.word	200
 5276 04d4 C8000000 		.word	200
 5277 04d8 C8000000 		.word	200
 5278 04dc C8000000 		.word	200
 5279 04e0 14420000 		.word	.LC358
 5280 04e4 6078FFFC 		.word	-50366368
 5281 04e8 00000000 		.word	0
 5282 04ec FF000000 		.word	255
 5283 04f0 D0000000 		.word	208
 5284 04f4 08000000 		.word	8
 5285 04f8 FF000000 		.word	255
 5286 04fc D0000000 		.word	208
 5287 0500 D0000000 		.word	208
 5288 0504 D0000000 		.word	208
 5289 0508 D0000000 		.word	208
 5290 050c D0000000 		.word	208
 5291 0510 34420000 		.word	.LC359
 5292 0514 6078FFFC 		.word	-50366368
 5293 0518 00000000 		.word	0
 5294 051c FF000000 		.word	255
 5295 0520 D8000000 		.word	216
 5296 0524 00000000 		.word	0
 5297 0528 FF000000 		.word	255
 5298 052c D8000000 		.word	216
 5299 0530 D8000000 		.word	216
 5300 0534 D8000000 		.word	216
 5301 0538 D8000000 		.word	216
 5302 053c D8000000 		.word	216
 5303 0540 54420000 		.word	.LC360
 5304 0544 6478FFFC 		.word	-50366364
 5305 0548 00000000 		.word	0
 5306 054c FF000000 		.word	255
 5307 0550 E0000000 		.word	224
 5308 0554 18000000 		.word	24
 5309 0558 FF000000 		.word	255
 5310 055c E0000000 		.word	224
 5311 0560 E0000000 		.word	224
 5312 0564 E0000000 		.word	224
 5313 0568 E0000000 		.word	224
 5314 056c E0000000 		.word	224
 5315 0570 74420000 		.word	.LC361
 5316 0574 6478FFFC 		.word	-50366364
 5317 0578 00000000 		.word	0
 5318 057c FF000000 		.word	255
 5319 0580 E8000000 		.word	232
 5320 0584 10000000 		.word	16
 5321 0588 FF000000 		.word	255
 5322 058c E8000000 		.word	232
 5323 0590 E8000000 		.word	232
 5324 0594 E8000000 		.word	232
 5325 0598 E8000000 		.word	232
 5326 059c E8000000 		.word	232
 5327 05a0 94420000 		.word	.LC362
 5328 05a4 6478FFFC 		.word	-50366364
 5329 05a8 00000000 		.word	0
 5330 05ac FF000000 		.word	255
 5331 05b0 F0000000 		.word	240
 5332 05b4 08000000 		.word	8
 5333 05b8 FF000000 		.word	255
 5334 05bc F0000000 		.word	240
 5335 05c0 F0000000 		.word	240
 5336 05c4 F0000000 		.word	240
 5337 05c8 F0000000 		.word	240
 5338 05cc F0000000 		.word	240
 5339 05d0 B4420000 		.word	.LC363
 5340 05d4 6478FFFC 		.word	-50366364
 5341 05d8 00000000 		.word	0
 5342 05dc FF000000 		.word	255
 5343 05e0 F8000000 		.word	248
 5344 05e4 00000000 		.word	0
 5345 05e8 FF000000 		.word	255
 5346 05ec F8000000 		.word	248
 5347 05f0 F8000000 		.word	248
 5348 05f4 F8000000 		.word	248
 5349 05f8 F8000000 		.word	248
 5350 05fc F8000000 		.word	248
 5351 0600 D4420000 		.word	.LC364
 5352 0604 0878FFFC 		.word	-50366456
 5353 0608 00000000 		.word	0
 5354 060c FF070000 		.word	2047
 5355 0610 00040000 		.word	1024
 5356 0614 10000000 		.word	16
 5357 0618 FF070000 		.word	2047
 5358 061c A0070000 		.word	1952
 5359 0620 20000000 		.word	32
 5360 0624 60030000 		.word	864
 5361 0628 A0040000 		.word	1184
 5362 062c 00040000 		.word	1024
 5363 0630 F4420000 		.word	.LC365
 5364 0634 0878FFFC 		.word	-50366456
 5365 0638 00000000 		.word	0
 5366 063c FF070000 		.word	2047
 5367 0640 00040000 		.word	1024
 5368 0644 00000000 		.word	0
 5369 0648 FF070000 		.word	2047
 5370 064c E0050000 		.word	1504
 5371 0650 60000000 		.word	96
 5372 0654 E0000000 		.word	224
 5373 0658 20070000 		.word	1824
 5374 065c 00040000 		.word	1024
 5375 0660 14430000 		.word	.LC366
 5376 0664 0C78FFFC 		.word	-50366452
 5377 0668 00000000 		.word	0
 5378 066c FF070000 		.word	2047
 5379 0670 00040000 		.word	1024
 5380 0674 10000000 		.word	16
 5381 0678 FF070000 		.word	2047
 5382 067c 40050000 		.word	1344
 5383 0680 A0000000 		.word	160
 5384 0684 20010000 		.word	288
 5385 0688 E0060000 		.word	1760
 5386 068c 00040000 		.word	1024
 5387 0690 34430000 		.word	.LC367
 5388 0694 0C78FFFC 		.word	-50366452
 5389 0698 00000000 		.word	0
 5390 069c FF070000 		.word	2047
 5391 06a0 00040000 		.word	1024
 5392 06a4 00000000 		.word	0
 5393 06a8 FF070000 		.word	2047
 5394 06ac 00050000 		.word	1280
 5395 06b0 E0000000 		.word	224
 5396 06b4 60010000 		.word	352
 5397 06b8 A0060000 		.word	1696
 5398 06bc 00040000 		.word	1024
 5399 06c0 54430000 		.word	.LC368
 5400 06c4 1078FFFC 		.word	-50366448
 5401 06c8 00000000 		.word	0
 5402 06cc FF070000 		.word	2047
 5403 06d0 00040000 		.word	1024
 5404 06d4 10000000 		.word	16
 5405 06d8 FF070000 		.word	2047
 5406 06dc C0040000 		.word	1216
 5407 06e0 40010000 		.word	320
 5408 06e4 C0010000 		.word	448
 5409 06e8 40060000 		.word	1600
 5410 06ec 00040000 		.word	1024
 5411 06f0 74430000 		.word	.LC369
 5412 06f4 1078FFFC 		.word	-50366448
 5413 06f8 00000000 		.word	0
 5414 06fc FF070000 		.word	2047
 5415 0700 00040000 		.word	1024
 5416 0704 00000000 		.word	0
 5417 0708 FF070000 		.word	2047
 5418 070c 80040000 		.word	1152
 5419 0710 60010000 		.word	352
 5420 0714 20020000 		.word	544
 5421 0718 E0050000 		.word	1504
 5422 071c 00040000 		.word	1024
 5423 0720 94430000 		.word	.LC370
 5424 0724 1478FFFC 		.word	-50366444
 5425 0728 00000000 		.word	0
 5426 072c FF070000 		.word	2047
 5427 0730 00040000 		.word	1024
 5428 0734 10000000 		.word	16
 5429 0738 FF070000 		.word	2047
 5430 073c 60040000 		.word	1120
 5431 0740 A0010000 		.word	416
 5432 0744 80020000 		.word	640
 5433 0748 80050000 		.word	1408
 5434 074c 00040000 		.word	1024
 5435 0750 B4430000 		.word	.LC371
 5436 0754 1478FFFC 		.word	-50366444
 5437 0758 00000000 		.word	0
 5438 075c FF070000 		.word	2047
 5439 0760 00040000 		.word	1024
 5440 0764 00000000 		.word	0
 5441 0768 FF070000 		.word	2047
 5442 076c 40040000 		.word	1088
 5443 0770 00020000 		.word	512
 5444 0774 20030000 		.word	800
 5445 0778 E0040000 		.word	1248
 5446 077c 00040000 		.word	1024
 5447 0780 D4430000 		.word	.LC372
 5448 0784 1878FFFC 		.word	-50366440
 5449 0788 00000000 		.word	0
 5450 078c FF070000 		.word	2047
 5451 0790 00040000 		.word	1024
 5452 0794 10000000 		.word	16
 5453 0798 FF070000 		.word	2047
 5454 079c 40040000 		.word	1088
 5455 07a0 20020000 		.word	544
 5456 07a4 C0030000 		.word	960
 5457 07a8 40040000 		.word	1088
 5458 07ac 00040000 		.word	1024
 5459 07b0 F4430000 		.word	.LC373
 5460 07b4 1878FFFC 		.word	-50366440
 5461 07b8 00000000 		.word	0
 5462 07bc FF070000 		.word	2047
 5463 07c0 00040000 		.word	1024
 5464 07c4 00000000 		.word	0
 5465 07c8 FF070000 		.word	2047
 5466 07cc 20040000 		.word	1056
 5467 07d0 80020000 		.word	640
 5468 07d4 60040000 		.word	1120
 5469 07d8 A0030000 		.word	928
 5470 07dc 00040000 		.word	1024
 5471 07e0 14440000 		.word	.LC374
 5472 07e4 1C78FFFC 		.word	-50366436
 5473 07e8 00000000 		.word	0
 5474 07ec FF070000 		.word	2047
 5475 07f0 00040000 		.word	1024
 5476 07f4 10000000 		.word	16
 5477 07f8 FF070000 		.word	2047
 5478 07fc 00040000 		.word	1024
 5479 0800 A0020000 		.word	672
 5480 0804 20050000 		.word	1312
 5481 0808 20030000 		.word	800
 5482 080c 00040000 		.word	1024
 5483 0810 34440000 		.word	.LC375
 5484 0814 1C78FFFC 		.word	-50366436
 5485 0818 00000000 		.word	0
 5486 081c FF070000 		.word	2047
 5487 0820 00040000 		.word	1024
 5488 0824 00000000 		.word	0
 5489 0828 FF070000 		.word	2047
 5490 082c E0030000 		.word	992
 5491 0830 E0020000 		.word	736
 5492 0834 E0050000 		.word	1504
 5493 0838 20020000 		.word	544
 5494 083c 00040000 		.word	1024
 5495 0840 54440000 		.word	.LC376
 5496 0844 2078FFFC 		.word	-50366432
 5497 0848 00000000 		.word	0
 5498 084c FF070000 		.word	2047
 5499 0850 00040000 		.word	1024
 5500 0854 10000000 		.word	16
 5501 0858 FF070000 		.word	2047
 5502 085c E0030000 		.word	992
 5503 0860 40030000 		.word	832
 5504 0864 60060000 		.word	1632
 5505 0868 A0010000 		.word	416
 5506 086c 00040000 		.word	1024
 5507 0870 74440000 		.word	.LC377
 5508 0874 2078FFFC 		.word	-50366432
 5509 0878 00000000 		.word	0
 5510 087c FF070000 		.word	2047
 5511 0880 00040000 		.word	1024
 5512 0884 00000000 		.word	0
 5513 0888 FF070000 		.word	2047
 5514 088c E0030000 		.word	992
 5515 0890 60030000 		.word	864
 5516 0894 20070000 		.word	1824
 5517 0898 E0000000 		.word	224
 5518 089c 00040000 		.word	1024
 5519 08a0 94440000 		.word	.LC378
 5520 08a4 2478FFFC 		.word	-50366428
 5521 08a8 00000000 		.word	0
 5522 08ac FF070000 		.word	2047
 5523 08b0 00040000 		.word	1024
 5524 08b4 10000000 		.word	16
 5525 08b8 FF070000 		.word	2047
 5526 08bc C0030000 		.word	960
 5527 08c0 A0030000 		.word	928
 5528 08c4 60070000 		.word	1888
 5529 08c8 A0000000 		.word	160
 5530 08cc 00040000 		.word	1024
 5531 08d0 B4440000 		.word	.LC379
 5532 08d4 2478FFFC 		.word	-50366428
 5533 08d8 00000000 		.word	0
 5534 08dc FF070000 		.word	2047
 5535 08e0 00040000 		.word	1024
 5536 08e4 00000000 		.word	0
 5537 08e8 FF070000 		.word	2047
 5538 08ec C0030000 		.word	960
 5539 08f0 00040000 		.word	1024
 5540 08f4 A0070000 		.word	1952
 5541 08f8 60000000 		.word	96
 5542 08fc 00040000 		.word	1024
 5543 0900 D4440000 		.word	.LC380
 5544 0904 2878FFFC 		.word	-50366424
 5545 0908 00000000 		.word	0
 5546 090c FF070000 		.word	2047
 5547 0910 00040000 		.word	1024
 5548 0914 10000000 		.word	16
 5549 0918 FF070000 		.word	2047
 5550 091c A0030000 		.word	928
 5551 0920 20040000 		.word	1056
 5552 0924 A0070000 		.word	1952
 5553 0928 60000000 		.word	96
 5554 092c 00040000 		.word	1024
 5555 0930 F4440000 		.word	.LC381
 5556 0934 2878FFFC 		.word	-50366424
 5557 0938 00000000 		.word	0
 5558 093c FF070000 		.word	2047
 5559 0940 00040000 		.word	1024
 5560 0944 00000000 		.word	0
 5561 0948 FF070000 		.word	2047
 5562 094c A0030000 		.word	928
 5563 0950 60040000 		.word	1120
 5564 0954 60070000 		.word	1888
 5565 0958 A0000000 		.word	160
 5566 095c 00040000 		.word	1024
 5567 0960 14450000 		.word	.LC382
 5568 0964 2C78FFFC 		.word	-50366420
 5569 0968 00000000 		.word	0
 5570 096c FF070000 		.word	2047
 5571 0970 00040000 		.word	1024
 5572 0974 10000000 		.word	16
 5573 0978 FF070000 		.word	2047
 5574 097c A0030000 		.word	928
 5575 0980 C0040000 		.word	1216
 5576 0984 20070000 		.word	1824
 5577 0988 E0000000 		.word	224
 5578 098c 00040000 		.word	1024
 5579 0990 38450000 		.word	.LC383
 5580 0994 2C78FFFC 		.word	-50366420
 5581 0998 00000000 		.word	0
 5582 099c FF070000 		.word	2047
 5583 09a0 00040000 		.word	1024
 5584 09a4 00000000 		.word	0
 5585 09a8 FF070000 		.word	2047
 5586 09ac A0030000 		.word	928
 5587 09b0 E0040000 		.word	1248
 5588 09b4 60060000 		.word	1632
 5589 09b8 A0010000 		.word	416
 5590 09bc 00040000 		.word	1024
 5591 09c0 5C450000 		.word	.LC384
 5592 09c4 3078FFFC 		.word	-50366416
 5593 09c8 00000000 		.word	0
 5594 09cc FF070000 		.word	2047
 5595 09d0 00040000 		.word	1024
 5596 09d4 10000000 		.word	16
 5597 09d8 FF070000 		.word	2047
 5598 09dc 80030000 		.word	896
 5599 09e0 20050000 		.word	1312
 5600 09e4 E0050000 		.word	1504
 5601 09e8 20020000 		.word	544
 5602 09ec 00040000 		.word	1024
 5603 09f0 80450000 		.word	.LC385
 5604 09f4 3078FFFC 		.word	-50366416
 5605 09f8 00000000 		.word	0
 5606 09fc FF070000 		.word	2047
 5607 0a00 00040000 		.word	1024
 5608 0a04 00000000 		.word	0
 5609 0a08 FF070000 		.word	2047
 5610 0a0c 80030000 		.word	896
 5611 0a10 60050000 		.word	1376
 5612 0a14 20050000 		.word	1312
 5613 0a18 20030000 		.word	800
 5614 0a1c 00040000 		.word	1024
 5615 0a20 A4450000 		.word	.LC386
 5616 0a24 3478FFFC 		.word	-50366412
 5617 0a28 00000000 		.word	0
 5618 0a2c FF070000 		.word	2047
 5619 0a30 00040000 		.word	1024
 5620 0a34 10000000 		.word	16
 5621 0a38 FF070000 		.word	2047
 5622 0a3c 80030000 		.word	896
 5623 0a40 C0050000 		.word	1472
 5624 0a44 60040000 		.word	1120
 5625 0a48 A0030000 		.word	928
 5626 0a4c 00040000 		.word	1024
 5627 0a50 C8450000 		.word	.LC387
 5628 0a54 3478FFFC 		.word	-50366412
 5629 0a58 00000000 		.word	0
 5630 0a5c FF070000 		.word	2047
 5631 0a60 00040000 		.word	1024
 5632 0a64 00000000 		.word	0
 5633 0a68 FF070000 		.word	2047
 5634 0a6c 60030000 		.word	864
 5635 0a70 E0050000 		.word	1504
 5636 0a74 C0030000 		.word	960
 5637 0a78 40040000 		.word	1088
 5638 0a7c 00040000 		.word	1024
 5639 0a80 EC450000 		.word	.LC388
 5640 0a84 3878FFFC 		.word	-50366408
 5641 0a88 00000000 		.word	0
 5642 0a8c FF070000 		.word	2047
 5643 0a90 00040000 		.word	1024
 5644 0a94 10000000 		.word	16
 5645 0a98 FF070000 		.word	2047
 5646 0a9c 80030000 		.word	896
 5647 0aa0 20060000 		.word	1568
 5648 0aa4 20030000 		.word	800
 5649 0aa8 E0040000 		.word	1248
 5650 0aac 00040000 		.word	1024
 5651 0ab0 10460000 		.word	.LC389
 5652 0ab4 3878FFFC 		.word	-50366408
 5653 0ab8 00000000 		.word	0
 5654 0abc FF070000 		.word	2047
 5655 0ac0 00040000 		.word	1024
 5656 0ac4 00000000 		.word	0
 5657 0ac8 FF070000 		.word	2047
 5658 0acc 60030000 		.word	864
 5659 0ad0 60060000 		.word	1632
 5660 0ad4 80020000 		.word	640
 5661 0ad8 80050000 		.word	1408
 5662 0adc 00040000 		.word	1024
 5663 0ae0 34460000 		.word	.LC390
 5664 0ae4 3C78FFFC 		.word	-50366404
 5665 0ae8 00000000 		.word	0
 5666 0aec FF070000 		.word	2047
 5667 0af0 00040000 		.word	1024
 5668 0af4 10000000 		.word	16
 5669 0af8 FF070000 		.word	2047
 5670 0afc 60030000 		.word	864
 5671 0b00 A0060000 		.word	1696
 5672 0b04 20020000 		.word	544
 5673 0b08 E0050000 		.word	1504
 5674 0b0c 00040000 		.word	1024
 5675 0b10 58460000 		.word	.LC391
 5676 0b14 3C78FFFC 		.word	-50366404
 5677 0b18 00000000 		.word	0
 5678 0b1c FF070000 		.word	2047
 5679 0b20 00040000 		.word	1024
 5680 0b24 00000000 		.word	0
 5681 0b28 FF070000 		.word	2047
 5682 0b2c 60030000 		.word	864
 5683 0b30 E0060000 		.word	1760
 5684 0b34 C0010000 		.word	448
 5685 0b38 40060000 		.word	1600
 5686 0b3c 00040000 		.word	1024
 5687 0b40 7C460000 		.word	.LC392
 5688 0b44 4078FFFC 		.word	-50366400
 5689 0b48 00000000 		.word	0
 5690 0b4c FF070000 		.word	2047
 5691 0b50 00040000 		.word	1024
 5692 0b54 10000000 		.word	16
 5693 0b58 FF070000 		.word	2047
 5694 0b5c 40030000 		.word	832
 5695 0b60 20070000 		.word	1824
 5696 0b64 60010000 		.word	352
 5697 0b68 A0060000 		.word	1696
 5698 0b6c 00040000 		.word	1024
 5699 0b70 A0460000 		.word	.LC393
 5700 0b74 4078FFFC 		.word	-50366400
 5701 0b78 00000000 		.word	0
 5702 0b7c FF070000 		.word	2047
 5703 0b80 00040000 		.word	1024
 5704 0b84 00000000 		.word	0
 5705 0b88 FF070000 		.word	2047
 5706 0b8c 40030000 		.word	832
 5707 0b90 60070000 		.word	1888
 5708 0b94 20010000 		.word	288
 5709 0b98 E0060000 		.word	1760
 5710 0b9c 00040000 		.word	1024
 5711 0ba0 C4460000 		.word	.LC394
 5712 0ba4 4478FFFC 		.word	-50366396
 5713 0ba8 00000000 		.word	0
 5714 0bac FF070000 		.word	2047
 5715 0bb0 00040000 		.word	1024
 5716 0bb4 10000000 		.word	16
 5717 0bb8 FF070000 		.word	2047
 5718 0bbc 60030000 		.word	864
 5719 0bc0 A0070000 		.word	1952
 5720 0bc4 E0000000 		.word	224
 5721 0bc8 20070000 		.word	1824
 5722 0bcc 00040000 		.word	1024
 5723 0bd0 E8460000 		.word	.LC395
 5724 0bd4 4478FFFC 		.word	-50366396
 5725 0bd8 00000000 		.word	0
 5726 0bdc FF070000 		.word	2047
 5727 0be0 00040000 		.word	1024
 5728 0be4 00000000 		.word	0
 5729 0be8 FF070000 		.word	2047
 5730 0bec 49030000 		.word	841
 5731 0bf0 DB070000 		.word	2011
 5732 0bf4 00040000 		.word	1024
 5733 0bf8 49040000 		.word	1097
 5734 0bfc 00040000 		.word	1024
 5735 0c00 0C470000 		.word	.LC396
 5736 0c04 C878FFFC 		.word	-50366264
 5737 0c08 00000000 		.word	0
 5738 0c0c FF000000 		.word	255
 5739 0c10 08000000 		.word	8
 5740 0c14 10000000 		.word	16
 5741 0c18 FF000000 		.word	255
 5742 0c1c 08000000 		.word	8
 5743 0c20 08000000 		.word	8
 5744 0c24 08000000 		.word	8
 5745 0c28 08000000 		.word	8
 5746 0c2c 08000000 		.word	8
 5747 0c30 2C470000 		.word	.LC397
 5748 0c34 C878FFFC 		.word	-50366264
 5749 0c38 00000000 		.word	0
 5750 0c3c FF000000 		.word	255
 5751 0c40 10000000 		.word	16
 5752 0c44 08000000 		.word	8
 5753 0c48 FF000000 		.word	255
 5754 0c4c 10000000 		.word	16
 5755 0c50 10000000 		.word	16
 5756 0c54 10000000 		.word	16
 5757 0c58 10000000 		.word	16
 5758 0c5c 10000000 		.word	16
 5759 0c60 4C470000 		.word	.LC398
 5760 0c64 C878FFFC 		.word	-50366264
 5761 0c68 00000000 		.word	0
 5762 0c6c FF000000 		.word	255
 5763 0c70 18000000 		.word	24
 5764 0c74 00000000 		.word	0
 5765 0c78 FF000000 		.word	255
 5766 0c7c 18000000 		.word	24
 5767 0c80 18000000 		.word	24
 5768 0c84 18000000 		.word	24
 5769 0c88 18000000 		.word	24
 5770 0c8c 18000000 		.word	24
 5771 0c90 6C470000 		.word	.LC399
 5772 0c94 CC78FFFC 		.word	-50366260
 5773 0c98 00000000 		.word	0
 5774 0c9c FF000000 		.word	255
 5775 0ca0 20000000 		.word	32
 5776 0ca4 18000000 		.word	24
 5777 0ca8 FF000000 		.word	255
 5778 0cac 20000000 		.word	32
 5779 0cb0 20000000 		.word	32
 5780 0cb4 20000000 		.word	32
 5781 0cb8 20000000 		.word	32
 5782 0cbc 20000000 		.word	32
 5783 0cc0 8C470000 		.word	.LC400
 5784 0cc4 CC78FFFC 		.word	-50366260
 5785 0cc8 00000000 		.word	0
 5786 0ccc FF000000 		.word	255
 5787 0cd0 28000000 		.word	40
 5788 0cd4 10000000 		.word	16
 5789 0cd8 FF000000 		.word	255
 5790 0cdc 28000000 		.word	40
 5791 0ce0 28000000 		.word	40
 5792 0ce4 28000000 		.word	40
 5793 0ce8 28000000 		.word	40
 5794 0cec 28000000 		.word	40
 5795 0cf0 AC470000 		.word	.LC401
 5796 0cf4 CC78FFFC 		.word	-50366260
 5797 0cf8 00000000 		.word	0
 5798 0cfc FF000000 		.word	255
 5799 0d00 30000000 		.word	48
 5800 0d04 08000000 		.word	8
 5801 0d08 FF000000 		.word	255
 5802 0d0c 30000000 		.word	48
 5803 0d10 30000000 		.word	48
 5804 0d14 30000000 		.word	48
 5805 0d18 30000000 		.word	48
 5806 0d1c 30000000 		.word	48
 5807 0d20 CC470000 		.word	.LC402
 5808 0d24 CC78FFFC 		.word	-50366260
 5809 0d28 00000000 		.word	0
 5810 0d2c FF000000 		.word	255
 5811 0d30 38000000 		.word	56
 5812 0d34 00000000 		.word	0
 5813 0d38 FF000000 		.word	255
 5814 0d3c 38000000 		.word	56
 5815 0d40 38000000 		.word	56
 5816 0d44 38000000 		.word	56
 5817 0d48 38000000 		.word	56
 5818 0d4c 38000000 		.word	56
 5819 0d50 EC470000 		.word	.LC403
 5820 0d54 D078FFFC 		.word	-50366256
 5821 0d58 00000000 		.word	0
 5822 0d5c FF000000 		.word	255
 5823 0d60 40000000 		.word	64
 5824 0d64 18000000 		.word	24
 5825 0d68 FF000000 		.word	255
 5826 0d6c 40000000 		.word	64
 5827 0d70 40000000 		.word	64
 5828 0d74 40000000 		.word	64
 5829 0d78 40000000 		.word	64
 5830 0d7c 40000000 		.word	64
 5831 0d80 0C480000 		.word	.LC404
 5832 0d84 D078FFFC 		.word	-50366256
 5833 0d88 00000000 		.word	0
 5834 0d8c FF000000 		.word	255
 5835 0d90 48000000 		.word	72
 5836 0d94 10000000 		.word	16
 5837 0d98 FF000000 		.word	255
 5838 0d9c 48000000 		.word	72
 5839 0da0 48000000 		.word	72
 5840 0da4 48000000 		.word	72
 5841 0da8 48000000 		.word	72
 5842 0dac 48000000 		.word	72
 5843 0db0 2C480000 		.word	.LC405
 5844 0db4 D078FFFC 		.word	-50366256
 5845 0db8 00000000 		.word	0
 5846 0dbc FF000000 		.word	255
 5847 0dc0 50000000 		.word	80
 5848 0dc4 08000000 		.word	8
 5849 0dc8 FF000000 		.word	255
 5850 0dcc 50000000 		.word	80
 5851 0dd0 50000000 		.word	80
 5852 0dd4 50000000 		.word	80
 5853 0dd8 50000000 		.word	80
 5854 0ddc 50000000 		.word	80
 5855 0de0 4C480000 		.word	.LC406
 5856 0de4 D078FFFC 		.word	-50366256
 5857 0de8 00000000 		.word	0
 5858 0dec FF000000 		.word	255
 5859 0df0 58000000 		.word	88
 5860 0df4 00000000 		.word	0
 5861 0df8 FF000000 		.word	255
 5862 0dfc 58000000 		.word	88
 5863 0e00 58000000 		.word	88
 5864 0e04 58000000 		.word	88
 5865 0e08 58000000 		.word	88
 5866 0e0c 58000000 		.word	88
 5867 0e10 6C480000 		.word	.LC407
 5868 0e14 D478FFFC 		.word	-50366252
 5869 0e18 00000000 		.word	0
 5870 0e1c FF000000 		.word	255
 5871 0e20 60000000 		.word	96
 5872 0e24 18000000 		.word	24
 5873 0e28 FF000000 		.word	255
 5874 0e2c 60000000 		.word	96
 5875 0e30 60000000 		.word	96
 5876 0e34 60000000 		.word	96
 5877 0e38 60000000 		.word	96
 5878 0e3c 60000000 		.word	96
 5879 0e40 8C480000 		.word	.LC408
 5880 0e44 D478FFFC 		.word	-50366252
 5881 0e48 00000000 		.word	0
 5882 0e4c FF000000 		.word	255
 5883 0e50 68000000 		.word	104
 5884 0e54 10000000 		.word	16
 5885 0e58 FF000000 		.word	255
 5886 0e5c 68000000 		.word	104
 5887 0e60 68000000 		.word	104
 5888 0e64 68000000 		.word	104
 5889 0e68 68000000 		.word	104
 5890 0e6c 68000000 		.word	104
 5891 0e70 AC480000 		.word	.LC409
 5892 0e74 D478FFFC 		.word	-50366252
 5893 0e78 00000000 		.word	0
 5894 0e7c FF000000 		.word	255
 5895 0e80 70000000 		.word	112
 5896 0e84 08000000 		.word	8
 5897 0e88 FF000000 		.word	255
 5898 0e8c 70000000 		.word	112
 5899 0e90 70000000 		.word	112
 5900 0e94 70000000 		.word	112
 5901 0e98 70000000 		.word	112
 5902 0e9c 70000000 		.word	112
 5903 0ea0 CC480000 		.word	.LC410
 5904 0ea4 D478FFFC 		.word	-50366252
 5905 0ea8 00000000 		.word	0
 5906 0eac FF000000 		.word	255
 5907 0eb0 78000000 		.word	120
 5908 0eb4 00000000 		.word	0
 5909 0eb8 FF000000 		.word	255
 5910 0ebc 78000000 		.word	120
 5911 0ec0 78000000 		.word	120
 5912 0ec4 78000000 		.word	120
 5913 0ec8 78000000 		.word	120
 5914 0ecc 78000000 		.word	120
 5915 0ed0 EC480000 		.word	.LC411
 5916 0ed4 D878FFFC 		.word	-50366248
 5917 0ed8 00000000 		.word	0
 5918 0edc FF000000 		.word	255
 5919 0ee0 80000000 		.word	128
 5920 0ee4 18000000 		.word	24
 5921 0ee8 FF000000 		.word	255
 5922 0eec 80000000 		.word	128
 5923 0ef0 80000000 		.word	128
 5924 0ef4 80000000 		.word	128
 5925 0ef8 80000000 		.word	128
 5926 0efc 80000000 		.word	128
 5927 0f00 0C490000 		.word	.LC412
 5928 0f04 D878FFFC 		.word	-50366248
 5929 0f08 00000000 		.word	0
 5930 0f0c FF000000 		.word	255
 5931 0f10 88000000 		.word	136
 5932 0f14 10000000 		.word	16
 5933 0f18 FF000000 		.word	255
 5934 0f1c 88000000 		.word	136
 5935 0f20 88000000 		.word	136
 5936 0f24 88000000 		.word	136
 5937 0f28 88000000 		.word	136
 5938 0f2c 88000000 		.word	136
 5939 0f30 2C490000 		.word	.LC413
 5940 0f34 D878FFFC 		.word	-50366248
 5941 0f38 00000000 		.word	0
 5942 0f3c FF000000 		.word	255
 5943 0f40 90000000 		.word	144
 5944 0f44 08000000 		.word	8
 5945 0f48 FF000000 		.word	255
 5946 0f4c 90000000 		.word	144
 5947 0f50 90000000 		.word	144
 5948 0f54 90000000 		.word	144
 5949 0f58 90000000 		.word	144
 5950 0f5c 90000000 		.word	144
 5951 0f60 4C490000 		.word	.LC414
 5952 0f64 D878FFFC 		.word	-50366248
 5953 0f68 00000000 		.word	0
 5954 0f6c FF000000 		.word	255
 5955 0f70 98000000 		.word	152
 5956 0f74 00000000 		.word	0
 5957 0f78 FF000000 		.word	255
 5958 0f7c 98000000 		.word	152
 5959 0f80 98000000 		.word	152
 5960 0f84 98000000 		.word	152
 5961 0f88 98000000 		.word	152
 5962 0f8c 98000000 		.word	152
 5963 0f90 6C490000 		.word	.LC415
 5964 0f94 DC78FFFC 		.word	-50366244
 5965 0f98 00000000 		.word	0
 5966 0f9c FF000000 		.word	255
 5967 0fa0 A0000000 		.word	160
 5968 0fa4 18000000 		.word	24
 5969 0fa8 FF000000 		.word	255
 5970 0fac A0000000 		.word	160
 5971 0fb0 A0000000 		.word	160
 5972 0fb4 A0000000 		.word	160
 5973 0fb8 A0000000 		.word	160
 5974 0fbc A0000000 		.word	160
 5975 0fc0 8C490000 		.word	.LC416
 5976 0fc4 DC78FFFC 		.word	-50366244
 5977 0fc8 00000000 		.word	0
 5978 0fcc FF000000 		.word	255
 5979 0fd0 A8000000 		.word	168
 5980 0fd4 10000000 		.word	16
 5981 0fd8 FF000000 		.word	255
 5982 0fdc A8000000 		.word	168
 5983 0fe0 A8000000 		.word	168
 5984 0fe4 A8000000 		.word	168
 5985 0fe8 A8000000 		.word	168
 5986 0fec A8000000 		.word	168
 5987 0ff0 AC490000 		.word	.LC417
 5988 0ff4 DC78FFFC 		.word	-50366244
 5989 0ff8 00000000 		.word	0
 5990 0ffc FF000000 		.word	255
 5991 1000 B0000000 		.word	176
 5992 1004 08000000 		.word	8
 5993 1008 FF000000 		.word	255
 5994 100c B0000000 		.word	176
 5995 1010 B0000000 		.word	176
 5996 1014 B0000000 		.word	176
 5997 1018 B0000000 		.word	176
 5998 101c B0000000 		.word	176
 5999 1020 CC490000 		.word	.LC418
 6000 1024 DC78FFFC 		.word	-50366244
 6001 1028 00000000 		.word	0
 6002 102c FF000000 		.word	255
 6003 1030 B8000000 		.word	184
 6004 1034 00000000 		.word	0
 6005 1038 FF000000 		.word	255
 6006 103c B8000000 		.word	184
 6007 1040 B8000000 		.word	184
 6008 1044 B8000000 		.word	184
 6009 1048 B8000000 		.word	184
 6010 104c B8000000 		.word	184
 6011 1050 EC490000 		.word	.LC419
 6012 1054 E078FFFC 		.word	-50366240
 6013 1058 00000000 		.word	0
 6014 105c FF000000 		.word	255
 6015 1060 C0000000 		.word	192
 6016 1064 18000000 		.word	24
 6017 1068 FF000000 		.word	255
 6018 106c C0000000 		.word	192
 6019 1070 C0000000 		.word	192
 6020 1074 C0000000 		.word	192
 6021 1078 C0000000 		.word	192
 6022 107c C0000000 		.word	192
 6023 1080 0C4A0000 		.word	.LC420
 6024 1084 E078FFFC 		.word	-50366240
 6025 1088 00000000 		.word	0
 6026 108c FF000000 		.word	255
 6027 1090 C8000000 		.word	200
 6028 1094 10000000 		.word	16
 6029 1098 FF000000 		.word	255
 6030 109c C8000000 		.word	200
 6031 10a0 C8000000 		.word	200
 6032 10a4 C8000000 		.word	200
 6033 10a8 C8000000 		.word	200
 6034 10ac C8000000 		.word	200
 6035 10b0 2C4A0000 		.word	.LC421
 6036 10b4 E078FFFC 		.word	-50366240
 6037 10b8 00000000 		.word	0
 6038 10bc FF000000 		.word	255
 6039 10c0 D0000000 		.word	208
 6040 10c4 08000000 		.word	8
 6041 10c8 FF000000 		.word	255
 6042 10cc D0000000 		.word	208
 6043 10d0 D0000000 		.word	208
 6044 10d4 D0000000 		.word	208
 6045 10d8 D0000000 		.word	208
 6046 10dc D0000000 		.word	208
 6047 10e0 4C4A0000 		.word	.LC422
 6048 10e4 E078FFFC 		.word	-50366240
 6049 10e8 00000000 		.word	0
 6050 10ec FF000000 		.word	255
 6051 10f0 D8000000 		.word	216
 6052 10f4 00000000 		.word	0
 6053 10f8 FF000000 		.word	255
 6054 10fc D8000000 		.word	216
 6055 1100 D8000000 		.word	216
 6056 1104 D8000000 		.word	216
 6057 1108 D8000000 		.word	216
 6058 110c D8000000 		.word	216
 6059 1110 6C4A0000 		.word	.LC423
 6060 1114 E478FFFC 		.word	-50366236
 6061 1118 00000000 		.word	0
 6062 111c FF000000 		.word	255
 6063 1120 E0000000 		.word	224
 6064 1124 18000000 		.word	24
 6065 1128 FF000000 		.word	255
 6066 112c E0000000 		.word	224
 6067 1130 E0000000 		.word	224
 6068 1134 E0000000 		.word	224
 6069 1138 E0000000 		.word	224
 6070 113c E0000000 		.word	224
 6071 1140 8C4A0000 		.word	.LC424
 6072 1144 E478FFFC 		.word	-50366236
 6073 1148 00000000 		.word	0
 6074 114c FF000000 		.word	255
 6075 1150 E8000000 		.word	232
 6076 1154 10000000 		.word	16
 6077 1158 FF000000 		.word	255
 6078 115c E8000000 		.word	232
 6079 1160 E8000000 		.word	232
 6080 1164 E8000000 		.word	232
 6081 1168 E8000000 		.word	232
 6082 116c E8000000 		.word	232
 6083 1170 AC4A0000 		.word	.LC425
 6084 1174 E478FFFC 		.word	-50366236
 6085 1178 00000000 		.word	0
 6086 117c FF000000 		.word	255
 6087 1180 F0000000 		.word	240
 6088 1184 08000000 		.word	8
 6089 1188 FF000000 		.word	255
 6090 118c F0000000 		.word	240
 6091 1190 F0000000 		.word	240
 6092 1194 F0000000 		.word	240
 6093 1198 F0000000 		.word	240
 6094 119c F0000000 		.word	240
 6095 11a0 CC4A0000 		.word	.LC426
 6096 11a4 E478FFFC 		.word	-50366236
 6097 11a8 00000000 		.word	0
 6098 11ac FF000000 		.word	255
 6099 11b0 F8000000 		.word	248
 6100 11b4 00000000 		.word	0
 6101 11b8 FF000000 		.word	255
 6102 11bc F8000000 		.word	248
 6103 11c0 F8000000 		.word	248
 6104 11c4 F8000000 		.word	248
 6105 11c8 F8000000 		.word	248
 6106 11cc F8000000 		.word	248
 6107 11d0 EC4A0000 		.word	.LC427
 6108 11d4 8878FFFC 		.word	-50366328
 6109 11d8 00000000 		.word	0
 6110 11dc FF070000 		.word	2047
 6111 11e0 00040000 		.word	1024
 6112 11e4 10000000 		.word	16
 6113 11e8 FF070000 		.word	2047
 6114 11ec A0070000 		.word	1952
 6115 11f0 20000000 		.word	32
 6116 11f4 60030000 		.word	864
 6117 11f8 A0040000 		.word	1184
 6118 11fc 00040000 		.word	1024
 6119 1200 0C4B0000 		.word	.LC428
 6120 1204 8878FFFC 		.word	-50366328
 6121 1208 00000000 		.word	0
 6122 120c FF070000 		.word	2047
 6123 1210 00040000 		.word	1024
 6124 1214 00000000 		.word	0
 6125 1218 FF070000 		.word	2047
 6126 121c E0050000 		.word	1504
 6127 1220 60000000 		.word	96
 6128 1224 E0000000 		.word	224
 6129 1228 20070000 		.word	1824
 6130 122c 00040000 		.word	1024
 6131 1230 2C4B0000 		.word	.LC429
 6132 1234 8C78FFFC 		.word	-50366324
 6133 1238 00000000 		.word	0
 6134 123c FF070000 		.word	2047
 6135 1240 00040000 		.word	1024
 6136 1244 10000000 		.word	16
 6137 1248 FF070000 		.word	2047
 6138 124c 40050000 		.word	1344
 6139 1250 A0000000 		.word	160
 6140 1254 20010000 		.word	288
 6141 1258 E0060000 		.word	1760
 6142 125c 00040000 		.word	1024
 6143 1260 4C4B0000 		.word	.LC430
 6144 1264 8C78FFFC 		.word	-50366324
 6145 1268 00000000 		.word	0
 6146 126c FF070000 		.word	2047
 6147 1270 00040000 		.word	1024
 6148 1274 00000000 		.word	0
 6149 1278 FF070000 		.word	2047
 6150 127c 00050000 		.word	1280
 6151 1280 E0000000 		.word	224
 6152 1284 60010000 		.word	352
 6153 1288 A0060000 		.word	1696
 6154 128c 00040000 		.word	1024
 6155 1290 6C4B0000 		.word	.LC431
 6156 1294 9078FFFC 		.word	-50366320
 6157 1298 00000000 		.word	0
 6158 129c FF070000 		.word	2047
 6159 12a0 00040000 		.word	1024
 6160 12a4 10000000 		.word	16
 6161 12a8 FF070000 		.word	2047
 6162 12ac C0040000 		.word	1216
 6163 12b0 40010000 		.word	320
 6164 12b4 C0010000 		.word	448
 6165 12b8 40060000 		.word	1600
 6166 12bc 00040000 		.word	1024
 6167 12c0 8C4B0000 		.word	.LC432
 6168 12c4 9078FFFC 		.word	-50366320
 6169 12c8 00000000 		.word	0
 6170 12cc FF070000 		.word	2047
 6171 12d0 00040000 		.word	1024
 6172 12d4 00000000 		.word	0
 6173 12d8 FF070000 		.word	2047
 6174 12dc 80040000 		.word	1152
 6175 12e0 60010000 		.word	352
 6176 12e4 20020000 		.word	544
 6177 12e8 E0050000 		.word	1504
 6178 12ec 00040000 		.word	1024
 6179 12f0 AC4B0000 		.word	.LC433
 6180 12f4 9478FFFC 		.word	-50366316
 6181 12f8 00000000 		.word	0
 6182 12fc FF070000 		.word	2047
 6183 1300 00040000 		.word	1024
 6184 1304 10000000 		.word	16
 6185 1308 FF070000 		.word	2047
 6186 130c 60040000 		.word	1120
 6187 1310 A0010000 		.word	416
 6188 1314 80020000 		.word	640
 6189 1318 80050000 		.word	1408
 6190 131c 00040000 		.word	1024
 6191 1320 CC4B0000 		.word	.LC434
 6192 1324 9478FFFC 		.word	-50366316
 6193 1328 00000000 		.word	0
 6194 132c FF070000 		.word	2047
 6195 1330 00040000 		.word	1024
 6196 1334 00000000 		.word	0
 6197 1338 FF070000 		.word	2047
 6198 133c 40040000 		.word	1088
 6199 1340 00020000 		.word	512
 6200 1344 20030000 		.word	800
 6201 1348 E0040000 		.word	1248
 6202 134c 00040000 		.word	1024
 6203 1350 EC4B0000 		.word	.LC435
 6204 1354 9878FFFC 		.word	-50366312
 6205 1358 00000000 		.word	0
 6206 135c FF070000 		.word	2047
 6207 1360 00040000 		.word	1024
 6208 1364 10000000 		.word	16
 6209 1368 FF070000 		.word	2047
 6210 136c 40040000 		.word	1088
 6211 1370 20020000 		.word	544
 6212 1374 C0030000 		.word	960
 6213 1378 40040000 		.word	1088
 6214 137c 00040000 		.word	1024
 6215 1380 0C4C0000 		.word	.LC436
 6216 1384 9878FFFC 		.word	-50366312
 6217 1388 00000000 		.word	0
 6218 138c FF070000 		.word	2047
 6219 1390 00040000 		.word	1024
 6220 1394 00000000 		.word	0
 6221 1398 FF070000 		.word	2047
 6222 139c 20040000 		.word	1056
 6223 13a0 80020000 		.word	640
 6224 13a4 60040000 		.word	1120
 6225 13a8 A0030000 		.word	928
 6226 13ac 00040000 		.word	1024
 6227 13b0 2C4C0000 		.word	.LC437
 6228 13b4 9C78FFFC 		.word	-50366308
 6229 13b8 00000000 		.word	0
 6230 13bc FF070000 		.word	2047
 6231 13c0 00040000 		.word	1024
 6232 13c4 10000000 		.word	16
 6233 13c8 FF070000 		.word	2047
 6234 13cc 00040000 		.word	1024
 6235 13d0 A0020000 		.word	672
 6236 13d4 20050000 		.word	1312
 6237 13d8 20030000 		.word	800
 6238 13dc 00040000 		.word	1024
 6239 13e0 4C4C0000 		.word	.LC438
 6240 13e4 9C78FFFC 		.word	-50366308
 6241 13e8 00000000 		.word	0
 6242 13ec FF070000 		.word	2047
 6243 13f0 00040000 		.word	1024
 6244 13f4 00000000 		.word	0
 6245 13f8 FF070000 		.word	2047
 6246 13fc E0030000 		.word	992
 6247 1400 E0020000 		.word	736
 6248 1404 E0050000 		.word	1504
 6249 1408 20020000 		.word	544
 6250 140c 00040000 		.word	1024
 6251 1410 6C4C0000 		.word	.LC439
 6252 1414 A078FFFC 		.word	-50366304
 6253 1418 00000000 		.word	0
 6254 141c FF070000 		.word	2047
 6255 1420 00040000 		.word	1024
 6256 1424 10000000 		.word	16
 6257 1428 FF070000 		.word	2047
 6258 142c E0030000 		.word	992
 6259 1430 40030000 		.word	832
 6260 1434 60060000 		.word	1632
 6261 1438 A0010000 		.word	416
 6262 143c 00040000 		.word	1024
 6263 1440 8C4C0000 		.word	.LC440
 6264 1444 A078FFFC 		.word	-50366304
 6265 1448 00000000 		.word	0
 6266 144c FF070000 		.word	2047
 6267 1450 00040000 		.word	1024
 6268 1454 00000000 		.word	0
 6269 1458 FF070000 		.word	2047
 6270 145c E0030000 		.word	992
 6271 1460 60030000 		.word	864
 6272 1464 20070000 		.word	1824
 6273 1468 E0000000 		.word	224
 6274 146c 00040000 		.word	1024
 6275 1470 AC4C0000 		.word	.LC441
 6276 1474 A478FFFC 		.word	-50366300
 6277 1478 00000000 		.word	0
 6278 147c FF070000 		.word	2047
 6279 1480 00040000 		.word	1024
 6280 1484 10000000 		.word	16
 6281 1488 FF070000 		.word	2047
 6282 148c C0030000 		.word	960
 6283 1490 A0030000 		.word	928
 6284 1494 60070000 		.word	1888
 6285 1498 A0000000 		.word	160
 6286 149c 00040000 		.word	1024
 6287 14a0 CC4C0000 		.word	.LC442
 6288 14a4 A478FFFC 		.word	-50366300
 6289 14a8 00000000 		.word	0
 6290 14ac FF070000 		.word	2047
 6291 14b0 00040000 		.word	1024
 6292 14b4 00000000 		.word	0
 6293 14b8 FF070000 		.word	2047
 6294 14bc C0030000 		.word	960
 6295 14c0 00040000 		.word	1024
 6296 14c4 A0070000 		.word	1952
 6297 14c8 60000000 		.word	96
 6298 14cc 00040000 		.word	1024
 6299 14d0 EC4C0000 		.word	.LC443
 6300 14d4 A878FFFC 		.word	-50366296
 6301 14d8 00000000 		.word	0
 6302 14dc FF070000 		.word	2047
 6303 14e0 00040000 		.word	1024
 6304 14e4 10000000 		.word	16
 6305 14e8 FF070000 		.word	2047
 6306 14ec A0030000 		.word	928
 6307 14f0 20040000 		.word	1056
 6308 14f4 A0070000 		.word	1952
 6309 14f8 60000000 		.word	96
 6310 14fc 00040000 		.word	1024
 6311 1500 0C4D0000 		.word	.LC444
 6312 1504 A878FFFC 		.word	-50366296
 6313 1508 00000000 		.word	0
 6314 150c FF070000 		.word	2047
 6315 1510 00040000 		.word	1024
 6316 1514 00000000 		.word	0
 6317 1518 FF070000 		.word	2047
 6318 151c A0030000 		.word	928
 6319 1520 60040000 		.word	1120
 6320 1524 60070000 		.word	1888
 6321 1528 A0000000 		.word	160
 6322 152c 00040000 		.word	1024
 6323 1530 2C4D0000 		.word	.LC445
 6324 1534 AC78FFFC 		.word	-50366292
 6325 1538 00000000 		.word	0
 6326 153c FF070000 		.word	2047
 6327 1540 00040000 		.word	1024
 6328 1544 10000000 		.word	16
 6329 1548 FF070000 		.word	2047
 6330 154c A0030000 		.word	928
 6331 1550 C0040000 		.word	1216
 6332 1554 20070000 		.word	1824
 6333 1558 E0000000 		.word	224
 6334 155c 00040000 		.word	1024
 6335 1560 504D0000 		.word	.LC446
 6336 1564 AC78FFFC 		.word	-50366292
 6337 1568 00000000 		.word	0
 6338 156c FF070000 		.word	2047
 6339 1570 00040000 		.word	1024
 6340 1574 00000000 		.word	0
 6341 1578 FF070000 		.word	2047
 6342 157c A0030000 		.word	928
 6343 1580 E0040000 		.word	1248
 6344 1584 60060000 		.word	1632
 6345 1588 A0010000 		.word	416
 6346 158c 00040000 		.word	1024
 6347 1590 744D0000 		.word	.LC447
 6348 1594 B078FFFC 		.word	-50366288
 6349 1598 00000000 		.word	0
 6350 159c FF070000 		.word	2047
 6351 15a0 00040000 		.word	1024
 6352 15a4 10000000 		.word	16
 6353 15a8 FF070000 		.word	2047
 6354 15ac 80030000 		.word	896
 6355 15b0 20050000 		.word	1312
 6356 15b4 E0050000 		.word	1504
 6357 15b8 20020000 		.word	544
 6358 15bc 00040000 		.word	1024
 6359 15c0 984D0000 		.word	.LC448
 6360 15c4 B078FFFC 		.word	-50366288
 6361 15c8 00000000 		.word	0
 6362 15cc FF070000 		.word	2047
 6363 15d0 00040000 		.word	1024
 6364 15d4 00000000 		.word	0
 6365 15d8 FF070000 		.word	2047
 6366 15dc 80030000 		.word	896
 6367 15e0 60050000 		.word	1376
 6368 15e4 20050000 		.word	1312
 6369 15e8 20030000 		.word	800
 6370 15ec 00040000 		.word	1024
 6371 15f0 BC4D0000 		.word	.LC449
 6372 15f4 B478FFFC 		.word	-50366284
 6373 15f8 00000000 		.word	0
 6374 15fc FF070000 		.word	2047
 6375 1600 00040000 		.word	1024
 6376 1604 10000000 		.word	16
 6377 1608 FF070000 		.word	2047
 6378 160c 80030000 		.word	896
 6379 1610 C0050000 		.word	1472
 6380 1614 60040000 		.word	1120
 6381 1618 A0030000 		.word	928
 6382 161c 00040000 		.word	1024
 6383 1620 E04D0000 		.word	.LC450
 6384 1624 B478FFFC 		.word	-50366284
 6385 1628 00000000 		.word	0
 6386 162c FF070000 		.word	2047
 6387 1630 00040000 		.word	1024
 6388 1634 00000000 		.word	0
 6389 1638 FF070000 		.word	2047
 6390 163c 60030000 		.word	864
 6391 1640 E0050000 		.word	1504
 6392 1644 C0030000 		.word	960
 6393 1648 40040000 		.word	1088
 6394 164c 00040000 		.word	1024
 6395 1650 044E0000 		.word	.LC451
 6396 1654 B878FFFC 		.word	-50366280
 6397 1658 00000000 		.word	0
 6398 165c FF070000 		.word	2047
 6399 1660 00040000 		.word	1024
 6400 1664 10000000 		.word	16
 6401 1668 FF070000 		.word	2047
 6402 166c 80030000 		.word	896
 6403 1670 20060000 		.word	1568
 6404 1674 20030000 		.word	800
 6405 1678 E0040000 		.word	1248
 6406 167c 00040000 		.word	1024
 6407 1680 284E0000 		.word	.LC452
 6408 1684 B878FFFC 		.word	-50366280
 6409 1688 00000000 		.word	0
 6410 168c FF070000 		.word	2047
 6411 1690 00040000 		.word	1024
 6412 1694 00000000 		.word	0
 6413 1698 FF070000 		.word	2047
 6414 169c 60030000 		.word	864
 6415 16a0 60060000 		.word	1632
 6416 16a4 80020000 		.word	640
 6417 16a8 80050000 		.word	1408
 6418 16ac 00040000 		.word	1024
 6419 16b0 4C4E0000 		.word	.LC453
 6420 16b4 BC78FFFC 		.word	-50366276
 6421 16b8 00000000 		.word	0
 6422 16bc FF070000 		.word	2047
 6423 16c0 00040000 		.word	1024
 6424 16c4 10000000 		.word	16
 6425 16c8 FF070000 		.word	2047
 6426 16cc 60030000 		.word	864
 6427 16d0 A0060000 		.word	1696
 6428 16d4 20020000 		.word	544
 6429 16d8 E0050000 		.word	1504
 6430 16dc 00040000 		.word	1024
 6431 16e0 704E0000 		.word	.LC454
 6432 16e4 BC78FFFC 		.word	-50366276
 6433 16e8 00000000 		.word	0
 6434 16ec FF070000 		.word	2047
 6435 16f0 00040000 		.word	1024
 6436 16f4 00000000 		.word	0
 6437 16f8 FF070000 		.word	2047
 6438 16fc 60030000 		.word	864
 6439 1700 E0060000 		.word	1760
 6440 1704 C0010000 		.word	448
 6441 1708 40060000 		.word	1600
 6442 170c 00040000 		.word	1024
 6443 1710 944E0000 		.word	.LC455
 6444 1714 C078FFFC 		.word	-50366272
 6445 1718 00000000 		.word	0
 6446 171c FF070000 		.word	2047
 6447 1720 00040000 		.word	1024
 6448 1724 10000000 		.word	16
 6449 1728 FF070000 		.word	2047
 6450 172c 40030000 		.word	832
 6451 1730 20070000 		.word	1824
 6452 1734 60010000 		.word	352
 6453 1738 A0060000 		.word	1696
 6454 173c 00040000 		.word	1024
 6455 1740 B84E0000 		.word	.LC456
 6456 1744 C078FFFC 		.word	-50366272
 6457 1748 00000000 		.word	0
 6458 174c FF070000 		.word	2047
 6459 1750 00040000 		.word	1024
 6460 1754 00000000 		.word	0
 6461 1758 FF070000 		.word	2047
 6462 175c 40030000 		.word	832
 6463 1760 60070000 		.word	1888
 6464 1764 20010000 		.word	288
 6465 1768 E0060000 		.word	1760
 6466 176c 00040000 		.word	1024
 6467 1770 DC4E0000 		.word	.LC457
 6468 1774 C478FFFC 		.word	-50366268
 6469 1778 00000000 		.word	0
 6470 177c FF070000 		.word	2047
 6471 1780 00040000 		.word	1024
 6472 1784 10000000 		.word	16
 6473 1788 FF070000 		.word	2047
 6474 178c 60030000 		.word	864
 6475 1790 A0070000 		.word	1952
 6476 1794 E0000000 		.word	224
 6477 1798 20070000 		.word	1824
 6478 179c 00040000 		.word	1024
 6479 17a0 004F0000 		.word	.LC458
 6480 17a4 C478FFFC 		.word	-50366268
 6481 17a8 00000000 		.word	0
 6482 17ac FF070000 		.word	2047
 6483 17b0 00040000 		.word	1024
 6484 17b4 00000000 		.word	0
 6485 17b8 FF070000 		.word	2047
 6486 17bc 49030000 		.word	841
 6487 17c0 DB070000 		.word	2011
 6488 17c4 00040000 		.word	1024
 6489 17c8 49040000 		.word	1097
 6490 17cc 00040000 		.word	1024
 6491 17d0 244F0000 		.word	.LC459
 6492 17d4 4879FFFC 		.word	-50366136
 6493 17d8 00000000 		.word	0
 6494 17dc FF000000 		.word	255
 6495 17e0 08000000 		.word	8
 6496 17e4 10000000 		.word	16
 6497 17e8 FF000000 		.word	255
 6498 17ec 08000000 		.word	8
 6499 17f0 08000000 		.word	8
 6500 17f4 08000000 		.word	8
 6501 17f8 08000000 		.word	8
 6502 17fc 08000000 		.word	8
 6503 1800 444F0000 		.word	.LC460
 6504 1804 4879FFFC 		.word	-50366136
 6505 1808 00000000 		.word	0
 6506 180c FF000000 		.word	255
 6507 1810 10000000 		.word	16
 6508 1814 08000000 		.word	8
 6509 1818 FF000000 		.word	255
 6510 181c 10000000 		.word	16
 6511 1820 10000000 		.word	16
 6512 1824 10000000 		.word	16
 6513 1828 10000000 		.word	16
 6514 182c 10000000 		.word	16
 6515 1830 644F0000 		.word	.LC461
 6516 1834 4879FFFC 		.word	-50366136
 6517 1838 00000000 		.word	0
 6518 183c FF000000 		.word	255
 6519 1840 18000000 		.word	24
 6520 1844 00000000 		.word	0
 6521 1848 FF000000 		.word	255
 6522 184c 18000000 		.word	24
 6523 1850 18000000 		.word	24
 6524 1854 18000000 		.word	24
 6525 1858 18000000 		.word	24
 6526 185c 18000000 		.word	24
 6527 1860 844F0000 		.word	.LC462
 6528 1864 4C79FFFC 		.word	-50366132
 6529 1868 00000000 		.word	0
 6530 186c FF000000 		.word	255
 6531 1870 20000000 		.word	32
 6532 1874 18000000 		.word	24
 6533 1878 FF000000 		.word	255
 6534 187c 20000000 		.word	32
 6535 1880 20000000 		.word	32
 6536 1884 20000000 		.word	32
 6537 1888 20000000 		.word	32
 6538 188c 20000000 		.word	32
 6539 1890 A44F0000 		.word	.LC463
 6540 1894 4C79FFFC 		.word	-50366132
 6541 1898 00000000 		.word	0
 6542 189c FF000000 		.word	255
 6543 18a0 28000000 		.word	40
 6544 18a4 10000000 		.word	16
 6545 18a8 FF000000 		.word	255
 6546 18ac 28000000 		.word	40
 6547 18b0 28000000 		.word	40
 6548 18b4 28000000 		.word	40
 6549 18b8 28000000 		.word	40
 6550 18bc 28000000 		.word	40
 6551 18c0 C44F0000 		.word	.LC464
 6552 18c4 4C79FFFC 		.word	-50366132
 6553 18c8 00000000 		.word	0
 6554 18cc FF000000 		.word	255
 6555 18d0 30000000 		.word	48
 6556 18d4 08000000 		.word	8
 6557 18d8 FF000000 		.word	255
 6558 18dc 30000000 		.word	48
 6559 18e0 30000000 		.word	48
 6560 18e4 30000000 		.word	48
 6561 18e8 30000000 		.word	48
 6562 18ec 30000000 		.word	48
 6563 18f0 E44F0000 		.word	.LC465
 6564 18f4 4C79FFFC 		.word	-50366132
 6565 18f8 00000000 		.word	0
 6566 18fc FF000000 		.word	255
 6567 1900 38000000 		.word	56
 6568 1904 00000000 		.word	0
 6569 1908 FF000000 		.word	255
 6570 190c 38000000 		.word	56
 6571 1910 38000000 		.word	56
 6572 1914 38000000 		.word	56
 6573 1918 38000000 		.word	56
 6574 191c 38000000 		.word	56
 6575 1920 04500000 		.word	.LC466
 6576 1924 5079FFFC 		.word	-50366128
 6577 1928 00000000 		.word	0
 6578 192c FF000000 		.word	255
 6579 1930 40000000 		.word	64
 6580 1934 18000000 		.word	24
 6581 1938 FF000000 		.word	255
 6582 193c 40000000 		.word	64
 6583 1940 40000000 		.word	64
 6584 1944 40000000 		.word	64
 6585 1948 40000000 		.word	64
 6586 194c 40000000 		.word	64
 6587 1950 24500000 		.word	.LC467
 6588 1954 5079FFFC 		.word	-50366128
 6589 1958 00000000 		.word	0
 6590 195c FF000000 		.word	255
 6591 1960 48000000 		.word	72
 6592 1964 10000000 		.word	16
 6593 1968 FF000000 		.word	255
 6594 196c 48000000 		.word	72
 6595 1970 48000000 		.word	72
 6596 1974 48000000 		.word	72
 6597 1978 48000000 		.word	72
 6598 197c 48000000 		.word	72
 6599 1980 44500000 		.word	.LC468
 6600 1984 5079FFFC 		.word	-50366128
 6601 1988 00000000 		.word	0
 6602 198c FF000000 		.word	255
 6603 1990 50000000 		.word	80
 6604 1994 08000000 		.word	8
 6605 1998 FF000000 		.word	255
 6606 199c 50000000 		.word	80
 6607 19a0 50000000 		.word	80
 6608 19a4 50000000 		.word	80
 6609 19a8 50000000 		.word	80
 6610 19ac 50000000 		.word	80
 6611 19b0 64500000 		.word	.LC469
 6612 19b4 5079FFFC 		.word	-50366128
 6613 19b8 00000000 		.word	0
 6614 19bc FF000000 		.word	255
 6615 19c0 58000000 		.word	88
 6616 19c4 00000000 		.word	0
 6617 19c8 FF000000 		.word	255
 6618 19cc 58000000 		.word	88
 6619 19d0 58000000 		.word	88
 6620 19d4 58000000 		.word	88
 6621 19d8 58000000 		.word	88
 6622 19dc 58000000 		.word	88
 6623 19e0 84500000 		.word	.LC470
 6624 19e4 5479FFFC 		.word	-50366124
 6625 19e8 00000000 		.word	0
 6626 19ec FF000000 		.word	255
 6627 19f0 60000000 		.word	96
 6628 19f4 18000000 		.word	24
 6629 19f8 FF000000 		.word	255
 6630 19fc 60000000 		.word	96
 6631 1a00 60000000 		.word	96
 6632 1a04 60000000 		.word	96
 6633 1a08 60000000 		.word	96
 6634 1a0c 60000000 		.word	96
 6635 1a10 A4500000 		.word	.LC471
 6636 1a14 5479FFFC 		.word	-50366124
 6637 1a18 00000000 		.word	0
 6638 1a1c FF000000 		.word	255
 6639 1a20 68000000 		.word	104
 6640 1a24 10000000 		.word	16
 6641 1a28 FF000000 		.word	255
 6642 1a2c 68000000 		.word	104
 6643 1a30 68000000 		.word	104
 6644 1a34 68000000 		.word	104
 6645 1a38 68000000 		.word	104
 6646 1a3c 68000000 		.word	104
 6647 1a40 C4500000 		.word	.LC472
 6648 1a44 5479FFFC 		.word	-50366124
 6649 1a48 00000000 		.word	0
 6650 1a4c FF000000 		.word	255
 6651 1a50 70000000 		.word	112
 6652 1a54 08000000 		.word	8
 6653 1a58 FF000000 		.word	255
 6654 1a5c 70000000 		.word	112
 6655 1a60 70000000 		.word	112
 6656 1a64 70000000 		.word	112
 6657 1a68 70000000 		.word	112
 6658 1a6c 70000000 		.word	112
 6659 1a70 E4500000 		.word	.LC473
 6660 1a74 5479FFFC 		.word	-50366124
 6661 1a78 00000000 		.word	0
 6662 1a7c FF000000 		.word	255
 6663 1a80 78000000 		.word	120
 6664 1a84 00000000 		.word	0
 6665 1a88 FF000000 		.word	255
 6666 1a8c 78000000 		.word	120
 6667 1a90 78000000 		.word	120
 6668 1a94 78000000 		.word	120
 6669 1a98 78000000 		.word	120
 6670 1a9c 78000000 		.word	120
 6671 1aa0 04510000 		.word	.LC474
 6672 1aa4 5879FFFC 		.word	-50366120
 6673 1aa8 00000000 		.word	0
 6674 1aac FF000000 		.word	255
 6675 1ab0 80000000 		.word	128
 6676 1ab4 18000000 		.word	24
 6677 1ab8 FF000000 		.word	255
 6678 1abc 80000000 		.word	128
 6679 1ac0 80000000 		.word	128
 6680 1ac4 80000000 		.word	128
 6681 1ac8 80000000 		.word	128
 6682 1acc 80000000 		.word	128
 6683 1ad0 24510000 		.word	.LC475
 6684 1ad4 5879FFFC 		.word	-50366120
 6685 1ad8 00000000 		.word	0
 6686 1adc FF000000 		.word	255
 6687 1ae0 88000000 		.word	136
 6688 1ae4 10000000 		.word	16
 6689 1ae8 FF000000 		.word	255
 6690 1aec 88000000 		.word	136
 6691 1af0 88000000 		.word	136
 6692 1af4 88000000 		.word	136
 6693 1af8 88000000 		.word	136
 6694 1afc 88000000 		.word	136
 6695 1b00 44510000 		.word	.LC476
 6696 1b04 5879FFFC 		.word	-50366120
 6697 1b08 00000000 		.word	0
 6698 1b0c FF000000 		.word	255
 6699 1b10 90000000 		.word	144
 6700 1b14 08000000 		.word	8
 6701 1b18 FF000000 		.word	255
 6702 1b1c 90000000 		.word	144
 6703 1b20 90000000 		.word	144
 6704 1b24 90000000 		.word	144
 6705 1b28 90000000 		.word	144
 6706 1b2c 90000000 		.word	144
 6707 1b30 64510000 		.word	.LC477
 6708 1b34 5879FFFC 		.word	-50366120
 6709 1b38 00000000 		.word	0
 6710 1b3c FF000000 		.word	255
 6711 1b40 98000000 		.word	152
 6712 1b44 00000000 		.word	0
 6713 1b48 FF000000 		.word	255
 6714 1b4c 98000000 		.word	152
 6715 1b50 98000000 		.word	152
 6716 1b54 98000000 		.word	152
 6717 1b58 98000000 		.word	152
 6718 1b5c 98000000 		.word	152
 6719 1b60 84510000 		.word	.LC478
 6720 1b64 5C79FFFC 		.word	-50366116
 6721 1b68 00000000 		.word	0
 6722 1b6c FF000000 		.word	255
 6723 1b70 A0000000 		.word	160
 6724 1b74 18000000 		.word	24
 6725 1b78 FF000000 		.word	255
 6726 1b7c A0000000 		.word	160
 6727 1b80 A0000000 		.word	160
 6728 1b84 A0000000 		.word	160
 6729 1b88 A0000000 		.word	160
 6730 1b8c A0000000 		.word	160
 6731 1b90 A4510000 		.word	.LC479
 6732 1b94 5C79FFFC 		.word	-50366116
 6733 1b98 00000000 		.word	0
 6734 1b9c FF000000 		.word	255
 6735 1ba0 A8000000 		.word	168
 6736 1ba4 10000000 		.word	16
 6737 1ba8 FF000000 		.word	255
 6738 1bac A8000000 		.word	168
 6739 1bb0 A8000000 		.word	168
 6740 1bb4 A8000000 		.word	168
 6741 1bb8 A8000000 		.word	168
 6742 1bbc A8000000 		.word	168
 6743 1bc0 C4510000 		.word	.LC480
 6744 1bc4 5C79FFFC 		.word	-50366116
 6745 1bc8 00000000 		.word	0
 6746 1bcc FF000000 		.word	255
 6747 1bd0 B0000000 		.word	176
 6748 1bd4 08000000 		.word	8
 6749 1bd8 FF000000 		.word	255
 6750 1bdc B0000000 		.word	176
 6751 1be0 B0000000 		.word	176
 6752 1be4 B0000000 		.word	176
 6753 1be8 B0000000 		.word	176
 6754 1bec B0000000 		.word	176
 6755 1bf0 E4510000 		.word	.LC481
 6756 1bf4 5C79FFFC 		.word	-50366116
 6757 1bf8 00000000 		.word	0
 6758 1bfc FF000000 		.word	255
 6759 1c00 B8000000 		.word	184
 6760 1c04 00000000 		.word	0
 6761 1c08 FF000000 		.word	255
 6762 1c0c B8000000 		.word	184
 6763 1c10 B8000000 		.word	184
 6764 1c14 B8000000 		.word	184
 6765 1c18 B8000000 		.word	184
 6766 1c1c B8000000 		.word	184
 6767 1c20 04520000 		.word	.LC482
 6768 1c24 6079FFFC 		.word	-50366112
 6769 1c28 00000000 		.word	0
 6770 1c2c FF000000 		.word	255
 6771 1c30 C0000000 		.word	192
 6772 1c34 18000000 		.word	24
 6773 1c38 FF000000 		.word	255
 6774 1c3c C0000000 		.word	192
 6775 1c40 C0000000 		.word	192
 6776 1c44 C0000000 		.word	192
 6777 1c48 C0000000 		.word	192
 6778 1c4c C0000000 		.word	192
 6779 1c50 24520000 		.word	.LC483
 6780 1c54 6079FFFC 		.word	-50366112
 6781 1c58 00000000 		.word	0
 6782 1c5c FF000000 		.word	255
 6783 1c60 C8000000 		.word	200
 6784 1c64 10000000 		.word	16
 6785 1c68 FF000000 		.word	255
 6786 1c6c C8000000 		.word	200
 6787 1c70 C8000000 		.word	200
 6788 1c74 C8000000 		.word	200
 6789 1c78 C8000000 		.word	200
 6790 1c7c C8000000 		.word	200
 6791 1c80 44520000 		.word	.LC484
 6792 1c84 6079FFFC 		.word	-50366112
 6793 1c88 00000000 		.word	0
 6794 1c8c FF000000 		.word	255
 6795 1c90 D0000000 		.word	208
 6796 1c94 08000000 		.word	8
 6797 1c98 FF000000 		.word	255
 6798 1c9c D0000000 		.word	208
 6799 1ca0 D0000000 		.word	208
 6800 1ca4 D0000000 		.word	208
 6801 1ca8 D0000000 		.word	208
 6802 1cac D0000000 		.word	208
 6803 1cb0 64520000 		.word	.LC485
 6804 1cb4 6079FFFC 		.word	-50366112
 6805 1cb8 00000000 		.word	0
 6806 1cbc FF000000 		.word	255
 6807 1cc0 D8000000 		.word	216
 6808 1cc4 00000000 		.word	0
 6809 1cc8 FF000000 		.word	255
 6810 1ccc D8000000 		.word	216
 6811 1cd0 D8000000 		.word	216
 6812 1cd4 D8000000 		.word	216
 6813 1cd8 D8000000 		.word	216
 6814 1cdc D8000000 		.word	216
 6815 1ce0 84520000 		.word	.LC486
 6816 1ce4 6479FFFC 		.word	-50366108
 6817 1ce8 00000000 		.word	0
 6818 1cec FF000000 		.word	255
 6819 1cf0 E0000000 		.word	224
 6820 1cf4 18000000 		.word	24
 6821 1cf8 FF000000 		.word	255
 6822 1cfc E0000000 		.word	224
 6823 1d00 E0000000 		.word	224
 6824 1d04 E0000000 		.word	224
 6825 1d08 E0000000 		.word	224
 6826 1d0c E0000000 		.word	224
 6827 1d10 A4520000 		.word	.LC487
 6828 1d14 6479FFFC 		.word	-50366108
 6829 1d18 00000000 		.word	0
 6830 1d1c FF000000 		.word	255
 6831 1d20 E8000000 		.word	232
 6832 1d24 10000000 		.word	16
 6833 1d28 FF000000 		.word	255
 6834 1d2c E8000000 		.word	232
 6835 1d30 E8000000 		.word	232
 6836 1d34 E8000000 		.word	232
 6837 1d38 E8000000 		.word	232
 6838 1d3c E8000000 		.word	232
 6839 1d40 C4520000 		.word	.LC488
 6840 1d44 6479FFFC 		.word	-50366108
 6841 1d48 00000000 		.word	0
 6842 1d4c FF000000 		.word	255
 6843 1d50 F0000000 		.word	240
 6844 1d54 08000000 		.word	8
 6845 1d58 FF000000 		.word	255
 6846 1d5c F0000000 		.word	240
 6847 1d60 F0000000 		.word	240
 6848 1d64 F0000000 		.word	240
 6849 1d68 F0000000 		.word	240
 6850 1d6c F0000000 		.word	240
 6851 1d70 E4520000 		.word	.LC489
 6852 1d74 6479FFFC 		.word	-50366108
 6853 1d78 00000000 		.word	0
 6854 1d7c FF000000 		.word	255
 6855 1d80 F8000000 		.word	248
 6856 1d84 00000000 		.word	0
 6857 1d88 FF000000 		.word	255
 6858 1d8c F8000000 		.word	248
 6859 1d90 F8000000 		.word	248
 6860 1d94 F8000000 		.word	248
 6861 1d98 F8000000 		.word	248
 6862 1d9c F8000000 		.word	248
 6863 1da0 04530000 		.word	.LC490
 6864 1da4 0879FFFC 		.word	-50366200
 6865 1da8 00000000 		.word	0
 6866 1dac FF070000 		.word	2047
 6867 1db0 00040000 		.word	1024
 6868 1db4 10000000 		.word	16
 6869 1db8 FF070000 		.word	2047
 6870 1dbc A0070000 		.word	1952
 6871 1dc0 20000000 		.word	32
 6872 1dc4 60030000 		.word	864
 6873 1dc8 A0040000 		.word	1184
 6874 1dcc 00040000 		.word	1024
 6875 1dd0 24530000 		.word	.LC491
 6876 1dd4 0879FFFC 		.word	-50366200
 6877 1dd8 00000000 		.word	0
 6878 1ddc FF070000 		.word	2047
 6879 1de0 00040000 		.word	1024
 6880 1de4 00000000 		.word	0
 6881 1de8 FF070000 		.word	2047
 6882 1dec E0050000 		.word	1504
 6883 1df0 60000000 		.word	96
 6884 1df4 E0000000 		.word	224
 6885 1df8 20070000 		.word	1824
 6886 1dfc 00040000 		.word	1024
 6887 1e00 44530000 		.word	.LC492
 6888 1e04 0C79FFFC 		.word	-50366196
 6889 1e08 00000000 		.word	0
 6890 1e0c FF070000 		.word	2047
 6891 1e10 00040000 		.word	1024
 6892 1e14 10000000 		.word	16
 6893 1e18 FF070000 		.word	2047
 6894 1e1c 40050000 		.word	1344
 6895 1e20 A0000000 		.word	160
 6896 1e24 20010000 		.word	288
 6897 1e28 E0060000 		.word	1760
 6898 1e2c 00040000 		.word	1024
 6899 1e30 64530000 		.word	.LC493
 6900 1e34 0C79FFFC 		.word	-50366196
 6901 1e38 00000000 		.word	0
 6902 1e3c FF070000 		.word	2047
 6903 1e40 00040000 		.word	1024
 6904 1e44 00000000 		.word	0
 6905 1e48 FF070000 		.word	2047
 6906 1e4c 00050000 		.word	1280
 6907 1e50 E0000000 		.word	224
 6908 1e54 60010000 		.word	352
 6909 1e58 A0060000 		.word	1696
 6910 1e5c 00040000 		.word	1024
 6911 1e60 84530000 		.word	.LC494
 6912 1e64 1079FFFC 		.word	-50366192
 6913 1e68 00000000 		.word	0
 6914 1e6c FF070000 		.word	2047
 6915 1e70 00040000 		.word	1024
 6916 1e74 10000000 		.word	16
 6917 1e78 FF070000 		.word	2047
 6918 1e7c C0040000 		.word	1216
 6919 1e80 40010000 		.word	320
 6920 1e84 C0010000 		.word	448
 6921 1e88 40060000 		.word	1600
 6922 1e8c 00040000 		.word	1024
 6923 1e90 A4530000 		.word	.LC495
 6924 1e94 1079FFFC 		.word	-50366192
 6925 1e98 00000000 		.word	0
 6926 1e9c FF070000 		.word	2047
 6927 1ea0 00040000 		.word	1024
 6928 1ea4 00000000 		.word	0
 6929 1ea8 FF070000 		.word	2047
 6930 1eac 80040000 		.word	1152
 6931 1eb0 60010000 		.word	352
 6932 1eb4 20020000 		.word	544
 6933 1eb8 E0050000 		.word	1504
 6934 1ebc 00040000 		.word	1024
 6935 1ec0 C4530000 		.word	.LC496
 6936 1ec4 1479FFFC 		.word	-50366188
 6937 1ec8 00000000 		.word	0
 6938 1ecc FF070000 		.word	2047
 6939 1ed0 00040000 		.word	1024
 6940 1ed4 10000000 		.word	16
 6941 1ed8 FF070000 		.word	2047
 6942 1edc 60040000 		.word	1120
 6943 1ee0 A0010000 		.word	416
 6944 1ee4 80020000 		.word	640
 6945 1ee8 80050000 		.word	1408
 6946 1eec 00040000 		.word	1024
 6947 1ef0 E4530000 		.word	.LC497
 6948 1ef4 1479FFFC 		.word	-50366188
 6949 1ef8 00000000 		.word	0
 6950 1efc FF070000 		.word	2047
 6951 1f00 00040000 		.word	1024
 6952 1f04 00000000 		.word	0
 6953 1f08 FF070000 		.word	2047
 6954 1f0c 40040000 		.word	1088
 6955 1f10 00020000 		.word	512
 6956 1f14 20030000 		.word	800
 6957 1f18 E0040000 		.word	1248
 6958 1f1c 00040000 		.word	1024
 6959 1f20 04540000 		.word	.LC498
 6960 1f24 1879FFFC 		.word	-50366184
 6961 1f28 00000000 		.word	0
 6962 1f2c FF070000 		.word	2047
 6963 1f30 00040000 		.word	1024
 6964 1f34 10000000 		.word	16
 6965 1f38 FF070000 		.word	2047
 6966 1f3c 40040000 		.word	1088
 6967 1f40 20020000 		.word	544
 6968 1f44 C0030000 		.word	960
 6969 1f48 40040000 		.word	1088
 6970 1f4c 00040000 		.word	1024
 6971 1f50 24540000 		.word	.LC499
 6972 1f54 1879FFFC 		.word	-50366184
 6973 1f58 00000000 		.word	0
 6974 1f5c FF070000 		.word	2047
 6975 1f60 00040000 		.word	1024
 6976 1f64 00000000 		.word	0
 6977 1f68 FF070000 		.word	2047
 6978 1f6c 20040000 		.word	1056
 6979 1f70 80020000 		.word	640
 6980 1f74 60040000 		.word	1120
 6981 1f78 A0030000 		.word	928
 6982 1f7c 00040000 		.word	1024
 6983 1f80 44540000 		.word	.LC500
 6984 1f84 1C79FFFC 		.word	-50366180
 6985 1f88 00000000 		.word	0
 6986 1f8c FF070000 		.word	2047
 6987 1f90 00040000 		.word	1024
 6988 1f94 10000000 		.word	16
 6989 1f98 FF070000 		.word	2047
 6990 1f9c 00040000 		.word	1024
 6991 1fa0 A0020000 		.word	672
 6992 1fa4 20050000 		.word	1312
 6993 1fa8 20030000 		.word	800
 6994 1fac 00040000 		.word	1024
 6995 1fb0 64540000 		.word	.LC501
 6996 1fb4 1C79FFFC 		.word	-50366180
 6997 1fb8 00000000 		.word	0
 6998 1fbc FF070000 		.word	2047
 6999 1fc0 00040000 		.word	1024
 7000 1fc4 00000000 		.word	0
 7001 1fc8 FF070000 		.word	2047
 7002 1fcc E0030000 		.word	992
 7003 1fd0 E0020000 		.word	736
 7004 1fd4 E0050000 		.word	1504
 7005 1fd8 20020000 		.word	544
 7006 1fdc 00040000 		.word	1024
 7007 1fe0 84540000 		.word	.LC502
 7008 1fe4 2079FFFC 		.word	-50366176
 7009 1fe8 00000000 		.word	0
 7010 1fec FF070000 		.word	2047
 7011 1ff0 00040000 		.word	1024
 7012 1ff4 10000000 		.word	16
 7013 1ff8 FF070000 		.word	2047
 7014 1ffc E0030000 		.word	992
 7015 2000 40030000 		.word	832
 7016 2004 60060000 		.word	1632
 7017 2008 A0010000 		.word	416
 7018 200c 00040000 		.word	1024
 7019 2010 A4540000 		.word	.LC503
 7020 2014 2079FFFC 		.word	-50366176
 7021 2018 00000000 		.word	0
 7022 201c FF070000 		.word	2047
 7023 2020 00040000 		.word	1024
 7024 2024 00000000 		.word	0
 7025 2028 FF070000 		.word	2047
 7026 202c E0030000 		.word	992
 7027 2030 60030000 		.word	864
 7028 2034 20070000 		.word	1824
 7029 2038 E0000000 		.word	224
 7030 203c 00040000 		.word	1024
 7031 2040 C4540000 		.word	.LC504
 7032 2044 2479FFFC 		.word	-50366172
 7033 2048 00000000 		.word	0
 7034 204c FF070000 		.word	2047
 7035 2050 00040000 		.word	1024
 7036 2054 10000000 		.word	16
 7037 2058 FF070000 		.word	2047
 7038 205c C0030000 		.word	960
 7039 2060 A0030000 		.word	928
 7040 2064 60070000 		.word	1888
 7041 2068 A0000000 		.word	160
 7042 206c 00040000 		.word	1024
 7043 2070 E4540000 		.word	.LC505
 7044 2074 2479FFFC 		.word	-50366172
 7045 2078 00000000 		.word	0
 7046 207c FF070000 		.word	2047
 7047 2080 00040000 		.word	1024
 7048 2084 00000000 		.word	0
 7049 2088 FF070000 		.word	2047
 7050 208c C0030000 		.word	960
 7051 2090 00040000 		.word	1024
 7052 2094 A0070000 		.word	1952
 7053 2098 60000000 		.word	96
 7054 209c 00040000 		.word	1024
 7055 20a0 04550000 		.word	.LC506
 7056 20a4 2879FFFC 		.word	-50366168
 7057 20a8 00000000 		.word	0
 7058 20ac FF070000 		.word	2047
 7059 20b0 00040000 		.word	1024
 7060 20b4 10000000 		.word	16
 7061 20b8 FF070000 		.word	2047
 7062 20bc A0030000 		.word	928
 7063 20c0 20040000 		.word	1056
 7064 20c4 A0070000 		.word	1952
 7065 20c8 60000000 		.word	96
 7066 20cc 00040000 		.word	1024
 7067 20d0 24550000 		.word	.LC507
 7068 20d4 2879FFFC 		.word	-50366168
 7069 20d8 00000000 		.word	0
 7070 20dc FF070000 		.word	2047
 7071 20e0 00040000 		.word	1024
 7072 20e4 00000000 		.word	0
 7073 20e8 FF070000 		.word	2047
 7074 20ec A0030000 		.word	928
 7075 20f0 60040000 		.word	1120
 7076 20f4 60070000 		.word	1888
 7077 20f8 A0000000 		.word	160
 7078 20fc 00040000 		.word	1024
 7079 2100 44550000 		.word	.LC508
 7080 2104 2C79FFFC 		.word	-50366164
 7081 2108 00000000 		.word	0
 7082 210c FF070000 		.word	2047
 7083 2110 00040000 		.word	1024
 7084 2114 10000000 		.word	16
 7085 2118 FF070000 		.word	2047
 7086 211c A0030000 		.word	928
 7087 2120 C0040000 		.word	1216
 7088 2124 20070000 		.word	1824
 7089 2128 E0000000 		.word	224
 7090 212c 00040000 		.word	1024
 7091 2130 68550000 		.word	.LC509
 7092 2134 2C79FFFC 		.word	-50366164
 7093 2138 00000000 		.word	0
 7094 213c FF070000 		.word	2047
 7095 2140 00040000 		.word	1024
 7096 2144 00000000 		.word	0
 7097 2148 FF070000 		.word	2047
 7098 214c A0030000 		.word	928
 7099 2150 E0040000 		.word	1248
 7100 2154 60060000 		.word	1632
 7101 2158 A0010000 		.word	416
 7102 215c 00040000 		.word	1024
 7103 2160 8C550000 		.word	.LC510
 7104 2164 3079FFFC 		.word	-50366160
 7105 2168 00000000 		.word	0
 7106 216c FF070000 		.word	2047
 7107 2170 00040000 		.word	1024
 7108 2174 10000000 		.word	16
 7109 2178 FF070000 		.word	2047
 7110 217c 80030000 		.word	896
 7111 2180 20050000 		.word	1312
 7112 2184 E0050000 		.word	1504
 7113 2188 20020000 		.word	544
 7114 218c 00040000 		.word	1024
 7115 2190 B0550000 		.word	.LC511
 7116 2194 3079FFFC 		.word	-50366160
 7117 2198 00000000 		.word	0
 7118 219c FF070000 		.word	2047
 7119 21a0 00040000 		.word	1024
 7120 21a4 00000000 		.word	0
 7121 21a8 FF070000 		.word	2047
 7122 21ac 80030000 		.word	896
 7123 21b0 60050000 		.word	1376
 7124 21b4 20050000 		.word	1312
 7125 21b8 20030000 		.word	800
 7126 21bc 00040000 		.word	1024
 7127 21c0 D4550000 		.word	.LC512
 7128 21c4 3479FFFC 		.word	-50366156
 7129 21c8 00000000 		.word	0
 7130 21cc FF070000 		.word	2047
 7131 21d0 00040000 		.word	1024
 7132 21d4 10000000 		.word	16
 7133 21d8 FF070000 		.word	2047
 7134 21dc 80030000 		.word	896
 7135 21e0 C0050000 		.word	1472
 7136 21e4 60040000 		.word	1120
 7137 21e8 A0030000 		.word	928
 7138 21ec 00040000 		.word	1024
 7139 21f0 F8550000 		.word	.LC513
 7140 21f4 3479FFFC 		.word	-50366156
 7141 21f8 00000000 		.word	0
 7142 21fc FF070000 		.word	2047
 7143 2200 00040000 		.word	1024
 7144 2204 00000000 		.word	0
 7145 2208 FF070000 		.word	2047
 7146 220c 60030000 		.word	864
 7147 2210 E0050000 		.word	1504
 7148 2214 C0030000 		.word	960
 7149 2218 40040000 		.word	1088
 7150 221c 00040000 		.word	1024
 7151 2220 1C560000 		.word	.LC514
 7152 2224 3879FFFC 		.word	-50366152
 7153 2228 00000000 		.word	0
 7154 222c FF070000 		.word	2047
 7155 2230 00040000 		.word	1024
 7156 2234 10000000 		.word	16
 7157 2238 FF070000 		.word	2047
 7158 223c 80030000 		.word	896
 7159 2240 20060000 		.word	1568
 7160 2244 20030000 		.word	800
 7161 2248 E0040000 		.word	1248
 7162 224c 00040000 		.word	1024
 7163 2250 40560000 		.word	.LC515
 7164 2254 3879FFFC 		.word	-50366152
 7165 2258 00000000 		.word	0
 7166 225c FF070000 		.word	2047
 7167 2260 00040000 		.word	1024
 7168 2264 00000000 		.word	0
 7169 2268 FF070000 		.word	2047
 7170 226c 60030000 		.word	864
 7171 2270 60060000 		.word	1632
 7172 2274 80020000 		.word	640
 7173 2278 80050000 		.word	1408
 7174 227c 00040000 		.word	1024
 7175 2280 64560000 		.word	.LC516
 7176 2284 3C79FFFC 		.word	-50366148
 7177 2288 00000000 		.word	0
 7178 228c FF070000 		.word	2047
 7179 2290 00040000 		.word	1024
 7180 2294 10000000 		.word	16
 7181 2298 FF070000 		.word	2047
 7182 229c 60030000 		.word	864
 7183 22a0 A0060000 		.word	1696
 7184 22a4 20020000 		.word	544
 7185 22a8 E0050000 		.word	1504
 7186 22ac 00040000 		.word	1024
 7187 22b0 88560000 		.word	.LC517
 7188 22b4 3C79FFFC 		.word	-50366148
 7189 22b8 00000000 		.word	0
 7190 22bc FF070000 		.word	2047
 7191 22c0 00040000 		.word	1024
 7192 22c4 00000000 		.word	0
 7193 22c8 FF070000 		.word	2047
 7194 22cc 60030000 		.word	864
 7195 22d0 E0060000 		.word	1760
 7196 22d4 C0010000 		.word	448
 7197 22d8 40060000 		.word	1600
 7198 22dc 00040000 		.word	1024
 7199 22e0 AC560000 		.word	.LC518
 7200 22e4 4079FFFC 		.word	-50366144
 7201 22e8 00000000 		.word	0
 7202 22ec FF070000 		.word	2047
 7203 22f0 00040000 		.word	1024
 7204 22f4 10000000 		.word	16
 7205 22f8 FF070000 		.word	2047
 7206 22fc 40030000 		.word	832
 7207 2300 20070000 		.word	1824
 7208 2304 60010000 		.word	352
 7209 2308 A0060000 		.word	1696
 7210 230c 00040000 		.word	1024
 7211 2310 D0560000 		.word	.LC519
 7212 2314 4079FFFC 		.word	-50366144
 7213 2318 00000000 		.word	0
 7214 231c FF070000 		.word	2047
 7215 2320 00040000 		.word	1024
 7216 2324 00000000 		.word	0
 7217 2328 FF070000 		.word	2047
 7218 232c 40030000 		.word	832
 7219 2330 60070000 		.word	1888
 7220 2334 20010000 		.word	288
 7221 2338 E0060000 		.word	1760
 7222 233c 00040000 		.word	1024
 7223 2340 F4560000 		.word	.LC520
 7224 2344 4479FFFC 		.word	-50366140
 7225 2348 00000000 		.word	0
 7226 234c FF070000 		.word	2047
 7227 2350 00040000 		.word	1024
 7228 2354 10000000 		.word	16
 7229 2358 FF070000 		.word	2047
 7230 235c 60030000 		.word	864
 7231 2360 A0070000 		.word	1952
 7232 2364 E0000000 		.word	224
 7233 2368 20070000 		.word	1824
 7234 236c 00040000 		.word	1024
 7235 2370 18570000 		.word	.LC521
 7236 2374 4479FFFC 		.word	-50366140
 7237 2378 00000000 		.word	0
 7238 237c FF070000 		.word	2047
 7239 2380 00040000 		.word	1024
 7240 2384 00000000 		.word	0
 7241 2388 FF070000 		.word	2047
 7242 238c 49030000 		.word	841
 7243 2390 DB070000 		.word	2011
 7244 2394 00040000 		.word	1024
 7245 2398 49040000 		.word	1097
 7246 239c 00040000 		.word	1024
 7247              		.section	.rodata.gs_reg_input_mtx_mode,"a",%progbits
 7248              		.align	2
 7251              	gs_reg_input_mtx_mode:
 7252 0000 803E0000 		.word	.LC329
 7253 0004 A074FFFC 		.word	-50367328
 7254 0008 00000000 		.word	0
 7255 000c 03000000 		.word	3
 7256 0010 03000000 		.word	3
 7257 0014 00000000 		.word	0
 7258 0018 03000000 		.word	3
 7259 001c 03000000 		.word	3
 7260 0020 03000000 		.word	3
 7261 0024 03000000 		.word	3
 7262 0028 03000000 		.word	3
 7263 002c 03000000 		.word	3
 7264              		.section	.rodata.gs_reg_rotation,"a",%progbits
 7265              		.align	2
 7268              	gs_reg_rotation:
 7269 0000 A43E0000 		.word	.LC330
 7270 0004 8875FFFC 		.word	-50367096
 7271 0008 00000000 		.word	0
 7272 000c 04000000 		.word	4
 7273 0010 00000000 		.word	0
 7274 0014 04000000 		.word	4
 7275 0018 07000000 		.word	7
 7276 001c 01000000 		.word	1
 7277 0020 03000000 		.word	3
 7278 0024 00000000 		.word	0
 7279 0028 00000000 		.word	0
 7280 002c 00000000 		.word	0
 7281              		.section	.rodata.gs_reg_sharpness,"a",%progbits
 7282              		.align	2
 7285              	gs_reg_sharpness:
 7286 0000 3C570000 		.word	.LC522
 7287 0004 9476FFFC 		.word	-50366828
 7288 0008 00000000 		.word	0
 7289 000c 01000000 		.word	1
 7290 0010 00000000 		.word	0
 7291 0014 10000000 		.word	16
 7292 0018 01000000 		.word	1
 7293 001c 01000000 		.word	1
 7294 0020 01000000 		.word	1
 7295 0024 01000000 		.word	1
 7296 0028 00000000 		.word	0
 7297 002c 00000000 		.word	0
 7298 0030 54570000 		.word	.LC523
 7299 0034 9476FFFC 		.word	-50366828
 7300 0038 00000000 		.word	0
 7301 003c 7F000000 		.word	127
 7302 0040 00000000 		.word	0
 7303 0044 00000000 		.word	0
 7304 0048 7F000000 		.word	127
 7305 004c 0A000000 		.word	10
 7306 0050 0A000000 		.word	10
 7307 0054 0A000000 		.word	10
 7308 0058 00000000 		.word	0
 7309 005c 00000000 		.word	0
 7310 0060 74570000 		.word	.LC524
 7311 0064 9876FFFC 		.word	-50366824
 7312 0068 00000000 		.word	0
 7313 006c FF000000 		.word	255
 7314 0070 00000000 		.word	0
 7315 0074 18000000 		.word	24
 7316 0078 FF000000 		.word	255
 7317 007c BF000000 		.word	191
 7318 0080 64000000 		.word	100
 7319 0084 40000000 		.word	64
 7320 0088 00000000 		.word	0
 7321 008c 00000000 		.word	0
 7322 0090 98570000 		.word	.LC525
 7323 0094 9876FFFC 		.word	-50366824
 7324 0098 00000000 		.word	0
 7325 009c FF000000 		.word	255
 7326 00a0 00000000 		.word	0
 7327 00a4 10000000 		.word	16
 7328 00a8 FF000000 		.word	255
 7329 00ac BF000000 		.word	191
 7330 00b0 64000000 		.word	100
 7331 00b4 40000000 		.word	64
 7332 00b8 00000000 		.word	0
 7333 00bc 00000000 		.word	0
 7334 00c0 BC570000 		.word	.LC526
 7335 00c4 9876FFFC 		.word	-50366824
 7336 00c8 00000000 		.word	0
 7337 00cc FF000000 		.word	255
 7338 00d0 00000000 		.word	0
 7339 00d4 08000000 		.word	8
 7340 00d8 FF000000 		.word	255
 7341 00dc BF000000 		.word	191
 7342 00e0 64000000 		.word	100
 7343 00e4 40000000 		.word	64
 7344 00e8 00000000 		.word	0
 7345 00ec 00000000 		.word	0
 7346 00f0 E0570000 		.word	.LC527
 7347 00f4 9876FFFC 		.word	-50366824
 7348 00f8 00000000 		.word	0
 7349 00fc FF000000 		.word	255
 7350 0100 00000000 		.word	0
 7351 0104 00000000 		.word	0
 7352 0108 FF000000 		.word	255
 7353 010c BF000000 		.word	191
 7354 0110 64000000 		.word	100
 7355 0114 40000000 		.word	64
 7356 0118 00000000 		.word	0
 7357 011c 00000000 		.word	0
 7358 0120 04580000 		.word	.LC528
 7359 0124 9C76FFFC 		.word	-50366820
 7360 0128 00000000 		.word	0
 7361 012c 01000000 		.word	1
 7362 0130 00000000 		.word	0
 7363 0134 10000000 		.word	16
 7364 0138 01000000 		.word	1
 7365 013c 00000000 		.word	0
 7366 0140 00000000 		.word	0
 7367 0144 00000000 		.word	0
 7368 0148 00000000 		.word	0
 7369 014c 00000000 		.word	0
 7370 0150 24580000 		.word	.LC529
 7371 0154 9C76FFFC 		.word	-50366820
 7372 0158 00000000 		.word	0
 7373 015c 7F000000 		.word	127
 7374 0160 00000000 		.word	0
 7375 0164 00000000 		.word	0
 7376 0168 7F000000 		.word	127
 7377 016c 0A000000 		.word	10
 7378 0170 0A000000 		.word	10
 7379 0174 0A000000 		.word	10
 7380 0178 00000000 		.word	0
 7381 017c 00000000 		.word	0
 7382 0180 44580000 		.word	.LC530
 7383 0184 A076FFFC 		.word	-50366816
 7384 0188 00000000 		.word	0
 7385 018c FF000000 		.word	255
 7386 0190 00000000 		.word	0
 7387 0194 18000000 		.word	24
 7388 0198 FF000000 		.word	255
 7389 019c BF000000 		.word	191
 7390 01a0 64000000 		.word	100
 7391 01a4 40000000 		.word	64
 7392 01a8 00000000 		.word	0
 7393 01ac 00000000 		.word	0
 7394 01b0 68580000 		.word	.LC531
 7395 01b4 A076FFFC 		.word	-50366816
 7396 01b8 00000000 		.word	0
 7397 01bc FF000000 		.word	255
 7398 01c0 00000000 		.word	0
 7399 01c4 10000000 		.word	16
 7400 01c8 FF000000 		.word	255
 7401 01cc BF000000 		.word	191
 7402 01d0 64000000 		.word	100
 7403 01d4 40000000 		.word	64
 7404 01d8 00000000 		.word	0
 7405 01dc 00000000 		.word	0
 7406 01e0 8C580000 		.word	.LC532
 7407 01e4 A076FFFC 		.word	-50366816
 7408 01e8 00000000 		.word	0
 7409 01ec FF000000 		.word	255
 7410 01f0 00000000 		.word	0
 7411 01f4 08000000 		.word	8
 7412 01f8 FF000000 		.word	255
 7413 01fc BF000000 		.word	191
 7414 0200 64000000 		.word	100
 7415 0204 40000000 		.word	64
 7416 0208 00000000 		.word	0
 7417 020c 00000000 		.word	0
 7418 0210 B0580000 		.word	.LC533
 7419 0214 A076FFFC 		.word	-50366816
 7420 0218 00000000 		.word	0
 7421 021c FF000000 		.word	255
 7422 0220 00000000 		.word	0
 7423 0224 00000000 		.word	0
 7424 0228 FF000000 		.word	255
 7425 022c BF000000 		.word	191
 7426 0230 64000000 		.word	100
 7427 0234 40000000 		.word	64
 7428 0238 00000000 		.word	0
 7429 023c 00000000 		.word	0
 7430 0240 D4580000 		.word	.LC534
 7431 0244 A476FFFC 		.word	-50366812
 7432 0248 00000000 		.word	0
 7433 024c 7F000000 		.word	127
 7434 0250 00000000 		.word	0
 7435 0254 00000000 		.word	0
 7436 0258 7F000000 		.word	127
 7437 025c 0A000000 		.word	10
 7438 0260 0A000000 		.word	10
 7439 0264 0A000000 		.word	10
 7440 0268 00000000 		.word	0
 7441 026c 00000000 		.word	0
 7442 0270 F4580000 		.word	.LC535
 7443 0274 A876FFFC 		.word	-50366808
 7444 0278 00000000 		.word	0
 7445 027c FF000000 		.word	255
 7446 0280 00000000 		.word	0
 7447 0284 18000000 		.word	24
 7448 0288 FF000000 		.word	255
 7449 028c BF000000 		.word	191
 7450 0290 64000000 		.word	100
 7451 0294 40000000 		.word	64
 7452 0298 00000000 		.word	0
 7453 029c 00000000 		.word	0
 7454 02a0 18590000 		.word	.LC536
 7455 02a4 A876FFFC 		.word	-50366808
 7456 02a8 00000000 		.word	0
 7457 02ac FF000000 		.word	255
 7458 02b0 00000000 		.word	0
 7459 02b4 10000000 		.word	16
 7460 02b8 FF000000 		.word	255
 7461 02bc BF000000 		.word	191
 7462 02c0 64000000 		.word	100
 7463 02c4 40000000 		.word	64
 7464 02c8 00000000 		.word	0
 7465 02cc 00000000 		.word	0
 7466 02d0 3C590000 		.word	.LC537
 7467 02d4 A876FFFC 		.word	-50366808
 7468 02d8 00000000 		.word	0
 7469 02dc FF000000 		.word	255
 7470 02e0 00000000 		.word	0
 7471 02e4 08000000 		.word	8
 7472 02e8 FF000000 		.word	255
 7473 02ec BF000000 		.word	191
 7474 02f0 64000000 		.word	100
 7475 02f4 40000000 		.word	64
 7476 02f8 00000000 		.word	0
 7477 02fc 00000000 		.word	0
 7478 0300 60590000 		.word	.LC538
 7479 0304 A876FFFC 		.word	-50366808
 7480 0308 00000000 		.word	0
 7481 030c FF000000 		.word	255
 7482 0310 00000000 		.word	0
 7483 0314 00000000 		.word	0
 7484 0318 FF000000 		.word	255
 7485 031c BF000000 		.word	191
 7486 0320 64000000 		.word	100
 7487 0324 40000000 		.word	64
 7488 0328 00000000 		.word	0
 7489 032c 00000000 		.word	0
 7490 0330 84590000 		.word	.LC539
 7491 0334 AC76FFFC 		.word	-50366804
 7492 0338 00000000 		.word	0
 7493 033c 01000000 		.word	1
 7494 0340 00000000 		.word	0
 7495 0344 1F000000 		.word	31
 7496 0348 01000000 		.word	1
 7497 034c 01000000 		.word	1
 7498 0350 01000000 		.word	1
 7499 0354 01000000 		.word	1
 7500 0358 00000000 		.word	0
 7501 035c 00000000 		.word	0
 7502 0360 9C590000 		.word	.LC540
 7503 0364 AC76FFFC 		.word	-50366804
 7504 0368 00000000 		.word	0
 7505 036c 01000000 		.word	1
 7506 0370 00000000 		.word	0
 7507 0374 18000000 		.word	24
 7508 0378 01000000 		.word	1
 7509 037c 00000000 		.word	0
 7510 0380 00000000 		.word	0
 7511 0384 00000000 		.word	0
 7512 0388 00000000 		.word	0
 7513 038c 00000000 		.word	0
 7514 0390 BC590000 		.word	.LC541
 7515 0394 AC76FFFC 		.word	-50366804
 7516 0398 00000000 		.word	0
 7517 039c FF000000 		.word	255
 7518 03a0 0A000000 		.word	10
 7519 03a4 10000000 		.word	16
 7520 03a8 FF000000 		.word	255
 7521 03ac 0A000000 		.word	10
 7522 03b0 0A000000 		.word	10
 7523 03b4 0A000000 		.word	10
 7524 03b8 0A000000 		.word	10
 7525 03bc 00000000 		.word	0
 7526 03c0 E0590000 		.word	.LC542
 7527 03c4 AC76FFFC 		.word	-50366804
 7528 03c8 00000000 		.word	0
 7529 03cc FF000000 		.word	255
 7530 03d0 00000000 		.word	0
 7531 03d4 08000000 		.word	8
 7532 03d8 FF000000 		.word	255
 7533 03dc FF000000 		.word	255
 7534 03e0 80000000 		.word	128
 7535 03e4 40000000 		.word	64
 7536 03e8 00000000 		.word	0
 7537 03ec 00000000 		.word	0
 7538 03f0 005A0000 		.word	.LC543
 7539 03f4 AC76FFFC 		.word	-50366804
 7540 03f8 00000000 		.word	0
 7541 03fc FF000000 		.word	255
 7542 0400 00000000 		.word	0
 7543 0404 00000000 		.word	0
 7544 0408 FF000000 		.word	255
 7545 040c 14000000 		.word	20
 7546 0410 14000000 		.word	20
 7547 0414 14000000 		.word	20
 7548 0418 00000000 		.word	0
 7549 041c 00000000 		.word	0
 7550 0420 205A0000 		.word	.LC544
 7551 0424 B076FFFC 		.word	-50366800
 7552 0428 00000000 		.word	0
 7553 042c 01000000 		.word	1
 7554 0430 00000000 		.word	0
 7555 0434 18000000 		.word	24
 7556 0438 01000000 		.word	1
 7557 043c 00000000 		.word	0
 7558 0440 00000000 		.word	0
 7559 0444 00000000 		.word	0
 7560 0448 00000000 		.word	0
 7561 044c 00000000 		.word	0
 7562 0450 485A0000 		.word	.LC545
 7563 0454 B076FFFC 		.word	-50366800
 7564 0458 00000000 		.word	0
 7565 045c FF000000 		.word	255
 7566 0460 0A000000 		.word	10
 7567 0464 10000000 		.word	16
 7568 0468 FF000000 		.word	255
 7569 046c 0A000000 		.word	10
 7570 0470 0A000000 		.word	10
 7571 0474 0A000000 		.word	10
 7572 0478 0A000000 		.word	10
 7573 047c 00000000 		.word	0
 7574 0480 6C5A0000 		.word	.LC546
 7575 0484 B076FFFC 		.word	-50366800
 7576 0488 00000000 		.word	0
 7577 048c FF000000 		.word	255
 7578 0490 00000000 		.word	0
 7579 0494 08000000 		.word	8
 7580 0498 FF000000 		.word	255
 7581 049c FF000000 		.word	255
 7582 04a0 80000000 		.word	128
 7583 04a4 40000000 		.word	64
 7584 04a8 00000000 		.word	0
 7585 04ac 00000000 		.word	0
 7586 04b0 8C5A0000 		.word	.LC547
 7587 04b4 B076FFFC 		.word	-50366800
 7588 04b8 00000000 		.word	0
 7589 04bc FF000000 		.word	255
 7590 04c0 00000000 		.word	0
 7591 04c4 00000000 		.word	0
 7592 04c8 FF000000 		.word	255
 7593 04cc 14000000 		.word	20
 7594 04d0 14000000 		.word	20
 7595 04d4 14000000 		.word	20
 7596 04d8 00000000 		.word	0
 7597 04dc 00000000 		.word	0
 7598              		.section	.rodata.gs_rotation_content,"a",%progbits
 7599              		.align	2
 7602              	gs_rotation_content:
 7603 0000 486F7269 		.ascii	"Horizontal Mirroring and Rotation\000"
 7603      7A6F6E74 
 7603      616C204D 
 7603      6972726F 
 7603      72696E67 
 7604              		.section	.rodata.gs_sharp_content,"a",%progbits
 7605              		.align	2
 7608              	gs_sharp_content:
 7609 0000 53686172 		.ascii	"Sharpness Setting\000"
 7609      706E6573 
 7609      73205365 
 7609      7474696E 
 7609      6700
 7610              		.section	.rodata.gs_top_content,"a",%progbits
 7611              		.align	2
 7614              	gs_top_content:
 7615 0000 44697370 		.ascii	"Display Setting Top Menu\000"
 7615      6C617920 
 7615      53657474 
 7615      696E6720 
 7615      546F7020 
 7616              		.section	.rodata.gs_update_reg,"a",%progbits
 7617              		.align	2
 7618              		.set	.LANCHOR5,. + 0
 7621              	gs_update_reg:
 7622 0000 00000000 		.word	.LC31
 7623 0004 0074FFFC 		.word	-50367488
 7624 0008 11000000 		.word	17
 7625 000c 10000000 		.word	.LC32
 7626 0010 8074FFFC 		.word	-50367360
 7627 0014 01000000 		.word	1
 7628 0018 24000000 		.word	.LC33
 7629 001c 0075FFFC 		.word	-50367232
 7630 0020 11310000 		.word	12561
 7631 0024 3C000000 		.word	.LC34
 7632 0028 8075FFFC 		.word	-50367104
 7633 002c 11001100 		.word	1114129
 7634 0030 54000000 		.word	.LC35
 7635 0034 8076FFFC 		.word	-50366848
 7636 0038 01000000 		.word	1
 7637 003c 68000000 		.word	.LC36
 7638 0040 007AFFFC 		.word	-50365952
 7639 0044 01000000 		.word	1
 7640 0048 78000000 		.word	.LC37
 7641 004c 0078FFFC 		.word	-50366464
 7642 0050 01000000 		.word	1
 7643 0054 8C000000 		.word	.LC38
 7644 0058 8078FFFC 		.word	-50366336
 7645 005c 01000000 		.word	1
 7646 0060 A0000000 		.word	.LC39
 7647 0064 0079FFFC 		.word	-50366208
 7648 0068 01000000 		.word	1
 7649              		.section	.rodata.str1.4,"aMS",%progbits,1
 7650              		.align	2
 7651              	.LC31:
 7652 0000 56444336 		.ascii	"VDC6.INP_UPDATE\000"
 7652      2E494E50 
 7652      5F555044 
 7652      41544500 
 7653              	.LC32:
 7654 0010 56444336 		.ascii	"VDC6.IMGCNT_UPDATE\000"
 7654      2E494D47 
 7654      434E545F 
 7654      55504441 
 7654      544500
 7655 0023 00       		.space	1
 7656              	.LC33:
 7657 0024 56444336 		.ascii	"VDC6.SC0_SCL0_UPDATE\000"
 7657      2E534330 
 7657      5F53434C 
 7657      305F5550 
 7657      44415445 
 7658 0039 000000   		.space	3
 7659              	.LC34:
 7660 003c 56444336 		.ascii	"VDC6.SC0_SCL1_UPDATE\000"
 7660      2E534330 
 7660      5F53434C 
 7660      315F5550 
 7660      44415445 
 7661 0051 000000   		.space	3
 7662              	.LC35:
 7663 0054 56444336 		.ascii	"VDC6.ADJ0_UPDATE\000"
 7663      2E41444A 
 7663      305F5550 
 7663      44415445 
 7663      00
 7664 0065 000000   		.space	3
 7665              	.LC36:
 7666 0068 56444336 		.ascii	"VDC6.OUT_UPDATE\000"
 7666      2E4F5554 
 7666      5F555044 
 7666      41544500 
 7667              	.LC37:
 7668 0078 56444336 		.ascii	"VDC6.GAM_G_UPDATE\000"
 7668      2E47414D 
 7668      5F475F55 
 7668      50444154 
 7668      4500
 7669 008a 0000     		.space	2
 7670              	.LC38:
 7671 008c 56444336 		.ascii	"VDC6.GAM_B_UPDATE\000"
 7671      2E47414D 
 7671      5F425F55 
 7671      50444154 
 7671      4500
 7672 009e 0000     		.space	2
 7673              	.LC39:
 7674 00a0 56444336 		.ascii	"VDC6.GAM_R_UPDATE\000"
 7674      2E47414D 
 7674      5F525F55 
 7674      50444154 
 7674      4500
 7675 00b2 0000     		.space	2
 7676              	.LC40:
 7677 00b4 2F2A2A2A 		.ascii	"/**************************************************"
 7677      2A2A2A2A 
 7677      2A2A2A2A 
 7677      2A2A2A2A 
 7677      2A2A2A2A 
 7678 00e7 2A2A2A2A 		.ascii	"*****************************\000"
 7678      2A2A2A2A 
 7678      2A2A2A2A 
 7678      2A2A2A2A 
 7678      2A2A2A2A 
 7679 0105 000000   		.space	3
 7680              	.LC41:
 7681 0108 2A204449 		.ascii	"* DISCLAIMER\000"
 7681      53434C41 
 7681      494D4552 
 7681      00
 7682 0115 000000   		.space	3
 7683              	.LC42:
 7684 0118 2A205468 		.ascii	"* This software is supplied by Renesas Electronics "
 7684      69732073 
 7684      6F667477 
 7684      61726520 
 7684      69732073 
 7685 014b 436F7270 		.ascii	"Corporation and is only\000"
 7685      6F726174 
 7685      696F6E20 
 7685      616E6420 
 7685      6973206F 
 7686 0163 00       		.space	1
 7687              	.LC43:
 7688 0164 2A20696E 		.ascii	"* intended for use with Renesas products. No other "
 7688      74656E64 
 7688      65642066 
 7688      6F722075 
 7688      73652077 
 7689 0197 75736573 		.ascii	"uses are authorized. This\000"
 7689      20617265 
 7689      20617574 
 7689      686F7269 
 7689      7A65642E 
 7690 01b1 000000   		.space	3
 7691              	.LC44:
 7692 01b4 2A20736F 		.ascii	"* software is owned by Renesas Electronics Corporat"
 7692      66747761 
 7692      72652069 
 7692      73206F77 
 7692      6E656420 
 7693 01e7 696F6E20 		.ascii	"ion and is protected under\000"
 7693      616E6420 
 7693      69732070 
 7693      726F7465 
 7693      63746564 
 7694 0202 0000     		.space	2
 7695              	.LC45:
 7696 0204 2A20616C 		.ascii	"* all applicable laws, including copyright laws.\000"
 7696      6C206170 
 7696      706C6963 
 7696      61626C65 
 7696      206C6177 
 7697 0235 000000   		.space	3
 7698              	.LC46:
 7699 0238 2A205448 		.ascii	"* THIS SOFTWARE IS PROVIDED \"AS IS\" AND RENESAS M"
 7699      49532053 
 7699      4F465457 
 7699      41524520 
 7699      49532050 
 7700 0269 414B4553 		.ascii	"AKES NO WARRANTIES REGARDING\000"
 7700      204E4F20 
 7700      57415252 
 7700      414E5449 
 7700      45532052 
 7701 0286 0000     		.space	2
 7702              	.LC47:
 7703 0288 2A205448 		.ascii	"* THIS SOFTWARE, WHETHER EXPRESS, IMPLIED OR STATUT"
 7703      49532053 
 7703      4F465457 
 7703      4152452C 
 7703      20574845 
 7704 02bb 4F52592C 		.ascii	"ORY, INCLUDING BUT NOT\000"
 7704      20494E43 
 7704      4C554449 
 7704      4E472042 
 7704      5554204E 
 7705 02d2 0000     		.space	2
 7706              	.LC48:
 7707 02d4 2A204C49 		.ascii	"* LIMITED TO WARRANTIES OF MERCHANTABILITY, FITNESS"
 7707      4D495445 
 7707      4420544F 
 7707      20574152 
 7707      52414E54 
 7708 0307 20464F52 		.ascii	" FOR A PARTICULAR PURPOSE\000"
 7708      20412050 
 7708      41525449 
 7708      43554C41 
 7708      52205055 
 7709 0321 000000   		.space	3
 7710              	.LC49:
 7711 0324 2A20414E 		.ascii	"* AND NON-INFRINGEMENT. ALL SUCH WARRANTIES ARE EXP"
 7711      44204E4F 
 7711      4E2D494E 
 7711      4652494E 
 7711      47454D45 
 7712 0357 52455353 		.ascii	"RESSLY DISCLAIMED.\000"
 7712      4C592044 
 7712      4953434C 
 7712      41494D45 
 7712      442E00
 7713 036a 0000     		.space	2
 7714              	.LC50:
 7715 036c 2A20544F 		.ascii	"* TO THE MAXIMUM EXTENT PERMITTED NOT PROHIBITED BY"
 7715      20544845 
 7715      204D4158 
 7715      494D554D 
 7715      20455854 
 7716 039f 204C4157 		.ascii	" LAW, NEITHER RENESAS\000"
 7716      2C204E45 
 7716      49544845 
 7716      52205245 
 7716      4E455341 
 7717 03b5 000000   		.space	3
 7718              	.LC51:
 7719 03b8 2A20454C 		.ascii	"* ELECTRONICS CORPORATION NOR ANY OF ITS AFFILIATED"
 7719      45435452 
 7719      4F4E4943 
 7719      5320434F 
 7719      52504F52 
 7720 03eb 20434F4D 		.ascii	" COMPANIES SHALL BE LIABLE\000"
 7720      50414E49 
 7720      45532053 
 7720      48414C4C 
 7720      20424520 
 7721 0406 0000     		.space	2
 7722              	.LC52:
 7723 0408 2A20464F 		.ascii	"* FOR ANY DIRECT, INDIRECT, SPECIAL, INCIDENTAL OR "
 7723      5220414E 
 7723      59204449 
 7723      52454354 
 7723      2C20494E 
 7724 043b 434F4E53 		.ascii	"CONSEQUENTIAL DAMAGES FOR\000"
 7724      45515545 
 7724      4E544941 
 7724      4C204441 
 7724      4D414745 
 7725 0455 000000   		.space	3
 7726              	.LC53:
 7727 0458 2A20414E 		.ascii	"* ANY REASON RELATED TO THIS SOFTWARE, EVEN IF RENE"
 7727      59205245 
 7727      41534F4E 
 7727      2052454C 
 7727      41544544 
 7728 048b 53415320 		.ascii	"SAS OR ITS AFFILIATES HAVE\000"
 7728      4F522049 
 7728      54532041 
 7728      4646494C 
 7728      49415445 
 7729 04a6 0000     		.space	2
 7730              	.LC54:
 7731 04a8 2A204245 		.ascii	"* BEEN ADVISED OF THE POSSIBILITY OF SUCH DAMAGES.\000"
 7731      454E2041 
 7731      44564953 
 7731      4544204F 
 7731      46205448 
 7732 04db 00       		.space	1
 7733              	.LC55:
 7734 04dc 2A205265 		.ascii	"* Renesas reserves the right, without notice, to ma"
 7734      6E657361 
 7734      73207265 
 7734      73657276 
 7734      65732074 
 7735 050f 6B652063 		.ascii	"ke changes to this software\000"
 7735      68616E67 
 7735      65732074 
 7735      6F207468 
 7735      69732073 
 7736 052b 00       		.space	1
 7737              	.LC56:
 7738 052c 2A20616E 		.ascii	"* and to discontinue the availability of this softw"
 7738      6420746F 
 7738      20646973 
 7738      636F6E74 
 7738      696E7565 
 7739 055f 6172652E 		.ascii	"are. By using this software,\000"
 7739      20427920 
 7739      7573696E 
 7739      67207468 
 7739      69732073 
 7740              	.LC57:
 7741 057c 2A20796F 		.ascii	"* you agree to the additional terms and conditions "
 7741      75206167 
 7741      72656520 
 7741      746F2074 
 7741      68652061 
 7742 05af 666F756E 		.ascii	"found by accessing the\000"
 7742      64206279 
 7742      20616363 
 7742      65737369 
 7742      6E672074 
 7743 05c6 0000     		.space	2
 7744              	.LC58:
 7745 05c8 2A20666F 		.ascii	"* following link:\000"
 7745      6C6C6F77 
 7745      696E6720 
 7745      6C696E6B 
 7745      3A00
 7746 05da 0000     		.space	2
 7747              	.LC59:
 7748 05dc 2A206874 		.ascii	"* http://www.renesas.com/disclaimer\000"
 7748      74703A2F 
 7748      2F777777 
 7748      2E72656E 
 7748      65736173 
 7749              	.LC60:
 7750 0600 2A00     		.ascii	"*\000"
 7751 0602 0000     		.space	2
 7752              	.LC61:
 7753 0604 2A20436F 		.ascii	"* Copyright (C) 2018 Renesas Electronics Corporatio"
 7753      70797269 
 7753      67687420 
 7753      28432920 
 7753      32303138 
 7754 0637 6E2E2041 		.ascii	"n. All rights reserved.\000"
 7754      6C6C2072 
 7754      69676874 
 7754      73207265 
 7754      73657276 
 7755 064f 00       		.space	1
 7756              	.LC62:
 7757 0650 2A2A2A2A 		.ascii	"***************************************************"
 7757      2A2A2A2A 
 7757      2A2A2A2A 
 7757      2A2A2A2A 
 7757      2A2A2A2A 
 7758 0683 2A2A2A2A 		.ascii	"****************************/\000"
 7758      2A2A2A2A 
 7758      2A2A2A2A 
 7758      2A2A2A2A 
 7758      2A2A2A2A 
 7759 06a1 000000   		.space	3
 7760              	.LC63:
 7761 06a4 2F2A2A2A 		.ascii	"/**************************************************"
 7761      2A2A2A2A 
 7761      2A2A2A2A 
 7761      2A2A2A2A 
 7761      2A2A2A2A 
 7762 06d7 2A2A2A2A 		.ascii	"****************************\000"
 7762      2A2A2A2A 
 7762      2A2A2A2A 
 7762      2A2A2A2A 
 7762      2A2A2A2A 
 7763              	.LC64:
 7764 06f4 2A204669 		.ascii	"* File Name    : r_image_config.h\000"
 7764      6C65204E 
 7764      616D6520 
 7764      2020203A 
 7764      20725F69 
 7765 0716 0000     		.space	2
 7766              	.LC65:
 7767 0718 2A204465 		.ascii	"* Description  : Defines for Image Correction\000"
 7767      73637269 
 7767      7074696F 
 7767      6E20203A 
 7767      20446566 
 7768 0746 0000     		.space	2
 7769              	.LC66:
 7770 0748 2A2A2A2A 		.ascii	"***************************************************"
 7770      2A2A2A2A 
 7770      2A2A2A2A 
 7770      2A2A2A2A 
 7770      2A2A2A2A 
 7771 077b 2A2A2A2A 		.ascii	"***************************/\000"
 7771      2A2A2A2A 
 7771      2A2A2A2A 
 7771      2A2A2A2A 
 7771      2A2A2A2A 
 7772              	.LC67:
 7773 0798 2369666E 		.ascii	"#ifndef IMG_CONFIG_H\000"
 7773      64656620 
 7773      494D475F 
 7773      434F4E46 
 7773      49475F48 
 7774 07ad 000000   		.space	3
 7775              	.LC68:
 7776 07b0 23646566 		.ascii	"#define IMG_CONFIG_H\000"
 7776      696E6520 
 7776      494D475F 
 7776      434F4E46 
 7776      49475F48 
 7777 07c5 000000   		.space	3
 7778              	.LC69:
 7779 07c8 0A2F2A2A 		.ascii	"\012/**********************************************"
 7779      2A2A2A2A 
 7779      2A2A2A2A 
 7779      2A2A2A2A 
 7779      2A2A2A2A 
 7780 07f8 2A2A2A2A 		.ascii	"********************************\000"
 7780      2A2A2A2A 
 7780      2A2A2A2A 
 7780      2A2A2A2A 
 7780      2A2A2A2A 
 7781 0819 000000   		.space	3
 7782              	.LC70:
 7783 081c 496E636C 		.ascii	"Includes   <System Includes> , \"Project Includes\""
 7783      75646573 
 7783      2020203C 
 7783      53797374 
 7783      656D2049 
 7784 084d 00       		.ascii	"\000"
 7785 084e 0000     		.space	2
 7786              	.LC71:
 7787 0850 23696E63 		.ascii	"#include    \"r_vdc.h\"\000"
 7787      6C756465 
 7787      20202020 
 7787      22725F76 
 7787      64632E68 
 7788 0866 0000     		.space	2
 7789              	.LC72:
 7790 0868 23696E63 		.ascii	"#include    \"lcd_panel.h\"\000"
 7790      6C756465 
 7790      20202020 
 7790      226C6364 
 7790      5F70616E 
 7791 0882 0000     		.space	2
 7792              	.LC73:
 7793 0884 4D616372 		.ascii	"Macro definitions\000"
 7793      6F206465 
 7793      66696E69 
 7793      74696F6E 
 7793      7300
 7794 0896 0000     		.space	2
 7795              	.LC74:
 7796 0898 2F2A2042 		.ascii	"/* Brightness Setting */\000"
 7796      72696768 
 7796      746E6573 
 7796      73205365 
 7796      7474696E 
 7797 08b1 000000   		.space	3
 7798              	.LC75:
 7799 08b4 2F2A2043 		.ascii	"/* Contrast Setting */\000"
 7799      6F6E7472 
 7799      61737420 
 7799      53657474 
 7799      696E6720 
 7800 08cb 00       		.space	1
 7801              	.LC76:
 7802 08cc 23646566 		.ascii	"#define IMGC_BRIGHT_INPUTCTL_MODULE          (VDC_C"
 7802      696E6520 
 7802      494D4743 
 7802      5F425249 
 7802      4748545F 
 7803 08ff 4F4C4F52 		.ascii	"OLORMTX_IMGCNT)      /* This value is fixed */\000"
 7803      4D54585F 
 7803      494D4743 
 7803      4E542920 
 7803      20202020 
 7804 092e 0000     		.space	2
 7805              	.LC77:
 7806 0930 23646566 		.ascii	"#define IMGC_BRIGHT_INPUTCTL_MODE            \000"
 7806      696E6520 
 7806      494D4743 
 7806      5F425249 
 7806      4748545F 
 7807 095e 0000     		.space	2
 7808              	.LC78:
 7809 0960 23646566 		.ascii	"#define IMGC_BRIGHT_INPUTCTL_OFFSET_YG       \000"
 7809      696E6520 
 7809      494D4743 
 7809      5F425249 
 7809      4748545F 
 7810 098e 0000     		.space	2
 7811              	.LC79:
 7812 0990 23646566 		.ascii	"#define IMGC_BRIGHT_INPUTCTL_OFFSET_B        (128u)"
 7812      696E6520 
 7812      494D4743 
 7812      5F425249 
 7812      4748545F 
 7813 09c3 20202020 		.ascii	"                      /* This value is default. Use"
 7813      20202020 
 7813      20202020 
 7813      20202020 
 7813      20202020 
 7814 09f6 72206361 		.ascii	"r can modify based on user settings. */\000"
 7814      6E206D6F 
 7814      64696679 
 7814      20626173 
 7814      6564206F 
 7815 0a1e 0000     		.space	2
 7816              	.LC80:
 7817 0a20 23646566 		.ascii	"#define IMGC_BRIGHT_INPUTCTL_OFFSET_R        (128u)"
 7817      696E6520 
 7817      494D4743 
 7817      5F425249 
 7817      4748545F 
 7818 0a53 20202020 		.ascii	"                      /* This value is default. Use"
 7818      20202020 
 7818      20202020 
 7818      20202020 
 7818      20202020 
 7819 0a86 72206361 		.ascii	"r can modify based on user settings. */\000"
 7819      6E206D6F 
 7819      64696679 
 7819      20626173 
 7819      6564206F 
 7820 0aae 0000     		.space	2
 7821              	.LC81:
 7822 0ab0 23646566 		.ascii	"#define IMGC_CONTRAST_INPUTCTL_GAIN_GG       \000"
 7822      696E6520 
 7822      494D4743 
 7822      5F434F4E 
 7822      54524153 
 7823 0ade 0000     		.space	2
 7824              	.LC82:
 7825 0ae0 23646566 		.ascii	"#define IMGC_CONTRAST_INPUTCTL_GAIN_GB       (0u)  "
 7825      696E6520 
 7825      494D4743 
 7825      5F434F4E 
 7825      54524153 
 7826 0b13 20202020 		.ascii	"                      /* This value is default. Use"
 7826      20202020 
 7826      20202020 
 7826      20202020 
 7826      20202020 
 7827 0b46 72206361 		.ascii	"r can modify based on user settings. */\000"
 7827      6E206D6F 
 7827      64696679 
 7827      20626173 
 7827      6564206F 
 7828 0b6e 0000     		.space	2
 7829              	.LC83:
 7830 0b70 23646566 		.ascii	"#define IMGC_CONTRAST_INPUTCTL_GAIN_GR       (0u)  "
 7830      696E6520 
 7830      494D4743 
 7830      5F434F4E 
 7830      54524153 
 7831 0ba3 20202020 		.ascii	"                      /* This value is default. Use"
 7831      20202020 
 7831      20202020 
 7831      20202020 
 7831      20202020 
 7832 0bd6 72206361 		.ascii	"r can modify based on user settings. */\000"
 7832      6E206D6F 
 7832      64696679 
 7832      20626173 
 7832      6564206F 
 7833 0bfe 0000     		.space	2
 7834              	.LC84:
 7835 0c00 23646566 		.ascii	"#define IMGC_CONTRAST_INPUTCTL_GAIN_BG       (0u)  "
 7835      696E6520 
 7835      494D4743 
 7835      5F434F4E 
 7835      54524153 
 7836 0c33 20202020 		.ascii	"                      /* This value is default. Use"
 7836      20202020 
 7836      20202020 
 7836      20202020 
 7836      20202020 
 7837 0c66 72206361 		.ascii	"r can modify based on user settings. */\000"
 7837      6E206D6F 
 7837      64696679 
 7837      20626173 
 7837      6564206F 
 7838 0c8e 0000     		.space	2
 7839              	.LC85:
 7840 0c90 23646566 		.ascii	"#define IMGC_CONTRAST_INPUTCTL_GAIN_BB       (256u)"
 7840      696E6520 
 7840      494D4743 
 7840      5F434F4E 
 7840      54524153 
 7841 0cc3 20202020 		.ascii	"                      /* This value is default. Use"
 7841      20202020 
 7841      20202020 
 7841      20202020 
 7841      20202020 
 7842 0cf6 72206361 		.ascii	"r can modify based on user settings. */\000"
 7842      6E206D6F 
 7842      64696679 
 7842      20626173 
 7842      6564206F 
 7843 0d1e 0000     		.space	2
 7844              	.LC86:
 7845 0d20 23646566 		.ascii	"#define IMGC_CONTRAST_INPUTCTL_GAIN_BR       (0u)  "
 7845      696E6520 
 7845      494D4743 
 7845      5F434F4E 
 7845      54524153 
 7846 0d53 20202020 		.ascii	"                      /* This value is default. Use"
 7846      20202020 
 7846      20202020 
 7846      20202020 
 7846      20202020 
 7847 0d86 72206361 		.ascii	"r can modify based on user settings. */\000"
 7847      6E206D6F 
 7847      64696679 
 7847      20626173 
 7847      6564206F 
 7848 0dae 0000     		.space	2
 7849              	.LC87:
 7850 0db0 23646566 		.ascii	"#define IMGC_CONTRAST_INPUTCTL_GAIN_RG       (0u)  "
 7850      696E6520 
 7850      494D4743 
 7850      5F434F4E 
 7850      54524153 
 7851 0de3 20202020 		.ascii	"                      /* This value is default. Use"
 7851      20202020 
 7851      20202020 
 7851      20202020 
 7851      20202020 
 7852 0e16 72206361 		.ascii	"r can modify based on user settings. */\000"
 7852      6E206D6F 
 7852      64696679 
 7852      20626173 
 7852      6564206F 
 7853 0e3e 0000     		.space	2
 7854              	.LC88:
 7855 0e40 23646566 		.ascii	"#define IMGC_CONTRAST_INPUTCTL_GAIN_RB       (0u)  "
 7855      696E6520 
 7855      494D4743 
 7855      5F434F4E 
 7855      54524153 
 7856 0e73 20202020 		.ascii	"                      /* This value is default. Use"
 7856      20202020 
 7856      20202020 
 7856      20202020 
 7856      20202020 
 7857 0ea6 72206361 		.ascii	"r can modify based on user settings. */\000"
 7857      6E206D6F 
 7857      64696679 
 7857      20626173 
 7857      6564206F 
 7858 0ece 0000     		.space	2
 7859              	.LC89:
 7860 0ed0 23646566 		.ascii	"#define IMGC_CONTRAST_INPUTCTL_GAIN_RR       (256u)"
 7860      696E6520 
 7860      494D4743 
 7860      5F434F4E 
 7860      54524153 
 7861 0f03 20202020 		.ascii	"                      /* This value is default. Use"
 7861      20202020 
 7861      20202020 
 7861      20202020 
 7861      20202020 
 7862 0f36 72206361 		.ascii	"r can modify based on user settings. */\000"
 7862      6E206D6F 
 7862      64696679 
 7862      20626173 
 7862      6564206F 
 7863 0f5e 0000     		.space	2
 7864              	.LC90:
 7865 0f60 0A236465 		.ascii	"\012#define IMGC_OUTCTL_CALIB_ROUTE              (V"
 7865      66696E65 
 7865      20494D47 
 7865      435F4F55 
 7865      5443544C 
 7866 0f90 44435F43 		.ascii	"DC_CALIBR_ROUTE_BCG)     /* This value is default. "
 7866      414C4942 
 7866      525F524F 
 7866      5554455F 
 7866      42434729 
 7867 0fc3 55736572 		.ascii	"User can modify based on user settings. */\000"
 7867      2063616E 
 7867      206D6F64 
 7867      69667920 
 7867      62617365 
 7868 0fee 0000     		.space	2
 7869              	.LC91:
 7870 0ff0 23646566 		.ascii	"#define IMGC_BRIGHT_OUTCTL_OFFSET_G          \000"
 7870      696E6520 
 7870      494D4743 
 7870      5F425249 
 7870      4748545F 
 7871 101e 0000     		.space	2
 7872              	.LC92:
 7873 1020 23646566 		.ascii	"#define IMGC_BRIGHT_OUTCTL_OFFSET_B          \000"
 7873      696E6520 
 7873      494D4743 
 7873      5F425249 
 7873      4748545F 
 7874 104e 0000     		.space	2
 7875              	.LC93:
 7876 1050 23646566 		.ascii	"#define IMGC_BRIGHT_OUTCTL_OFFSET_R          \000"
 7876      696E6520 
 7876      494D4743 
 7876      5F425249 
 7876      4748545F 
 7877 107e 0000     		.space	2
 7878              	.LC94:
 7879 1080 23646566 		.ascii	"#define IMGC_CONTRAST_OUTCTL_GAIN_G          \000"
 7879      696E6520 
 7879      494D4743 
 7879      5F434F4E 
 7879      54524153 
 7880 10ae 0000     		.space	2
 7881              	.LC95:
 7882 10b0 23646566 		.ascii	"#define IMGC_CONTRAST_OUTCTL_GAIN_B          \000"
 7882      696E6520 
 7882      494D4743 
 7882      5F434F4E 
 7882      54524153 
 7883 10de 0000     		.space	2
 7884              	.LC96:
 7885 10e0 23646566 		.ascii	"#define IMGC_CONTRAST_OUTCTL_GAIN_R          \000"
 7885      696E6520 
 7885      494D4743 
 7885      5F434F4E 
 7885      54524153 
 7886 110e 0000     		.space	2
 7887              	.LC97:
 7888 1110 0A2F2A20 		.ascii	"\012/* Sharpness Setting */\000"
 7888      53686172 
 7888      706E6573 
 7888      73205365 
 7888      7474696E 
 7889 1129 000000   		.space	3
 7890              	.LC98:
 7891 112c 23646566 		.ascii	"#define IMGC_IMG_IMPRV_ID                    (VDC_I"
 7891      696E6520 
 7891      494D4743 
 7891      5F494D47 
 7891      5F494D50 
 7892 115f 4D475F49 		.ascii	"MG_IMPRV_0)          /* This value is fixed */\000"
 7892      4D505256 
 7892      5F302920 
 7892      20202020 
 7892      20202020 
 7893 118e 0000     		.space	2
 7894              	.LC99:
 7895 1190 23646566 		.ascii	"#define IMGC_SHARPNESS_ACTIVE                \000"
 7895      696E6520 
 7895      494D4743 
 7895      5F534841 
 7895      52504E45 
 7896 11be 0000     		.space	2
 7897              	.LC100:
 7898 11c0 23646566 		.ascii	"#define IMGC_SHARPNESS_H1_CLIP_O             \000"
 7898      696E6520 
 7898      494D4743 
 7898      5F534841 
 7898      52504E45 
 7899 11ee 0000     		.space	2
 7900              	.LC101:
 7901 11f0 23646566 		.ascii	"#define IMGC_SHARPNESS_H1_CLIP_U             \000"
 7901      696E6520 
 7901      494D4743 
 7901      5F534841 
 7901      52504E45 
 7902 121e 0000     		.space	2
 7903              	.LC102:
 7904 1220 23646566 		.ascii	"#define IMGC_SHARPNESS_H1_GAIN_O             \000"
 7904      696E6520 
 7904      494D4743 
 7904      5F534841 
 7904      52504E45 
 7905 124e 0000     		.space	2
 7906              	.LC103:
 7907 1250 23646566 		.ascii	"#define IMGC_SHARPNESS_H1_GAIN_U             \000"
 7907      696E6520 
 7907      494D4743 
 7907      5F534841 
 7907      52504E45 
 7908 127e 0000     		.space	2
 7909              	.LC104:
 7910 1280 23646566 		.ascii	"#define IMGC_SHARPNESS_H1_CORE               \000"
 7910      696E6520 
 7910      494D4743 
 7910      5F534841 
 7910      52504E45 
 7911 12ae 0000     		.space	2
 7912              	.LC105:
 7913 12b0 23646566 		.ascii	"#define IMGC_SHARPNESS_H2_LPF                \000"
 7913      696E6520 
 7913      494D4743 
 7913      5F534841 
 7913      52504E45 
 7914 12de 0000     		.space	2
 7915              	.LC106:
 7916 12e0 23646566 		.ascii	"#define IMGC_SHARPNESS_H2_CLIP_O             \000"
 7916      696E6520 
 7916      494D4743 
 7916      5F534841 
 7916      52504E45 
 7917 130e 0000     		.space	2
 7918              	.LC107:
 7919 1310 23646566 		.ascii	"#define IMGC_SHARPNESS_H2_CLIP_U             \000"
 7919      696E6520 
 7919      494D4743 
 7919      5F534841 
 7919      52504E45 
 7920 133e 0000     		.space	2
 7921              	.LC108:
 7922 1340 23646566 		.ascii	"#define IMGC_SHARPNESS_H2_GAIN_O             \000"
 7922      696E6520 
 7922      494D4743 
 7922      5F534841 
 7922      52504E45 
 7923 136e 0000     		.space	2
 7924              	.LC109:
 7925 1370 23646566 		.ascii	"#define IMGC_SHARPNESS_H2_GAIN_U             \000"
 7925      696E6520 
 7925      494D4743 
 7925      5F534841 
 7925      52504E45 
 7926 139e 0000     		.space	2
 7927              	.LC110:
 7928 13a0 23646566 		.ascii	"#define IMGC_SHARPNESS_H2_CORE               \000"
 7928      696E6520 
 7928      494D4743 
 7928      5F534841 
 7928      52504E45 
 7929 13ce 0000     		.space	2
 7930              	.LC111:
 7931 13d0 23646566 		.ascii	"#define IMGC_SHARPNESS_H3_CLIP_O             \000"
 7931      696E6520 
 7931      494D4743 
 7931      5F534841 
 7931      52504E45 
 7932 13fe 0000     		.space	2
 7933              	.LC112:
 7934 1400 23646566 		.ascii	"#define IMGC_SHARPNESS_H3_CLIP_U             \000"
 7934      696E6520 
 7934      494D4743 
 7934      5F534841 
 7934      52504E45 
 7935 142e 0000     		.space	2
 7936              	.LC113:
 7937 1430 23646566 		.ascii	"#define IMGC_SHARPNESS_H3_GAIN_O             \000"
 7937      696E6520 
 7937      494D4743 
 7937      5F534841 
 7937      52504E45 
 7938 145e 0000     		.space	2
 7939              	.LC114:
 7940 1460 23646566 		.ascii	"#define IMGC_SHARPNESS_H3_GAIN_U             \000"
 7940      696E6520 
 7940      494D4743 
 7940      5F534841 
 7940      52504E45 
 7941 148e 0000     		.space	2
 7942              	.LC115:
 7943 1490 23646566 		.ascii	"#define IMGC_SHARPNESS_H3_CORE               \000"
 7943      696E6520 
 7943      494D4743 
 7943      5F534841 
 7943      52504E45 
 7944 14be 0000     		.space	2
 7945              	.LC116:
 7946 14c0 23646566 		.ascii	"#define IMGC_SHARPNESS_LTI_ACTIVE            \000"
 7946      696E6520 
 7946      494D4743 
 7946      5F534841 
 7946      52504E45 
 7947 14ee 0000     		.space	2
 7948              	.LC117:
 7949 14f0 23646566 		.ascii	"#define IMGC_SHARPNESS_LTI_H2_LPF            \000"
 7949      696E6520 
 7949      494D4743 
 7949      5F534841 
 7949      52504E45 
 7950 151e 0000     		.space	2
 7951              	.LC118:
 7952 1520 23646566 		.ascii	"#define IMGC_SHARPNESS_LTI_H2_ZERO           \000"
 7952      696E6520 
 7952      494D4743 
 7952      5F534841 
 7952      52504E45 
 7953 154e 0000     		.space	2
 7954              	.LC119:
 7955 1550 23646566 		.ascii	"#define IMGC_SHARPNESS_LTI_H2_GAIN           \000"
 7955      696E6520 
 7955      494D4743 
 7955      5F534841 
 7955      52504E45 
 7956 157e 0000     		.space	2
 7957              	.LC120:
 7958 1580 23646566 		.ascii	"#define IMGC_SHARPNESS_LTI_H2_CORE           \000"
 7958      696E6520 
 7958      494D4743 
 7958      5F534841 
 7958      52504E45 
 7959 15ae 0000     		.space	2
 7960              	.LC121:
 7961 15b0 23646566 		.ascii	"#define IMGC_SHARPNESS_LTI_H4_MEDTAP_SEL     \000"
 7961      696E6520 
 7961      494D4743 
 7961      5F534841 
 7961      52504E45 
 7962 15de 0000     		.space	2
 7963              	.LC122:
 7964 15e0 23646566 		.ascii	"#define IMGC_SHARPNESS_LTI_H4_ZERO           \000"
 7964      696E6520 
 7964      494D4743 
 7964      5F534841 
 7964      52504E45 
 7965 160e 0000     		.space	2
 7966              	.LC123:
 7967 1610 23646566 		.ascii	"#define IMGC_SHARPNESS_LTI_H4_GAIN           \000"
 7967      696E6520 
 7967      494D4743 
 7967      5F534841 
 7967      52504E45 
 7968 163e 0000     		.space	2
 7969              	.LC124:
 7970 1640 23646566 		.ascii	"#define IMGC_SHARPNESS_LTI_H4_CORE           \000"
 7970      696E6520 
 7970      494D4743 
 7970      5F534841 
 7970      52504E45 
 7971 166e 0000     		.space	2
 7972              	.LC125:
 7973 1670 23646566 		.ascii	"#define IMGC_SHARPNESS_VS                    (LCD_C"
 7973      696E6520 
 7973      494D4743 
 7973      5F534841 
 7973      52504E45 
 7974 16a3 48305F44 		.ascii	"H0_DISP_VS)           /* This value is fixed */\000"
 7974      4953505F 
 7974      56532920 
 7974      20202020 
 7974      20202020 
 7975 16d3 00       		.space	1
 7976              	.LC126:
 7977 16d4 23646566 		.ascii	"#define IMGC_SHARPNESS_VW                    (LCD_C"
 7977      696E6520 
 7977      494D4743 
 7977      5F534841 
 7977      52504E45 
 7978 1707 48305F44 		.ascii	"H0_DISP_VW)           /* This value is fixed */\000"
 7978      4953505F 
 7978      56572920 
 7978      20202020 
 7978      20202020 
 7979 1737 00       		.space	1
 7980              	.LC127:
 7981 1738 23646566 		.ascii	"#define IMGC_SHARPNESS_HS                    (LCD_C"
 7981      696E6520 
 7981      494D4743 
 7981      5F534841 
 7981      52504E45 
 7982 176b 48305F44 		.ascii	"H0_DISP_HS)           /* This value is fixed */\000"
 7982      4953505F 
 7982      48532920 
 7982      20202020 
 7982      20202020 
 7983 179b 00       		.space	1
 7984              	.LC128:
 7985 179c 23646566 		.ascii	"#define IMGC_SHARPNESS_HW                    (LCD_C"
 7985      696E6520 
 7985      494D4743 
 7985      5F534841 
 7985      52504E45 
 7986 17cf 48305F44 		.ascii	"H0_DISP_HW)           /* This value is fixed */\000"
 7986      4953505F 
 7986      48572920 
 7986      20202020 
 7986      20202020 
 7987 17ff 00       		.space	1
 7988              	.LC129:
 7989 1800 0A2F2A20 		.ascii	"\012/* Gamma correction */\000"
 7989      47616D6D 
 7989      6120636F 
 7989      72726563 
 7989      74696F6E 
 7990              	.LC130:
 7991 1818 23646566 		.ascii	"#define IMGC_GAMMA_ACTIVE                    \000"
 7991      696E6520 
 7991      494D4743 
 7991      5F47414D 
 7991      4D415F41 
 7992 1846 0000     		.space	2
 7993              	.LC131:
 7994 1848 23646566 		.ascii	"#define IMGC_GAMMA_G_GAIN_00                 \000"
 7994      696E6520 
 7994      494D4743 
 7994      5F47414D 
 7994      4D415F47 
 7995 1876 0000     		.space	2
 7996              	.LC132:
 7997 1878 23646566 		.ascii	"#define IMGC_GAMMA_G_GAIN_01                 \000"
 7997      696E6520 
 7997      494D4743 
 7997      5F47414D 
 7997      4D415F47 
 7998 18a6 0000     		.space	2
 7999              	.LC133:
 8000 18a8 23646566 		.ascii	"#define IMGC_GAMMA_G_GAIN_02                 \000"
 8000      696E6520 
 8000      494D4743 
 8000      5F47414D 
 8000      4D415F47 
 8001 18d6 0000     		.space	2
 8002              	.LC134:
 8003 18d8 23646566 		.ascii	"#define IMGC_GAMMA_G_GAIN_03                 \000"
 8003      696E6520 
 8003      494D4743 
 8003      5F47414D 
 8003      4D415F47 
 8004 1906 0000     		.space	2
 8005              	.LC135:
 8006 1908 23646566 		.ascii	"#define IMGC_GAMMA_G_GAIN_04                 \000"
 8006      696E6520 
 8006      494D4743 
 8006      5F47414D 
 8006      4D415F47 
 8007 1936 0000     		.space	2
 8008              	.LC136:
 8009 1938 23646566 		.ascii	"#define IMGC_GAMMA_G_GAIN_05                 \000"
 8009      696E6520 
 8009      494D4743 
 8009      5F47414D 
 8009      4D415F47 
 8010 1966 0000     		.space	2
 8011              	.LC137:
 8012 1968 23646566 		.ascii	"#define IMGC_GAMMA_G_GAIN_06                 \000"
 8012      696E6520 
 8012      494D4743 
 8012      5F47414D 
 8012      4D415F47 
 8013 1996 0000     		.space	2
 8014              	.LC138:
 8015 1998 23646566 		.ascii	"#define IMGC_GAMMA_G_GAIN_07                 \000"
 8015      696E6520 
 8015      494D4743 
 8015      5F47414D 
 8015      4D415F47 
 8016 19c6 0000     		.space	2
 8017              	.LC139:
 8018 19c8 23646566 		.ascii	"#define IMGC_GAMMA_G_GAIN_08                 \000"
 8018      696E6520 
 8018      494D4743 
 8018      5F47414D 
 8018      4D415F47 
 8019 19f6 0000     		.space	2
 8020              	.LC140:
 8021 19f8 23646566 		.ascii	"#define IMGC_GAMMA_G_GAIN_09                 \000"
 8021      696E6520 
 8021      494D4743 
 8021      5F47414D 
 8021      4D415F47 
 8022 1a26 0000     		.space	2
 8023              	.LC141:
 8024 1a28 23646566 		.ascii	"#define IMGC_GAMMA_G_GAIN_10                 \000"
 8024      696E6520 
 8024      494D4743 
 8024      5F47414D 
 8024      4D415F47 
 8025 1a56 0000     		.space	2
 8026              	.LC142:
 8027 1a58 23646566 		.ascii	"#define IMGC_GAMMA_G_GAIN_11                 \000"
 8027      696E6520 
 8027      494D4743 
 8027      5F47414D 
 8027      4D415F47 
 8028 1a86 0000     		.space	2
 8029              	.LC143:
 8030 1a88 23646566 		.ascii	"#define IMGC_GAMMA_G_GAIN_12                 \000"
 8030      696E6520 
 8030      494D4743 
 8030      5F47414D 
 8030      4D415F47 
 8031 1ab6 0000     		.space	2
 8032              	.LC144:
 8033 1ab8 23646566 		.ascii	"#define IMGC_GAMMA_G_GAIN_13                 \000"
 8033      696E6520 
 8033      494D4743 
 8033      5F47414D 
 8033      4D415F47 
 8034 1ae6 0000     		.space	2
 8035              	.LC145:
 8036 1ae8 23646566 		.ascii	"#define IMGC_GAMMA_G_GAIN_14                 \000"
 8036      696E6520 
 8036      494D4743 
 8036      5F47414D 
 8036      4D415F47 
 8037 1b16 0000     		.space	2
 8038              	.LC146:
 8039 1b18 23646566 		.ascii	"#define IMGC_GAMMA_G_GAIN_15                 \000"
 8039      696E6520 
 8039      494D4743 
 8039      5F47414D 
 8039      4D415F47 
 8040 1b46 0000     		.space	2
 8041              	.LC147:
 8042 1b48 23646566 		.ascii	"#define IMGC_GAMMA_G_GAIN_16                 \000"
 8042      696E6520 
 8042      494D4743 
 8042      5F47414D 
 8042      4D415F47 
 8043 1b76 0000     		.space	2
 8044              	.LC148:
 8045 1b78 23646566 		.ascii	"#define IMGC_GAMMA_G_GAIN_17                 \000"
 8045      696E6520 
 8045      494D4743 
 8045      5F47414D 
 8045      4D415F47 
 8046 1ba6 0000     		.space	2
 8047              	.LC149:
 8048 1ba8 23646566 		.ascii	"#define IMGC_GAMMA_G_GAIN_18                 \000"
 8048      696E6520 
 8048      494D4743 
 8048      5F47414D 
 8048      4D415F47 
 8049 1bd6 0000     		.space	2
 8050              	.LC150:
 8051 1bd8 23646566 		.ascii	"#define IMGC_GAMMA_G_GAIN_19                 \000"
 8051      696E6520 
 8051      494D4743 
 8051      5F47414D 
 8051      4D415F47 
 8052 1c06 0000     		.space	2
 8053              	.LC151:
 8054 1c08 23646566 		.ascii	"#define IMGC_GAMMA_G_GAIN_20                 \000"
 8054      696E6520 
 8054      494D4743 
 8054      5F47414D 
 8054      4D415F47 
 8055 1c36 0000     		.space	2
 8056              	.LC152:
 8057 1c38 23646566 		.ascii	"#define IMGC_GAMMA_G_GAIN_21                 \000"
 8057      696E6520 
 8057      494D4743 
 8057      5F47414D 
 8057      4D415F47 
 8058 1c66 0000     		.space	2
 8059              	.LC153:
 8060 1c68 23646566 		.ascii	"#define IMGC_GAMMA_G_GAIN_22                 \000"
 8060      696E6520 
 8060      494D4743 
 8060      5F47414D 
 8060      4D415F47 
 8061 1c96 0000     		.space	2
 8062              	.LC154:
 8063 1c98 23646566 		.ascii	"#define IMGC_GAMMA_G_GAIN_23                 \000"
 8063      696E6520 
 8063      494D4743 
 8063      5F47414D 
 8063      4D415F47 
 8064 1cc6 0000     		.space	2
 8065              	.LC155:
 8066 1cc8 23646566 		.ascii	"#define IMGC_GAMMA_G_GAIN_24                 \000"
 8066      696E6520 
 8066      494D4743 
 8066      5F47414D 
 8066      4D415F47 
 8067 1cf6 0000     		.space	2
 8068              	.LC156:
 8069 1cf8 23646566 		.ascii	"#define IMGC_GAMMA_G_GAIN_25                 \000"
 8069      696E6520 
 8069      494D4743 
 8069      5F47414D 
 8069      4D415F47 
 8070 1d26 0000     		.space	2
 8071              	.LC157:
 8072 1d28 23646566 		.ascii	"#define IMGC_GAMMA_G_GAIN_26                 \000"
 8072      696E6520 
 8072      494D4743 
 8072      5F47414D 
 8072      4D415F47 
 8073 1d56 0000     		.space	2
 8074              	.LC158:
 8075 1d58 23646566 		.ascii	"#define IMGC_GAMMA_G_GAIN_27                 \000"
 8075      696E6520 
 8075      494D4743 
 8075      5F47414D 
 8075      4D415F47 
 8076 1d86 0000     		.space	2
 8077              	.LC159:
 8078 1d88 23646566 		.ascii	"#define IMGC_GAMMA_G_GAIN_28                 \000"
 8078      696E6520 
 8078      494D4743 
 8078      5F47414D 
 8078      4D415F47 
 8079 1db6 0000     		.space	2
 8080              	.LC160:
 8081 1db8 23646566 		.ascii	"#define IMGC_GAMMA_G_GAIN_29                 \000"
 8081      696E6520 
 8081      494D4743 
 8081      5F47414D 
 8081      4D415F47 
 8082 1de6 0000     		.space	2
 8083              	.LC161:
 8084 1de8 23646566 		.ascii	"#define IMGC_GAMMA_G_GAIN_30                 \000"
 8084      696E6520 
 8084      494D4743 
 8084      5F47414D 
 8084      4D415F47 
 8085 1e16 0000     		.space	2
 8086              	.LC162:
 8087 1e18 23646566 		.ascii	"#define IMGC_GAMMA_G_GAIN_31                 \000"
 8087      696E6520 
 8087      494D4743 
 8087      5F47414D 
 8087      4D415F47 
 8088 1e46 0000     		.space	2
 8089              	.LC163:
 8090 1e48 23646566 		.ascii	"#define IMGC_GAMMA_G_TH_01                   \000"
 8090      696E6520 
 8090      494D4743 
 8090      5F47414D 
 8090      4D415F47 
 8091 1e76 0000     		.space	2
 8092              	.LC164:
 8093 1e78 23646566 		.ascii	"#define IMGC_GAMMA_G_TH_02                   \000"
 8093      696E6520 
 8093      494D4743 
 8093      5F47414D 
 8093      4D415F47 
 8094 1ea6 0000     		.space	2
 8095              	.LC165:
 8096 1ea8 23646566 		.ascii	"#define IMGC_GAMMA_G_TH_03                   \000"
 8096      696E6520 
 8096      494D4743 
 8096      5F47414D 
 8096      4D415F47 
 8097 1ed6 0000     		.space	2
 8098              	.LC166:
 8099 1ed8 23646566 		.ascii	"#define IMGC_GAMMA_G_TH_04                   \000"
 8099      696E6520 
 8099      494D4743 
 8099      5F47414D 
 8099      4D415F47 
 8100 1f06 0000     		.space	2
 8101              	.LC167:
 8102 1f08 23646566 		.ascii	"#define IMGC_GAMMA_G_TH_05                   \000"
 8102      696E6520 
 8102      494D4743 
 8102      5F47414D 
 8102      4D415F47 
 8103 1f36 0000     		.space	2
 8104              	.LC168:
 8105 1f38 23646566 		.ascii	"#define IMGC_GAMMA_G_TH_06                   \000"
 8105      696E6520 
 8105      494D4743 
 8105      5F47414D 
 8105      4D415F47 
 8106 1f66 0000     		.space	2
 8107              	.LC169:
 8108 1f68 23646566 		.ascii	"#define IMGC_GAMMA_G_TH_07                   \000"
 8108      696E6520 
 8108      494D4743 
 8108      5F47414D 
 8108      4D415F47 
 8109 1f96 0000     		.space	2
 8110              	.LC170:
 8111 1f98 23646566 		.ascii	"#define IMGC_GAMMA_G_TH_08                   \000"
 8111      696E6520 
 8111      494D4743 
 8111      5F47414D 
 8111      4D415F47 
 8112 1fc6 0000     		.space	2
 8113              	.LC171:
 8114 1fc8 23646566 		.ascii	"#define IMGC_GAMMA_G_TH_09                   \000"
 8114      696E6520 
 8114      494D4743 
 8114      5F47414D 
 8114      4D415F47 
 8115 1ff6 0000     		.space	2
 8116              	.LC172:
 8117 1ff8 23646566 		.ascii	"#define IMGC_GAMMA_G_TH_10                   \000"
 8117      696E6520 
 8117      494D4743 
 8117      5F47414D 
 8117      4D415F47 
 8118 2026 0000     		.space	2
 8119              	.LC173:
 8120 2028 23646566 		.ascii	"#define IMGC_GAMMA_G_TH_11                   \000"
 8120      696E6520 
 8120      494D4743 
 8120      5F47414D 
 8120      4D415F47 
 8121 2056 0000     		.space	2
 8122              	.LC174:
 8123 2058 23646566 		.ascii	"#define IMGC_GAMMA_G_TH_12                   \000"
 8123      696E6520 
 8123      494D4743 
 8123      5F47414D 
 8123      4D415F47 
 8124 2086 0000     		.space	2
 8125              	.LC175:
 8126 2088 23646566 		.ascii	"#define IMGC_GAMMA_G_TH_13                   \000"
 8126      696E6520 
 8126      494D4743 
 8126      5F47414D 
 8126      4D415F47 
 8127 20b6 0000     		.space	2
 8128              	.LC176:
 8129 20b8 23646566 		.ascii	"#define IMGC_GAMMA_G_TH_14                   \000"
 8129      696E6520 
 8129      494D4743 
 8129      5F47414D 
 8129      4D415F47 
 8130 20e6 0000     		.space	2
 8131              	.LC177:
 8132 20e8 23646566 		.ascii	"#define IMGC_GAMMA_G_TH_15                   \000"
 8132      696E6520 
 8132      494D4743 
 8132      5F47414D 
 8132      4D415F47 
 8133 2116 0000     		.space	2
 8134              	.LC178:
 8135 2118 23646566 		.ascii	"#define IMGC_GAMMA_G_TH_16                   \000"
 8135      696E6520 
 8135      494D4743 
 8135      5F47414D 
 8135      4D415F47 
 8136 2146 0000     		.space	2
 8137              	.LC179:
 8138 2148 23646566 		.ascii	"#define IMGC_GAMMA_G_TH_17                   \000"
 8138      696E6520 
 8138      494D4743 
 8138      5F47414D 
 8138      4D415F47 
 8139 2176 0000     		.space	2
 8140              	.LC180:
 8141 2178 23646566 		.ascii	"#define IMGC_GAMMA_G_TH_18                   \000"
 8141      696E6520 
 8141      494D4743 
 8141      5F47414D 
 8141      4D415F47 
 8142 21a6 0000     		.space	2
 8143              	.LC181:
 8144 21a8 23646566 		.ascii	"#define IMGC_GAMMA_G_TH_19                   \000"
 8144      696E6520 
 8144      494D4743 
 8144      5F47414D 
 8144      4D415F47 
 8145 21d6 0000     		.space	2
 8146              	.LC182:
 8147 21d8 23646566 		.ascii	"#define IMGC_GAMMA_G_TH_20                   \000"
 8147      696E6520 
 8147      494D4743 
 8147      5F47414D 
 8147      4D415F47 
 8148 2206 0000     		.space	2
 8149              	.LC183:
 8150 2208 23646566 		.ascii	"#define IMGC_GAMMA_G_TH_21                   \000"
 8150      696E6520 
 8150      494D4743 
 8150      5F47414D 
 8150      4D415F47 
 8151 2236 0000     		.space	2
 8152              	.LC184:
 8153 2238 23646566 		.ascii	"#define IMGC_GAMMA_G_TH_22                   \000"
 8153      696E6520 
 8153      494D4743 
 8153      5F47414D 
 8153      4D415F47 
 8154 2266 0000     		.space	2
 8155              	.LC185:
 8156 2268 23646566 		.ascii	"#define IMGC_GAMMA_G_TH_23                   \000"
 8156      696E6520 
 8156      494D4743 
 8156      5F47414D 
 8156      4D415F47 
 8157 2296 0000     		.space	2
 8158              	.LC186:
 8159 2298 23646566 		.ascii	"#define IMGC_GAMMA_G_TH_24                   \000"
 8159      696E6520 
 8159      494D4743 
 8159      5F47414D 
 8159      4D415F47 
 8160 22c6 0000     		.space	2
 8161              	.LC187:
 8162 22c8 23646566 		.ascii	"#define IMGC_GAMMA_G_TH_25                   \000"
 8162      696E6520 
 8162      494D4743 
 8162      5F47414D 
 8162      4D415F47 
 8163 22f6 0000     		.space	2
 8164              	.LC188:
 8165 22f8 23646566 		.ascii	"#define IMGC_GAMMA_G_TH_26                   \000"
 8165      696E6520 
 8165      494D4743 
 8165      5F47414D 
 8165      4D415F47 
 8166 2326 0000     		.space	2
 8167              	.LC189:
 8168 2328 23646566 		.ascii	"#define IMGC_GAMMA_G_TH_27                   \000"
 8168      696E6520 
 8168      494D4743 
 8168      5F47414D 
 8168      4D415F47 
 8169 2356 0000     		.space	2
 8170              	.LC190:
 8171 2358 23646566 		.ascii	"#define IMGC_GAMMA_G_TH_28                   \000"
 8171      696E6520 
 8171      494D4743 
 8171      5F47414D 
 8171      4D415F47 
 8172 2386 0000     		.space	2
 8173              	.LC191:
 8174 2388 23646566 		.ascii	"#define IMGC_GAMMA_G_TH_29                   \000"
 8174      696E6520 
 8174      494D4743 
 8174      5F47414D 
 8174      4D415F47 
 8175 23b6 0000     		.space	2
 8176              	.LC192:
 8177 23b8 23646566 		.ascii	"#define IMGC_GAMMA_G_TH_30                   \000"
 8177      696E6520 
 8177      494D4743 
 8177      5F47414D 
 8177      4D415F47 
 8178 23e6 0000     		.space	2
 8179              	.LC193:
 8180 23e8 23646566 		.ascii	"#define IMGC_GAMMA_G_TH_31                   \000"
 8180      696E6520 
 8180      494D4743 
 8180      5F47414D 
 8180      4D415F47 
 8181 2416 0000     		.space	2
 8182              	.LC194:
 8183 2418 23646566 		.ascii	"#define IMGC_GAMMA_B_GAIN_00                 \000"
 8183      696E6520 
 8183      494D4743 
 8183      5F47414D 
 8183      4D415F42 
 8184 2446 0000     		.space	2
 8185              	.LC195:
 8186 2448 23646566 		.ascii	"#define IMGC_GAMMA_B_GAIN_01                 \000"
 8186      696E6520 
 8186      494D4743 
 8186      5F47414D 
 8186      4D415F42 
 8187 2476 0000     		.space	2
 8188              	.LC196:
 8189 2478 23646566 		.ascii	"#define IMGC_GAMMA_B_GAIN_02                 \000"
 8189      696E6520 
 8189      494D4743 
 8189      5F47414D 
 8189      4D415F42 
 8190 24a6 0000     		.space	2
 8191              	.LC197:
 8192 24a8 23646566 		.ascii	"#define IMGC_GAMMA_B_GAIN_03                 \000"
 8192      696E6520 
 8192      494D4743 
 8192      5F47414D 
 8192      4D415F42 
 8193 24d6 0000     		.space	2
 8194              	.LC198:
 8195 24d8 23646566 		.ascii	"#define IMGC_GAMMA_B_GAIN_04                 \000"
 8195      696E6520 
 8195      494D4743 
 8195      5F47414D 
 8195      4D415F42 
 8196 2506 0000     		.space	2
 8197              	.LC199:
 8198 2508 23646566 		.ascii	"#define IMGC_GAMMA_B_GAIN_05                 \000"
 8198      696E6520 
 8198      494D4743 
 8198      5F47414D 
 8198      4D415F42 
 8199 2536 0000     		.space	2
 8200              	.LC200:
 8201 2538 23646566 		.ascii	"#define IMGC_GAMMA_B_GAIN_06                 \000"
 8201      696E6520 
 8201      494D4743 
 8201      5F47414D 
 8201      4D415F42 
 8202 2566 0000     		.space	2
 8203              	.LC201:
 8204 2568 23646566 		.ascii	"#define IMGC_GAMMA_B_GAIN_07                 \000"
 8204      696E6520 
 8204      494D4743 
 8204      5F47414D 
 8204      4D415F42 
 8205 2596 0000     		.space	2
 8206              	.LC202:
 8207 2598 23646566 		.ascii	"#define IMGC_GAMMA_B_GAIN_08                 \000"
 8207      696E6520 
 8207      494D4743 
 8207      5F47414D 
 8207      4D415F42 
 8208 25c6 0000     		.space	2
 8209              	.LC203:
 8210 25c8 23646566 		.ascii	"#define IMGC_GAMMA_B_GAIN_09                 \000"
 8210      696E6520 
 8210      494D4743 
 8210      5F47414D 
 8210      4D415F42 
 8211 25f6 0000     		.space	2
 8212              	.LC204:
 8213 25f8 23646566 		.ascii	"#define IMGC_GAMMA_B_GAIN_10                 \000"
 8213      696E6520 
 8213      494D4743 
 8213      5F47414D 
 8213      4D415F42 
 8214 2626 0000     		.space	2
 8215              	.LC205:
 8216 2628 23646566 		.ascii	"#define IMGC_GAMMA_B_GAIN_11                 \000"
 8216      696E6520 
 8216      494D4743 
 8216      5F47414D 
 8216      4D415F42 
 8217 2656 0000     		.space	2
 8218              	.LC206:
 8219 2658 23646566 		.ascii	"#define IMGC_GAMMA_B_GAIN_12                 \000"
 8219      696E6520 
 8219      494D4743 
 8219      5F47414D 
 8219      4D415F42 
 8220 2686 0000     		.space	2
 8221              	.LC207:
 8222 2688 23646566 		.ascii	"#define IMGC_GAMMA_B_GAIN_13                 \000"
 8222      696E6520 
 8222      494D4743 
 8222      5F47414D 
 8222      4D415F42 
 8223 26b6 0000     		.space	2
 8224              	.LC208:
 8225 26b8 23646566 		.ascii	"#define IMGC_GAMMA_B_GAIN_14                 \000"
 8225      696E6520 
 8225      494D4743 
 8225      5F47414D 
 8225      4D415F42 
 8226 26e6 0000     		.space	2
 8227              	.LC209:
 8228 26e8 23646566 		.ascii	"#define IMGC_GAMMA_B_GAIN_15                 \000"
 8228      696E6520 
 8228      494D4743 
 8228      5F47414D 
 8228      4D415F42 
 8229 2716 0000     		.space	2
 8230              	.LC210:
 8231 2718 23646566 		.ascii	"#define IMGC_GAMMA_B_GAIN_16                 \000"
 8231      696E6520 
 8231      494D4743 
 8231      5F47414D 
 8231      4D415F42 
 8232 2746 0000     		.space	2
 8233              	.LC211:
 8234 2748 23646566 		.ascii	"#define IMGC_GAMMA_B_GAIN_17                 \000"
 8234      696E6520 
 8234      494D4743 
 8234      5F47414D 
 8234      4D415F42 
 8235 2776 0000     		.space	2
 8236              	.LC212:
 8237 2778 23646566 		.ascii	"#define IMGC_GAMMA_B_GAIN_18                 \000"
 8237      696E6520 
 8237      494D4743 
 8237      5F47414D 
 8237      4D415F42 
 8238 27a6 0000     		.space	2
 8239              	.LC213:
 8240 27a8 23646566 		.ascii	"#define IMGC_GAMMA_B_GAIN_19                 \000"
 8240      696E6520 
 8240      494D4743 
 8240      5F47414D 
 8240      4D415F42 
 8241 27d6 0000     		.space	2
 8242              	.LC214:
 8243 27d8 23646566 		.ascii	"#define IMGC_GAMMA_B_GAIN_20                 \000"
 8243      696E6520 
 8243      494D4743 
 8243      5F47414D 
 8243      4D415F42 
 8244 2806 0000     		.space	2
 8245              	.LC215:
 8246 2808 23646566 		.ascii	"#define IMGC_GAMMA_B_GAIN_21                 \000"
 8246      696E6520 
 8246      494D4743 
 8246      5F47414D 
 8246      4D415F42 
 8247 2836 0000     		.space	2
 8248              	.LC216:
 8249 2838 23646566 		.ascii	"#define IMGC_GAMMA_B_GAIN_22                 \000"
 8249      696E6520 
 8249      494D4743 
 8249      5F47414D 
 8249      4D415F42 
 8250 2866 0000     		.space	2
 8251              	.LC217:
 8252 2868 23646566 		.ascii	"#define IMGC_GAMMA_B_GAIN_23                 \000"
 8252      696E6520 
 8252      494D4743 
 8252      5F47414D 
 8252      4D415F42 
 8253 2896 0000     		.space	2
 8254              	.LC218:
 8255 2898 23646566 		.ascii	"#define IMGC_GAMMA_B_GAIN_24                 \000"
 8255      696E6520 
 8255      494D4743 
 8255      5F47414D 
 8255      4D415F42 
 8256 28c6 0000     		.space	2
 8257              	.LC219:
 8258 28c8 23646566 		.ascii	"#define IMGC_GAMMA_B_GAIN_25                 \000"
 8258      696E6520 
 8258      494D4743 
 8258      5F47414D 
 8258      4D415F42 
 8259 28f6 0000     		.space	2
 8260              	.LC220:
 8261 28f8 23646566 		.ascii	"#define IMGC_GAMMA_B_GAIN_26                 \000"
 8261      696E6520 
 8261      494D4743 
 8261      5F47414D 
 8261      4D415F42 
 8262 2926 0000     		.space	2
 8263              	.LC221:
 8264 2928 23646566 		.ascii	"#define IMGC_GAMMA_B_GAIN_27                 \000"
 8264      696E6520 
 8264      494D4743 
 8264      5F47414D 
 8264      4D415F42 
 8265 2956 0000     		.space	2
 8266              	.LC222:
 8267 2958 23646566 		.ascii	"#define IMGC_GAMMA_B_GAIN_28                 \000"
 8267      696E6520 
 8267      494D4743 
 8267      5F47414D 
 8267      4D415F42 
 8268 2986 0000     		.space	2
 8269              	.LC223:
 8270 2988 23646566 		.ascii	"#define IMGC_GAMMA_B_GAIN_29                 \000"
 8270      696E6520 
 8270      494D4743 
 8270      5F47414D 
 8270      4D415F42 
 8271 29b6 0000     		.space	2
 8272              	.LC224:
 8273 29b8 23646566 		.ascii	"#define IMGC_GAMMA_B_GAIN_30                 \000"
 8273      696E6520 
 8273      494D4743 
 8273      5F47414D 
 8273      4D415F42 
 8274 29e6 0000     		.space	2
 8275              	.LC225:
 8276 29e8 23646566 		.ascii	"#define IMGC_GAMMA_B_GAIN_31                 \000"
 8276      696E6520 
 8276      494D4743 
 8276      5F47414D 
 8276      4D415F42 
 8277 2a16 0000     		.space	2
 8278              	.LC226:
 8279 2a18 23646566 		.ascii	"#define IMGC_GAMMA_B_TH_01                   \000"
 8279      696E6520 
 8279      494D4743 
 8279      5F47414D 
 8279      4D415F42 
 8280 2a46 0000     		.space	2
 8281              	.LC227:
 8282 2a48 23646566 		.ascii	"#define IMGC_GAMMA_B_TH_02                   \000"
 8282      696E6520 
 8282      494D4743 
 8282      5F47414D 
 8282      4D415F42 
 8283 2a76 0000     		.space	2
 8284              	.LC228:
 8285 2a78 23646566 		.ascii	"#define IMGC_GAMMA_B_TH_03                   \000"
 8285      696E6520 
 8285      494D4743 
 8285      5F47414D 
 8285      4D415F42 
 8286 2aa6 0000     		.space	2
 8287              	.LC229:
 8288 2aa8 23646566 		.ascii	"#define IMGC_GAMMA_B_TH_04                   \000"
 8288      696E6520 
 8288      494D4743 
 8288      5F47414D 
 8288      4D415F42 
 8289 2ad6 0000     		.space	2
 8290              	.LC230:
 8291 2ad8 23646566 		.ascii	"#define IMGC_GAMMA_B_TH_05                   \000"
 8291      696E6520 
 8291      494D4743 
 8291      5F47414D 
 8291      4D415F42 
 8292 2b06 0000     		.space	2
 8293              	.LC231:
 8294 2b08 23646566 		.ascii	"#define IMGC_GAMMA_B_TH_06                   \000"
 8294      696E6520 
 8294      494D4743 
 8294      5F47414D 
 8294      4D415F42 
 8295 2b36 0000     		.space	2
 8296              	.LC232:
 8297 2b38 23646566 		.ascii	"#define IMGC_GAMMA_B_TH_07                   \000"
 8297      696E6520 
 8297      494D4743 
 8297      5F47414D 
 8297      4D415F42 
 8298 2b66 0000     		.space	2
 8299              	.LC233:
 8300 2b68 23646566 		.ascii	"#define IMGC_GAMMA_B_TH_08                   \000"
 8300      696E6520 
 8300      494D4743 
 8300      5F47414D 
 8300      4D415F42 
 8301 2b96 0000     		.space	2
 8302              	.LC234:
 8303 2b98 23646566 		.ascii	"#define IMGC_GAMMA_B_TH_09                   \000"
 8303      696E6520 
 8303      494D4743 
 8303      5F47414D 
 8303      4D415F42 
 8304 2bc6 0000     		.space	2
 8305              	.LC235:
 8306 2bc8 23646566 		.ascii	"#define IMGC_GAMMA_B_TH_10                   \000"
 8306      696E6520 
 8306      494D4743 
 8306      5F47414D 
 8306      4D415F42 
 8307 2bf6 0000     		.space	2
 8308              	.LC236:
 8309 2bf8 23646566 		.ascii	"#define IMGC_GAMMA_B_TH_11                   \000"
 8309      696E6520 
 8309      494D4743 
 8309      5F47414D 
 8309      4D415F42 
 8310 2c26 0000     		.space	2
 8311              	.LC237:
 8312 2c28 23646566 		.ascii	"#define IMGC_GAMMA_B_TH_12                   \000"
 8312      696E6520 
 8312      494D4743 
 8312      5F47414D 
 8312      4D415F42 
 8313 2c56 0000     		.space	2
 8314              	.LC238:
 8315 2c58 23646566 		.ascii	"#define IMGC_GAMMA_B_TH_13                   \000"
 8315      696E6520 
 8315      494D4743 
 8315      5F47414D 
 8315      4D415F42 
 8316 2c86 0000     		.space	2
 8317              	.LC239:
 8318 2c88 23646566 		.ascii	"#define IMGC_GAMMA_B_TH_14                   \000"
 8318      696E6520 
 8318      494D4743 
 8318      5F47414D 
 8318      4D415F42 
 8319 2cb6 0000     		.space	2
 8320              	.LC240:
 8321 2cb8 23646566 		.ascii	"#define IMGC_GAMMA_B_TH_15                   \000"
 8321      696E6520 
 8321      494D4743 
 8321      5F47414D 
 8321      4D415F42 
 8322 2ce6 0000     		.space	2
 8323              	.LC241:
 8324 2ce8 23646566 		.ascii	"#define IMGC_GAMMA_B_TH_16                   \000"
 8324      696E6520 
 8324      494D4743 
 8324      5F47414D 
 8324      4D415F42 
 8325 2d16 0000     		.space	2
 8326              	.LC242:
 8327 2d18 23646566 		.ascii	"#define IMGC_GAMMA_B_TH_17                   \000"
 8327      696E6520 
 8327      494D4743 
 8327      5F47414D 
 8327      4D415F42 
 8328 2d46 0000     		.space	2
 8329              	.LC243:
 8330 2d48 23646566 		.ascii	"#define IMGC_GAMMA_B_TH_18                   \000"
 8330      696E6520 
 8330      494D4743 
 8330      5F47414D 
 8330      4D415F42 
 8331 2d76 0000     		.space	2
 8332              	.LC244:
 8333 2d78 23646566 		.ascii	"#define IMGC_GAMMA_B_TH_19                   \000"
 8333      696E6520 
 8333      494D4743 
 8333      5F47414D 
 8333      4D415F42 
 8334 2da6 0000     		.space	2
 8335              	.LC245:
 8336 2da8 23646566 		.ascii	"#define IMGC_GAMMA_B_TH_20                   \000"
 8336      696E6520 
 8336      494D4743 
 8336      5F47414D 
 8336      4D415F42 
 8337 2dd6 0000     		.space	2
 8338              	.LC246:
 8339 2dd8 23646566 		.ascii	"#define IMGC_GAMMA_B_TH_21                   \000"
 8339      696E6520 
 8339      494D4743 
 8339      5F47414D 
 8339      4D415F42 
 8340 2e06 0000     		.space	2
 8341              	.LC247:
 8342 2e08 23646566 		.ascii	"#define IMGC_GAMMA_B_TH_22                   \000"
 8342      696E6520 
 8342      494D4743 
 8342      5F47414D 
 8342      4D415F42 
 8343 2e36 0000     		.space	2
 8344              	.LC248:
 8345 2e38 23646566 		.ascii	"#define IMGC_GAMMA_B_TH_23                   \000"
 8345      696E6520 
 8345      494D4743 
 8345      5F47414D 
 8345      4D415F42 
 8346 2e66 0000     		.space	2
 8347              	.LC249:
 8348 2e68 23646566 		.ascii	"#define IMGC_GAMMA_B_TH_24                   \000"
 8348      696E6520 
 8348      494D4743 
 8348      5F47414D 
 8348      4D415F42 
 8349 2e96 0000     		.space	2
 8350              	.LC250:
 8351 2e98 23646566 		.ascii	"#define IMGC_GAMMA_B_TH_25                   \000"
 8351      696E6520 
 8351      494D4743 
 8351      5F47414D 
 8351      4D415F42 
 8352 2ec6 0000     		.space	2
 8353              	.LC251:
 8354 2ec8 23646566 		.ascii	"#define IMGC_GAMMA_B_TH_26                   \000"
 8354      696E6520 
 8354      494D4743 
 8354      5F47414D 
 8354      4D415F42 
 8355 2ef6 0000     		.space	2
 8356              	.LC252:
 8357 2ef8 23646566 		.ascii	"#define IMGC_GAMMA_B_TH_27                   \000"
 8357      696E6520 
 8357      494D4743 
 8357      5F47414D 
 8357      4D415F42 
 8358 2f26 0000     		.space	2
 8359              	.LC253:
 8360 2f28 23646566 		.ascii	"#define IMGC_GAMMA_B_TH_28                   \000"
 8360      696E6520 
 8360      494D4743 
 8360      5F47414D 
 8360      4D415F42 
 8361 2f56 0000     		.space	2
 8362              	.LC254:
 8363 2f58 23646566 		.ascii	"#define IMGC_GAMMA_B_TH_29                   \000"
 8363      696E6520 
 8363      494D4743 
 8363      5F47414D 
 8363      4D415F42 
 8364 2f86 0000     		.space	2
 8365              	.LC255:
 8366 2f88 23646566 		.ascii	"#define IMGC_GAMMA_B_TH_30                   \000"
 8366      696E6520 
 8366      494D4743 
 8366      5F47414D 
 8366      4D415F42 
 8367 2fb6 0000     		.space	2
 8368              	.LC256:
 8369 2fb8 23646566 		.ascii	"#define IMGC_GAMMA_B_TH_31                   \000"
 8369      696E6520 
 8369      494D4743 
 8369      5F47414D 
 8369      4D415F42 
 8370 2fe6 0000     		.space	2
 8371              	.LC257:
 8372 2fe8 23646566 		.ascii	"#define IMGC_GAMMA_R_GAIN_00                 \000"
 8372      696E6520 
 8372      494D4743 
 8372      5F47414D 
 8372      4D415F52 
 8373 3016 0000     		.space	2
 8374              	.LC258:
 8375 3018 23646566 		.ascii	"#define IMGC_GAMMA_R_GAIN_01                 \000"
 8375      696E6520 
 8375      494D4743 
 8375      5F47414D 
 8375      4D415F52 
 8376 3046 0000     		.space	2
 8377              	.LC259:
 8378 3048 23646566 		.ascii	"#define IMGC_GAMMA_R_GAIN_02                 \000"
 8378      696E6520 
 8378      494D4743 
 8378      5F47414D 
 8378      4D415F52 
 8379 3076 0000     		.space	2
 8380              	.LC260:
 8381 3078 23646566 		.ascii	"#define IMGC_GAMMA_R_GAIN_03                 \000"
 8381      696E6520 
 8381      494D4743 
 8381      5F47414D 
 8381      4D415F52 
 8382 30a6 0000     		.space	2
 8383              	.LC261:
 8384 30a8 23646566 		.ascii	"#define IMGC_GAMMA_R_GAIN_04                 \000"
 8384      696E6520 
 8384      494D4743 
 8384      5F47414D 
 8384      4D415F52 
 8385 30d6 0000     		.space	2
 8386              	.LC262:
 8387 30d8 23646566 		.ascii	"#define IMGC_GAMMA_R_GAIN_05                 \000"
 8387      696E6520 
 8387      494D4743 
 8387      5F47414D 
 8387      4D415F52 
 8388 3106 0000     		.space	2
 8389              	.LC263:
 8390 3108 23646566 		.ascii	"#define IMGC_GAMMA_R_GAIN_06                 \000"
 8390      696E6520 
 8390      494D4743 
 8390      5F47414D 
 8390      4D415F52 
 8391 3136 0000     		.space	2
 8392              	.LC264:
 8393 3138 23646566 		.ascii	"#define IMGC_GAMMA_R_GAIN_07                 \000"
 8393      696E6520 
 8393      494D4743 
 8393      5F47414D 
 8393      4D415F52 
 8394 3166 0000     		.space	2
 8395              	.LC265:
 8396 3168 23646566 		.ascii	"#define IMGC_GAMMA_R_GAIN_08                 \000"
 8396      696E6520 
 8396      494D4743 
 8396      5F47414D 
 8396      4D415F52 
 8397 3196 0000     		.space	2
 8398              	.LC266:
 8399 3198 23646566 		.ascii	"#define IMGC_GAMMA_R_GAIN_09                 \000"
 8399      696E6520 
 8399      494D4743 
 8399      5F47414D 
 8399      4D415F52 
 8400 31c6 0000     		.space	2
 8401              	.LC267:
 8402 31c8 23646566 		.ascii	"#define IMGC_GAMMA_R_GAIN_10                 \000"
 8402      696E6520 
 8402      494D4743 
 8402      5F47414D 
 8402      4D415F52 
 8403 31f6 0000     		.space	2
 8404              	.LC268:
 8405 31f8 23646566 		.ascii	"#define IMGC_GAMMA_R_GAIN_11                 \000"
 8405      696E6520 
 8405      494D4743 
 8405      5F47414D 
 8405      4D415F52 
 8406 3226 0000     		.space	2
 8407              	.LC269:
 8408 3228 23646566 		.ascii	"#define IMGC_GAMMA_R_GAIN_12                 \000"
 8408      696E6520 
 8408      494D4743 
 8408      5F47414D 
 8408      4D415F52 
 8409 3256 0000     		.space	2
 8410              	.LC270:
 8411 3258 23646566 		.ascii	"#define IMGC_GAMMA_R_GAIN_13                 \000"
 8411      696E6520 
 8411      494D4743 
 8411      5F47414D 
 8411      4D415F52 
 8412 3286 0000     		.space	2
 8413              	.LC271:
 8414 3288 23646566 		.ascii	"#define IMGC_GAMMA_R_GAIN_14                 \000"
 8414      696E6520 
 8414      494D4743 
 8414      5F47414D 
 8414      4D415F52 
 8415 32b6 0000     		.space	2
 8416              	.LC272:
 8417 32b8 23646566 		.ascii	"#define IMGC_GAMMA_R_GAIN_15                 \000"
 8417      696E6520 
 8417      494D4743 
 8417      5F47414D 
 8417      4D415F52 
 8418 32e6 0000     		.space	2
 8419              	.LC273:
 8420 32e8 23646566 		.ascii	"#define IMGC_GAMMA_R_GAIN_16                 \000"
 8420      696E6520 
 8420      494D4743 
 8420      5F47414D 
 8420      4D415F52 
 8421 3316 0000     		.space	2
 8422              	.LC274:
 8423 3318 23646566 		.ascii	"#define IMGC_GAMMA_R_GAIN_17                 \000"
 8423      696E6520 
 8423      494D4743 
 8423      5F47414D 
 8423      4D415F52 
 8424 3346 0000     		.space	2
 8425              	.LC275:
 8426 3348 23646566 		.ascii	"#define IMGC_GAMMA_R_GAIN_18                 \000"
 8426      696E6520 
 8426      494D4743 
 8426      5F47414D 
 8426      4D415F52 
 8427 3376 0000     		.space	2
 8428              	.LC276:
 8429 3378 23646566 		.ascii	"#define IMGC_GAMMA_R_GAIN_19                 \000"
 8429      696E6520 
 8429      494D4743 
 8429      5F47414D 
 8429      4D415F52 
 8430 33a6 0000     		.space	2
 8431              	.LC277:
 8432 33a8 23646566 		.ascii	"#define IMGC_GAMMA_R_GAIN_20                 \000"
 8432      696E6520 
 8432      494D4743 
 8432      5F47414D 
 8432      4D415F52 
 8433 33d6 0000     		.space	2
 8434              	.LC278:
 8435 33d8 23646566 		.ascii	"#define IMGC_GAMMA_R_GAIN_21                 \000"
 8435      696E6520 
 8435      494D4743 
 8435      5F47414D 
 8435      4D415F52 
 8436 3406 0000     		.space	2
 8437              	.LC279:
 8438 3408 23646566 		.ascii	"#define IMGC_GAMMA_R_GAIN_22                 \000"
 8438      696E6520 
 8438      494D4743 
 8438      5F47414D 
 8438      4D415F52 
 8439 3436 0000     		.space	2
 8440              	.LC280:
 8441 3438 23646566 		.ascii	"#define IMGC_GAMMA_R_GAIN_23                 \000"
 8441      696E6520 
 8441      494D4743 
 8441      5F47414D 
 8441      4D415F52 
 8442 3466 0000     		.space	2
 8443              	.LC281:
 8444 3468 23646566 		.ascii	"#define IMGC_GAMMA_R_GAIN_24                 \000"
 8444      696E6520 
 8444      494D4743 
 8444      5F47414D 
 8444      4D415F52 
 8445 3496 0000     		.space	2
 8446              	.LC282:
 8447 3498 23646566 		.ascii	"#define IMGC_GAMMA_R_GAIN_25                 \000"
 8447      696E6520 
 8447      494D4743 
 8447      5F47414D 
 8447      4D415F52 
 8448 34c6 0000     		.space	2
 8449              	.LC283:
 8450 34c8 23646566 		.ascii	"#define IMGC_GAMMA_R_GAIN_26                 \000"
 8450      696E6520 
 8450      494D4743 
 8450      5F47414D 
 8450      4D415F52 
 8451 34f6 0000     		.space	2
 8452              	.LC284:
 8453 34f8 23646566 		.ascii	"#define IMGC_GAMMA_R_GAIN_27                 \000"
 8453      696E6520 
 8453      494D4743 
 8453      5F47414D 
 8453      4D415F52 
 8454 3526 0000     		.space	2
 8455              	.LC285:
 8456 3528 23646566 		.ascii	"#define IMGC_GAMMA_R_GAIN_28                 \000"
 8456      696E6520 
 8456      494D4743 
 8456      5F47414D 
 8456      4D415F52 
 8457 3556 0000     		.space	2
 8458              	.LC286:
 8459 3558 23646566 		.ascii	"#define IMGC_GAMMA_R_GAIN_29                 \000"
 8459      696E6520 
 8459      494D4743 
 8459      5F47414D 
 8459      4D415F52 
 8460 3586 0000     		.space	2
 8461              	.LC287:
 8462 3588 23646566 		.ascii	"#define IMGC_GAMMA_R_GAIN_30                 \000"
 8462      696E6520 
 8462      494D4743 
 8462      5F47414D 
 8462      4D415F52 
 8463 35b6 0000     		.space	2
 8464              	.LC288:
 8465 35b8 23646566 		.ascii	"#define IMGC_GAMMA_R_GAIN_31                 \000"
 8465      696E6520 
 8465      494D4743 
 8465      5F47414D 
 8465      4D415F52 
 8466 35e6 0000     		.space	2
 8467              	.LC289:
 8468 35e8 23646566 		.ascii	"#define IMGC_GAMMA_R_TH_01                   \000"
 8468      696E6520 
 8468      494D4743 
 8468      5F47414D 
 8468      4D415F52 
 8469 3616 0000     		.space	2
 8470              	.LC290:
 8471 3618 23646566 		.ascii	"#define IMGC_GAMMA_R_TH_02                   \000"
 8471      696E6520 
 8471      494D4743 
 8471      5F47414D 
 8471      4D415F52 
 8472 3646 0000     		.space	2
 8473              	.LC291:
 8474 3648 23646566 		.ascii	"#define IMGC_GAMMA_R_TH_03                   \000"
 8474      696E6520 
 8474      494D4743 
 8474      5F47414D 
 8474      4D415F52 
 8475 3676 0000     		.space	2
 8476              	.LC292:
 8477 3678 23646566 		.ascii	"#define IMGC_GAMMA_R_TH_04                   \000"
 8477      696E6520 
 8477      494D4743 
 8477      5F47414D 
 8477      4D415F52 
 8478 36a6 0000     		.space	2
 8479              	.LC293:
 8480 36a8 23646566 		.ascii	"#define IMGC_GAMMA_R_TH_05                   \000"
 8480      696E6520 
 8480      494D4743 
 8480      5F47414D 
 8480      4D415F52 
 8481 36d6 0000     		.space	2
 8482              	.LC294:
 8483 36d8 23646566 		.ascii	"#define IMGC_GAMMA_R_TH_06                   \000"
 8483      696E6520 
 8483      494D4743 
 8483      5F47414D 
 8483      4D415F52 
 8484 3706 0000     		.space	2
 8485              	.LC295:
 8486 3708 23646566 		.ascii	"#define IMGC_GAMMA_R_TH_07                   \000"
 8486      696E6520 
 8486      494D4743 
 8486      5F47414D 
 8486      4D415F52 
 8487 3736 0000     		.space	2
 8488              	.LC296:
 8489 3738 23646566 		.ascii	"#define IMGC_GAMMA_R_TH_08                   \000"
 8489      696E6520 
 8489      494D4743 
 8489      5F47414D 
 8489      4D415F52 
 8490 3766 0000     		.space	2
 8491              	.LC297:
 8492 3768 23646566 		.ascii	"#define IMGC_GAMMA_R_TH_09                   \000"
 8492      696E6520 
 8492      494D4743 
 8492      5F47414D 
 8492      4D415F52 
 8493 3796 0000     		.space	2
 8494              	.LC298:
 8495 3798 23646566 		.ascii	"#define IMGC_GAMMA_R_TH_10                   \000"
 8495      696E6520 
 8495      494D4743 
 8495      5F47414D 
 8495      4D415F52 
 8496 37c6 0000     		.space	2
 8497              	.LC299:
 8498 37c8 23646566 		.ascii	"#define IMGC_GAMMA_R_TH_11                   \000"
 8498      696E6520 
 8498      494D4743 
 8498      5F47414D 
 8498      4D415F52 
 8499 37f6 0000     		.space	2
 8500              	.LC300:
 8501 37f8 23646566 		.ascii	"#define IMGC_GAMMA_R_TH_12                   \000"
 8501      696E6520 
 8501      494D4743 
 8501      5F47414D 
 8501      4D415F52 
 8502 3826 0000     		.space	2
 8503              	.LC301:
 8504 3828 23646566 		.ascii	"#define IMGC_GAMMA_R_TH_13                   \000"
 8504      696E6520 
 8504      494D4743 
 8504      5F47414D 
 8504      4D415F52 
 8505 3856 0000     		.space	2
 8506              	.LC302:
 8507 3858 23646566 		.ascii	"#define IMGC_GAMMA_R_TH_14                   \000"
 8507      696E6520 
 8507      494D4743 
 8507      5F47414D 
 8507      4D415F52 
 8508 3886 0000     		.space	2
 8509              	.LC303:
 8510 3888 23646566 		.ascii	"#define IMGC_GAMMA_R_TH_15                   \000"
 8510      696E6520 
 8510      494D4743 
 8510      5F47414D 
 8510      4D415F52 
 8511 38b6 0000     		.space	2
 8512              	.LC304:
 8513 38b8 23646566 		.ascii	"#define IMGC_GAMMA_R_TH_16                   \000"
 8513      696E6520 
 8513      494D4743 
 8513      5F47414D 
 8513      4D415F52 
 8514 38e6 0000     		.space	2
 8515              	.LC305:
 8516 38e8 23646566 		.ascii	"#define IMGC_GAMMA_R_TH_17                   \000"
 8516      696E6520 
 8516      494D4743 
 8516      5F47414D 
 8516      4D415F52 
 8517 3916 0000     		.space	2
 8518              	.LC306:
 8519 3918 23646566 		.ascii	"#define IMGC_GAMMA_R_TH_18                   \000"
 8519      696E6520 
 8519      494D4743 
 8519      5F47414D 
 8519      4D415F52 
 8520 3946 0000     		.space	2
 8521              	.LC307:
 8522 3948 23646566 		.ascii	"#define IMGC_GAMMA_R_TH_19                   \000"
 8522      696E6520 
 8522      494D4743 
 8522      5F47414D 
 8522      4D415F52 
 8523 3976 0000     		.space	2
 8524              	.LC308:
 8525 3978 23646566 		.ascii	"#define IMGC_GAMMA_R_TH_20                   \000"
 8525      696E6520 
 8525      494D4743 
 8525      5F47414D 
 8525      4D415F52 
 8526 39a6 0000     		.space	2
 8527              	.LC309:
 8528 39a8 23646566 		.ascii	"#define IMGC_GAMMA_R_TH_21                   \000"
 8528      696E6520 
 8528      494D4743 
 8528      5F47414D 
 8528      4D415F52 
 8529 39d6 0000     		.space	2
 8530              	.LC310:
 8531 39d8 23646566 		.ascii	"#define IMGC_GAMMA_R_TH_22                   \000"
 8531      696E6520 
 8531      494D4743 
 8531      5F47414D 
 8531      4D415F52 
 8532 3a06 0000     		.space	2
 8533              	.LC311:
 8534 3a08 23646566 		.ascii	"#define IMGC_GAMMA_R_TH_23                   \000"
 8534      696E6520 
 8534      494D4743 
 8534      5F47414D 
 8534      4D415F52 
 8535 3a36 0000     		.space	2
 8536              	.LC312:
 8537 3a38 23646566 		.ascii	"#define IMGC_GAMMA_R_TH_24                   \000"
 8537      696E6520 
 8537      494D4743 
 8537      5F47414D 
 8537      4D415F52 
 8538 3a66 0000     		.space	2
 8539              	.LC313:
 8540 3a68 23646566 		.ascii	"#define IMGC_GAMMA_R_TH_25                   \000"
 8540      696E6520 
 8540      494D4743 
 8540      5F47414D 
 8540      4D415F52 
 8541 3a96 0000     		.space	2
 8542              	.LC314:
 8543 3a98 23646566 		.ascii	"#define IMGC_GAMMA_R_TH_26                   \000"
 8543      696E6520 
 8543      494D4743 
 8543      5F47414D 
 8543      4D415F52 
 8544 3ac6 0000     		.space	2
 8545              	.LC315:
 8546 3ac8 23646566 		.ascii	"#define IMGC_GAMMA_R_TH_27                   \000"
 8546      696E6520 
 8546      494D4743 
 8546      5F47414D 
 8546      4D415F52 
 8547 3af6 0000     		.space	2
 8548              	.LC316:
 8549 3af8 23646566 		.ascii	"#define IMGC_GAMMA_R_TH_28                   \000"
 8549      696E6520 
 8549      494D4743 
 8549      5F47414D 
 8549      4D415F52 
 8550 3b26 0000     		.space	2
 8551              	.LC317:
 8552 3b28 23646566 		.ascii	"#define IMGC_GAMMA_R_TH_29                   \000"
 8552      696E6520 
 8552      494D4743 
 8552      5F47414D 
 8552      4D415F52 
 8553 3b56 0000     		.space	2
 8554              	.LC318:
 8555 3b58 23646566 		.ascii	"#define IMGC_GAMMA_R_TH_30                   \000"
 8555      696E6520 
 8555      494D4743 
 8555      5F47414D 
 8555      4D415F52 
 8556 3b86 0000     		.space	2
 8557              	.LC319:
 8558 3b88 23646566 		.ascii	"#define IMGC_GAMMA_R_TH_31                   \000"
 8558      696E6520 
 8558      494D4743 
 8558      5F47414D 
 8558      4D415F52 
 8559 3bb6 0000     		.space	2
 8560              	.LC320:
 8561 3bb8 0A2F2A20 		.ascii	"\012/* Dither Process */\000"
 8561      44697468 
 8561      65722050 
 8561      726F6365 
 8561      7373202A 
 8562 3bce 0000     		.space	2
 8563              	.LC321:
 8564 3bd0 23646566 		.ascii	"#define IMGC_DITHER_MODE\000"
 8564      696E6520 
 8564      494D4743 
 8564      5F444954 
 8564      4845525F 
 8565 3be9 000000   		.space	3
 8566              	.LC322:
 8567 3bec 23646566 		.ascii	"#define IMGC_DITHER_2X2_PA                   (3u)  "
 8567      696E6520 
 8567      494D4743 
 8567      5F444954 
 8567      4845525F 
 8568 3c1f 20202020 		.ascii	"                   /* This value is default. User c"
 8568      20202020 
 8568      20202020 
 8568      20202020 
 8568      2020202F 
 8569 3c52 616E206D 		.ascii	"an modify based on user settings. */\000"
 8569      6F646966 
 8569      79206261 
 8569      73656420 
 8569      6F6E2075 
 8570 3c77 00       		.space	1
 8571              	.LC323:
 8572 3c78 23646566 		.ascii	"#define IMGC_DITHER_2X2_PB                   (0u)  "
 8572      696E6520 
 8572      494D4743 
 8572      5F444954 
 8572      4845525F 
 8573 3cab 20202020 		.ascii	"                   /* This value is default. User c"
 8573      20202020 
 8573      20202020 
 8573      20202020 
 8573      2020202F 
 8574 3cde 616E206D 		.ascii	"an modify based on user settings. */\000"
 8574      6F646966 
 8574      79206261 
 8574      73656420 
 8574      6F6E2075 
 8575 3d03 00       		.space	1
 8576              	.LC324:
 8577 3d04 23646566 		.ascii	"#define IMGC_DITHER_2X2_PC                   (2u)  "
 8577      696E6520 
 8577      494D4743 
 8577      5F444954 
 8577      4845525F 
 8578 3d37 20202020 		.ascii	"                   /* This value is default. User c"
 8578      20202020 
 8578      20202020 
 8578      20202020 
 8578      2020202F 
 8579 3d6a 616E206D 		.ascii	"an modify based on user settings. */\000"
 8579      6F646966 
 8579      79206261 
 8579      73656420 
 8579      6F6E2075 
 8580 3d8f 00       		.space	1
 8581              	.LC325:
 8582 3d90 23646566 		.ascii	"#define IMGC_DITHER_2X2_PD                   (1u)  "
 8582      696E6520 
 8582      494D4743 
 8582      5F444954 
 8582      4845525F 
 8583 3dc3 20202020 		.ascii	"                   /* This value is default. User c"
 8583      20202020 
 8583      20202020 
 8583      20202020 
 8583      2020202F 
 8584 3df6 616E206D 		.ascii	"an modify based on user settings. */\000"
 8584      6F646966 
 8584      79206261 
 8584      73656420 
 8584      6F6E2075 
 8585 3e1b 00       		.space	1
 8586              	.LC326:
 8587 3e1c 0A2F2A20 		.ascii	"\012/* Horizontal Mirroring and Rotation */\000"
 8587      486F7269 
 8587      7A6F6E74 
 8587      616C204D 
 8587      6972726F 
 8588 3e45 000000   		.space	3
 8589              	.LC327:
 8590 3e48 23646566 		.ascii	"#define IMGC_ROTATION_MODE \000"
 8590      696E6520 
 8590      494D4743 
 8590      5F524F54 
 8590      4154494F 
 8591              	.LC328:
 8592 3e64 0A23656E 		.ascii	"\012#endif  /* IMG_CONFIG_H */\000"
 8592      64696620 
 8592      202F2A20 
 8592      494D475F 
 8592      434F4E46 
 8593              	.LC329:
 8594 3e80 494D4743 		.ascii	"IMGCNT_MTX_MODE->IMGCNT_MTX_MD[1:0]\000"
 8594      4E545F4D 
 8594      54585F4D 
 8594      4F44452D 
 8594      3E494D47 
 8595              	.LC330:
 8596 3ea4 5343305F 		.ascii	"SC0_SCL1_WR1->SC0_RES_DS_WR_MD[2:0]\000"
 8596      53434C31 
 8596      5F575231 
 8596      2D3E5343 
 8596      305F5245 
 8597              	.LC331:
 8598 3ec8 4F55545F 		.ascii	"OUT_PDTHA->PDTH_SEL[1:0]\000"
 8598      50445448 
 8598      412D3E50 
 8598      4454485F 
 8598      53454C5B 
 8599 3ee1 000000   		.space	3
 8600              	.LC332:
 8601 3ee4 47414D5F 		.ascii	"GAM_SW->AM_ON\000"
 8601      53572D3E 
 8601      414D5F4F 
 8601      4E00
 8602 3ef2 0000     		.space	2
 8603              	.LC333:
 8604 3ef4 47414D5F 		.ascii	"GAM_G_AREA1->GAM_G_TH_01[7:0]\000"
 8604      475F4152 
 8604      4541312D 
 8604      3E47414D 
 8604      5F475F54 
 8605 3f12 0000     		.space	2
 8606              	.LC334:
 8607 3f14 47414D5F 		.ascii	"GAM_G_AREA1->GAM_G_TH_02[7:0]\000"
 8607      475F4152 
 8607      4541312D 
 8607      3E47414D 
 8607      5F475F54 
 8608 3f32 0000     		.space	2
 8609              	.LC335:
 8610 3f34 47414D5F 		.ascii	"GAM_G_AREA1->GAM_G_TH_03[7:0]\000"
 8610      475F4152 
 8610      4541312D 
 8610      3E47414D 
 8610      5F475F54 
 8611 3f52 0000     		.space	2
 8612              	.LC336:
 8613 3f54 47414D5F 		.ascii	"GAM_G_AREA2->GAM_G_TH_04[7:0]\000"
 8613      475F4152 
 8613      4541322D 
 8613      3E47414D 
 8613      5F475F54 
 8614 3f72 0000     		.space	2
 8615              	.LC337:
 8616 3f74 47414D5F 		.ascii	"GAM_G_AREA2->GAM_G_TH_05[7:0]\000"
 8616      475F4152 
 8616      4541322D 
 8616      3E47414D 
 8616      5F475F54 
 8617 3f92 0000     		.space	2
 8618              	.LC338:
 8619 3f94 47414D5F 		.ascii	"GAM_G_AREA2->GAM_G_TH_06[7:0]\000"
 8619      475F4152 
 8619      4541322D 
 8619      3E47414D 
 8619      5F475F54 
 8620 3fb2 0000     		.space	2
 8621              	.LC339:
 8622 3fb4 47414D5F 		.ascii	"GAM_G_AREA2->GAM_G_TH_07[7:0]\000"
 8622      475F4152 
 8622      4541322D 
 8622      3E47414D 
 8622      5F475F54 
 8623 3fd2 0000     		.space	2
 8624              	.LC340:
 8625 3fd4 47414D5F 		.ascii	"GAM_G_AREA3->GAM_G_TH_08[7:0]\000"
 8625      475F4152 
 8625      4541332D 
 8625      3E47414D 
 8625      5F475F54 
 8626 3ff2 0000     		.space	2
 8627              	.LC341:
 8628 3ff4 47414D5F 		.ascii	"GAM_G_AREA3->GAM_G_TH_09[7:0]\000"
 8628      475F4152 
 8628      4541332D 
 8628      3E47414D 
 8628      5F475F54 
 8629 4012 0000     		.space	2
 8630              	.LC342:
 8631 4014 47414D5F 		.ascii	"GAM_G_AREA3->GAM_G_TH_10[7:0]\000"
 8631      475F4152 
 8631      4541332D 
 8631      3E47414D 
 8631      5F475F54 
 8632 4032 0000     		.space	2
 8633              	.LC343:
 8634 4034 47414D5F 		.ascii	"GAM_G_AREA3->GAM_G_TH_11[7:0]\000"
 8634      475F4152 
 8634      4541332D 
 8634      3E47414D 
 8634      5F475F54 
 8635 4052 0000     		.space	2
 8636              	.LC344:
 8637 4054 47414D5F 		.ascii	"GAM_G_AREA4->GAM_G_TH_12[7:0]\000"
 8637      475F4152 
 8637      4541342D 
 8637      3E47414D 
 8637      5F475F54 
 8638 4072 0000     		.space	2
 8639              	.LC345:
 8640 4074 47414D5F 		.ascii	"GAM_G_AREA4->GAM_G_TH_13[7:0]\000"
 8640      475F4152 
 8640      4541342D 
 8640      3E47414D 
 8640      5F475F54 
 8641 4092 0000     		.space	2
 8642              	.LC346:
 8643 4094 47414D5F 		.ascii	"GAM_G_AREA4->GAM_G_TH_14[7:0]\000"
 8643      475F4152 
 8643      4541342D 
 8643      3E47414D 
 8643      5F475F54 
 8644 40b2 0000     		.space	2
 8645              	.LC347:
 8646 40b4 47414D5F 		.ascii	"GAM_G_AREA4->GAM_G_TH_15[7:0]\000"
 8646      475F4152 
 8646      4541342D 
 8646      3E47414D 
 8646      5F475F54 
 8647 40d2 0000     		.space	2
 8648              	.LC348:
 8649 40d4 47414D5F 		.ascii	"GAM_G_AREA5->GAM_G_TH_16[7:0]\000"
 8649      475F4152 
 8649      4541352D 
 8649      3E47414D 
 8649      5F475F54 
 8650 40f2 0000     		.space	2
 8651              	.LC349:
 8652 40f4 47414D5F 		.ascii	"GAM_G_AREA5->GAM_G_TH_17[7:0]\000"
 8652      475F4152 
 8652      4541352D 
 8652      3E47414D 
 8652      5F475F54 
 8653 4112 0000     		.space	2
 8654              	.LC350:
 8655 4114 47414D5F 		.ascii	"GAM_G_AREA5->GAM_G_TH_18[7:0]\000"
 8655      475F4152 
 8655      4541352D 
 8655      3E47414D 
 8655      5F475F54 
 8656 4132 0000     		.space	2
 8657              	.LC351:
 8658 4134 47414D5F 		.ascii	"GAM_G_AREA5->GAM_G_TH_19[7:0]\000"
 8658      475F4152 
 8658      4541352D 
 8658      3E47414D 
 8658      5F475F54 
 8659 4152 0000     		.space	2
 8660              	.LC352:
 8661 4154 47414D5F 		.ascii	"GAM_G_AREA6->GAM_G_TH_20[7:0]\000"
 8661      475F4152 
 8661      4541362D 
 8661      3E47414D 
 8661      5F475F54 
 8662 4172 0000     		.space	2
 8663              	.LC353:
 8664 4174 47414D5F 		.ascii	"GAM_G_AREA6->GAM_G_TH_21[7:0]\000"
 8664      475F4152 
 8664      4541362D 
 8664      3E47414D 
 8664      5F475F54 
 8665 4192 0000     		.space	2
 8666              	.LC354:
 8667 4194 47414D5F 		.ascii	"GAM_G_AREA6->GAM_G_TH_22[7:0]\000"
 8667      475F4152 
 8667      4541362D 
 8667      3E47414D 
 8667      5F475F54 
 8668 41b2 0000     		.space	2
 8669              	.LC355:
 8670 41b4 47414D5F 		.ascii	"GAM_G_AREA6->GAM_G_TH_23[7:0]\000"
 8670      475F4152 
 8670      4541362D 
 8670      3E47414D 
 8670      5F475F54 
 8671 41d2 0000     		.space	2
 8672              	.LC356:
 8673 41d4 47414D5F 		.ascii	"GAM_G_AREA7->GAM_G_TH_24[7:0]\000"
 8673      475F4152 
 8673      4541372D 
 8673      3E47414D 
 8673      5F475F54 
 8674 41f2 0000     		.space	2
 8675              	.LC357:
 8676 41f4 47414D5F 		.ascii	"GAM_G_AREA7->GAM_G_TH_25[7:0]\000"
 8676      475F4152 
 8676      4541372D 
 8676      3E47414D 
 8676      5F475F54 
 8677 4212 0000     		.space	2
 8678              	.LC358:
 8679 4214 47414D5F 		.ascii	"GAM_G_AREA7->GAM_G_TH_26[7:0]\000"
 8679      475F4152 
 8679      4541372D 
 8679      3E47414D 
 8679      5F475F54 
 8680 4232 0000     		.space	2
 8681              	.LC359:
 8682 4234 47414D5F 		.ascii	"GAM_G_AREA7->GAM_G_TH_27[7:0]\000"
 8682      475F4152 
 8682      4541372D 
 8682      3E47414D 
 8682      5F475F54 
 8683 4252 0000     		.space	2
 8684              	.LC360:
 8685 4254 47414D5F 		.ascii	"GAM_G_AREA8->GAM_G_TH_28[7:0]\000"
 8685      475F4152 
 8685      4541382D 
 8685      3E47414D 
 8685      5F475F54 
 8686 4272 0000     		.space	2
 8687              	.LC361:
 8688 4274 47414D5F 		.ascii	"GAM_G_AREA8->GAM_G_TH_29[7:0]\000"
 8688      475F4152 
 8688      4541382D 
 8688      3E47414D 
 8688      5F475F54 
 8689 4292 0000     		.space	2
 8690              	.LC362:
 8691 4294 47414D5F 		.ascii	"GAM_G_AREA8->GAM_G_TH_30[7:0]\000"
 8691      475F4152 
 8691      4541382D 
 8691      3E47414D 
 8691      5F475F54 
 8692 42b2 0000     		.space	2
 8693              	.LC363:
 8694 42b4 47414D5F 		.ascii	"GAM_G_AREA8->GAM_G_TH_31[7:0]\000"
 8694      475F4152 
 8694      4541382D 
 8694      3E47414D 
 8694      5F475F54 
 8695 42d2 0000     		.space	2
 8696              	.LC364:
 8697 42d4 47414D5F 		.ascii	"GAM_G_LUT1->GAM_G_GAIN_00[10:0]\000"
 8697      475F4C55 
 8697      54312D3E 
 8697      47414D5F 
 8697      475F4741 
 8698              	.LC365:
 8699 42f4 47414D5F 		.ascii	"GAM_G_LUT1->GAM_G_GAIN_01[10:0]\000"
 8699      475F4C55 
 8699      54312D3E 
 8699      47414D5F 
 8699      475F4741 
 8700              	.LC366:
 8701 4314 47414D5F 		.ascii	"GAM_G_LUT2->GAM_G_GAIN_02[10:0]\000"
 8701      475F4C55 
 8701      54322D3E 
 8701      47414D5F 
 8701      475F4741 
 8702              	.LC367:
 8703 4334 47414D5F 		.ascii	"GAM_G_LUT2->GAM_G_GAIN_03[10:0]\000"
 8703      475F4C55 
 8703      54322D3E 
 8703      47414D5F 
 8703      475F4741 
 8704              	.LC368:
 8705 4354 47414D5F 		.ascii	"GAM_G_LUT3->GAM_G_GAIN_04[10:0]\000"
 8705      475F4C55 
 8705      54332D3E 
 8705      47414D5F 
 8705      475F4741 
 8706              	.LC369:
 8707 4374 47414D5F 		.ascii	"GAM_G_LUT3->GAM_G_GAIN_05[10:0]\000"
 8707      475F4C55 
 8707      54332D3E 
 8707      47414D5F 
 8707      475F4741 
 8708              	.LC370:
 8709 4394 47414D5F 		.ascii	"GAM_G_LUT4->GAM_G_GAIN_06[10:0]\000"
 8709      475F4C55 
 8709      54342D3E 
 8709      47414D5F 
 8709      475F4741 
 8710              	.LC371:
 8711 43b4 47414D5F 		.ascii	"GAM_G_LUT4->GAM_G_GAIN_07[10:0]\000"
 8711      475F4C55 
 8711      54342D3E 
 8711      47414D5F 
 8711      475F4741 
 8712              	.LC372:
 8713 43d4 47414D5F 		.ascii	"GAM_G_LUT5->GAM_G_GAIN_08[10:0]\000"
 8713      475F4C55 
 8713      54352D3E 
 8713      47414D5F 
 8713      475F4741 
 8714              	.LC373:
 8715 43f4 47414D5F 		.ascii	"GAM_G_LUT5->GAM_G_GAIN_09[10:0]\000"
 8715      475F4C55 
 8715      54352D3E 
 8715      47414D5F 
 8715      475F4741 
 8716              	.LC374:
 8717 4414 47414D5F 		.ascii	"GAM_G_LUT6->GAM_G_GAIN_10[10:0]\000"
 8717      475F4C55 
 8717      54362D3E 
 8717      47414D5F 
 8717      475F4741 
 8718              	.LC375:
 8719 4434 47414D5F 		.ascii	"GAM_G_LUT6->GAM_G_GAIN_11[10:0]\000"
 8719      475F4C55 
 8719      54362D3E 
 8719      47414D5F 
 8719      475F4741 
 8720              	.LC376:
 8721 4454 47414D5F 		.ascii	"GAM_G_LUT7->GAM_G_GAIN_12[10:0]\000"
 8721      475F4C55 
 8721      54372D3E 
 8721      47414D5F 
 8721      475F4741 
 8722              	.LC377:
 8723 4474 47414D5F 		.ascii	"GAM_G_LUT7->GAM_G_GAIN_13[10:0]\000"
 8723      475F4C55 
 8723      54372D3E 
 8723      47414D5F 
 8723      475F4741 
 8724              	.LC378:
 8725 4494 47414D5F 		.ascii	"GAM_G_LUT8->GAM_G_GAIN_14[10:0]\000"
 8725      475F4C55 
 8725      54382D3E 
 8725      47414D5F 
 8725      475F4741 
 8726              	.LC379:
 8727 44b4 47414D5F 		.ascii	"GAM_G_LUT8->GAM_G_GAIN_15[10:0]\000"
 8727      475F4C55 
 8727      54382D3E 
 8727      47414D5F 
 8727      475F4741 
 8728              	.LC380:
 8729 44d4 47414D5F 		.ascii	"GAM_G_LUT9->GAM_G_GAIN_16[10:0]\000"
 8729      475F4C55 
 8729      54392D3E 
 8729      47414D5F 
 8729      475F4741 
 8730              	.LC381:
 8731 44f4 47414D5F 		.ascii	"GAM_G_LUT9->GAM_G_GAIN_17[10:0]\000"
 8731      475F4C55 
 8731      54392D3E 
 8731      47414D5F 
 8731      475F4741 
 8732              	.LC382:
 8733 4514 47414D5F 		.ascii	"GAM_G_LUT10->GAM_G_GAIN_18[10:0]\000"
 8733      475F4C55 
 8733      5431302D 
 8733      3E47414D 
 8733      5F475F47 
 8734 4535 000000   		.space	3
 8735              	.LC383:
 8736 4538 47414D5F 		.ascii	"GAM_G_LUT10->GAM_G_GAIN_19[10:0]\000"
 8736      475F4C55 
 8736      5431302D 
 8736      3E47414D 
 8736      5F475F47 
 8737 4559 000000   		.space	3
 8738              	.LC384:
 8739 455c 47414D5F 		.ascii	"GAM_G_LUT11->GAM_G_GAIN_20[10:0]\000"
 8739      475F4C55 
 8739      5431312D 
 8739      3E47414D 
 8739      5F475F47 
 8740 457d 000000   		.space	3
 8741              	.LC385:
 8742 4580 47414D5F 		.ascii	"GAM_G_LUT11->GAM_G_GAIN_21[10:0]\000"
 8742      475F4C55 
 8742      5431312D 
 8742      3E47414D 
 8742      5F475F47 
 8743 45a1 000000   		.space	3
 8744              	.LC386:
 8745 45a4 47414D5F 		.ascii	"GAM_G_LUT12->GAM_G_GAIN_22[10:0]\000"
 8745      475F4C55 
 8745      5431322D 
 8745      3E47414D 
 8745      5F475F47 
 8746 45c5 000000   		.space	3
 8747              	.LC387:
 8748 45c8 47414D5F 		.ascii	"GAM_G_LUT12->GAM_G_GAIN_23[10:0]\000"
 8748      475F4C55 
 8748      5431322D 
 8748      3E47414D 
 8748      5F475F47 
 8749 45e9 000000   		.space	3
 8750              	.LC388:
 8751 45ec 47414D5F 		.ascii	"GAM_G_LUT13->GAM_G_GAIN_24[10:0]\000"
 8751      475F4C55 
 8751      5431332D 
 8751      3E47414D 
 8751      5F475F47 
 8752 460d 000000   		.space	3
 8753              	.LC389:
 8754 4610 47414D5F 		.ascii	"GAM_G_LUT13->GAM_G_GAIN_25[10:0]\000"
 8754      475F4C55 
 8754      5431332D 
 8754      3E47414D 
 8754      5F475F47 
 8755 4631 000000   		.space	3
 8756              	.LC390:
 8757 4634 47414D5F 		.ascii	"GAM_G_LUT14->GAM_G_GAIN_26[10:0]\000"
 8757      475F4C55 
 8757      5431342D 
 8757      3E47414D 
 8757      5F475F47 
 8758 4655 000000   		.space	3
 8759              	.LC391:
 8760 4658 47414D5F 		.ascii	"GAM_G_LUT14->GAM_G_GAIN_27[10:0]\000"
 8760      475F4C55 
 8760      5431342D 
 8760      3E47414D 
 8760      5F475F47 
 8761 4679 000000   		.space	3
 8762              	.LC392:
 8763 467c 47414D5F 		.ascii	"GAM_G_LUT15->GAM_G_GAIN_28[10:0]\000"
 8763      475F4C55 
 8763      5431352D 
 8763      3E47414D 
 8763      5F475F47 
 8764 469d 000000   		.space	3
 8765              	.LC393:
 8766 46a0 47414D5F 		.ascii	"GAM_G_LUT15->GAM_G_GAIN_29[10:0]\000"
 8766      475F4C55 
 8766      5431352D 
 8766      3E47414D 
 8766      5F475F47 
 8767 46c1 000000   		.space	3
 8768              	.LC394:
 8769 46c4 47414D5F 		.ascii	"GAM_G_LUT16->GAM_G_GAIN_30[10:0]\000"
 8769      475F4C55 
 8769      5431362D 
 8769      3E47414D 
 8769      5F475F47 
 8770 46e5 000000   		.space	3
 8771              	.LC395:
 8772 46e8 47414D5F 		.ascii	"GAM_G_LUT16->GAM_G_GAIN_31[10:0]\000"
 8772      475F4C55 
 8772      5431362D 
 8772      3E47414D 
 8772      5F475F47 
 8773 4709 000000   		.space	3
 8774              	.LC396:
 8775 470c 47414D5F 		.ascii	"GAM_B_AREA1->GAM_B_TH_01[7:0]\000"
 8775      425F4152 
 8775      4541312D 
 8775      3E47414D 
 8775      5F425F54 
 8776 472a 0000     		.space	2
 8777              	.LC397:
 8778 472c 47414D5F 		.ascii	"GAM_B_AREA1->GAM_B_TH_02[7:0]\000"
 8778      425F4152 
 8778      4541312D 
 8778      3E47414D 
 8778      5F425F54 
 8779 474a 0000     		.space	2
 8780              	.LC398:
 8781 474c 47414D5F 		.ascii	"GAM_B_AREA1->GAM_B_TH_03[7:0]\000"
 8781      425F4152 
 8781      4541312D 
 8781      3E47414D 
 8781      5F425F54 
 8782 476a 0000     		.space	2
 8783              	.LC399:
 8784 476c 47414D5F 		.ascii	"GAM_B_AREA2->GAM_B_TH_04[7:0]\000"
 8784      425F4152 
 8784      4541322D 
 8784      3E47414D 
 8784      5F425F54 
 8785 478a 0000     		.space	2
 8786              	.LC400:
 8787 478c 47414D5F 		.ascii	"GAM_B_AREA2->GAM_B_TH_05[7:0]\000"
 8787      425F4152 
 8787      4541322D 
 8787      3E47414D 
 8787      5F425F54 
 8788 47aa 0000     		.space	2
 8789              	.LC401:
 8790 47ac 47414D5F 		.ascii	"GAM_B_AREA2->GAM_B_TH_06[7:0]\000"
 8790      425F4152 
 8790      4541322D 
 8790      3E47414D 
 8790      5F425F54 
 8791 47ca 0000     		.space	2
 8792              	.LC402:
 8793 47cc 47414D5F 		.ascii	"GAM_B_AREA2->GAM_B_TH_07[7:0]\000"
 8793      425F4152 
 8793      4541322D 
 8793      3E47414D 
 8793      5F425F54 
 8794 47ea 0000     		.space	2
 8795              	.LC403:
 8796 47ec 47414D5F 		.ascii	"GAM_B_AREA3->GAM_B_TH_08[7:0]\000"
 8796      425F4152 
 8796      4541332D 
 8796      3E47414D 
 8796      5F425F54 
 8797 480a 0000     		.space	2
 8798              	.LC404:
 8799 480c 47414D5F 		.ascii	"GAM_B_AREA3->GAM_B_TH_09[7:0]\000"
 8799      425F4152 
 8799      4541332D 
 8799      3E47414D 
 8799      5F425F54 
 8800 482a 0000     		.space	2
 8801              	.LC405:
 8802 482c 47414D5F 		.ascii	"GAM_B_AREA3->GAM_B_TH_10[7:0]\000"
 8802      425F4152 
 8802      4541332D 
 8802      3E47414D 
 8802      5F425F54 
 8803 484a 0000     		.space	2
 8804              	.LC406:
 8805 484c 47414D5F 		.ascii	"GAM_B_AREA3->GAM_B_TH_11[7:0]\000"
 8805      425F4152 
 8805      4541332D 
 8805      3E47414D 
 8805      5F425F54 
 8806 486a 0000     		.space	2
 8807              	.LC407:
 8808 486c 47414D5F 		.ascii	"GAM_B_AREA4->GAM_B_TH_12[7:0]\000"
 8808      425F4152 
 8808      4541342D 
 8808      3E47414D 
 8808      5F425F54 
 8809 488a 0000     		.space	2
 8810              	.LC408:
 8811 488c 47414D5F 		.ascii	"GAM_B_AREA4->GAM_B_TH_13[7:0]\000"
 8811      425F4152 
 8811      4541342D 
 8811      3E47414D 
 8811      5F425F54 
 8812 48aa 0000     		.space	2
 8813              	.LC409:
 8814 48ac 47414D5F 		.ascii	"GAM_B_AREA4->GAM_B_TH_14[7:0]\000"
 8814      425F4152 
 8814      4541342D 
 8814      3E47414D 
 8814      5F425F54 
 8815 48ca 0000     		.space	2
 8816              	.LC410:
 8817 48cc 47414D5F 		.ascii	"GAM_B_AREA4->GAM_B_TH_15[7:0]\000"
 8817      425F4152 
 8817      4541342D 
 8817      3E47414D 
 8817      5F425F54 
 8818 48ea 0000     		.space	2
 8819              	.LC411:
 8820 48ec 47414D5F 		.ascii	"GAM_B_AREA5->GAM_B_TH_16[7:0]\000"
 8820      425F4152 
 8820      4541352D 
 8820      3E47414D 
 8820      5F425F54 
 8821 490a 0000     		.space	2
 8822              	.LC412:
 8823 490c 47414D5F 		.ascii	"GAM_B_AREA5->GAM_B_TH_17[7:0]\000"
 8823      425F4152 
 8823      4541352D 
 8823      3E47414D 
 8823      5F425F54 
 8824 492a 0000     		.space	2
 8825              	.LC413:
 8826 492c 47414D5F 		.ascii	"GAM_B_AREA5->GAM_B_TH_18[7:0]\000"
 8826      425F4152 
 8826      4541352D 
 8826      3E47414D 
 8826      5F425F54 
 8827 494a 0000     		.space	2
 8828              	.LC414:
 8829 494c 47414D5F 		.ascii	"GAM_B_AREA5->GAM_B_TH_19[7:0]\000"
 8829      425F4152 
 8829      4541352D 
 8829      3E47414D 
 8829      5F425F54 
 8830 496a 0000     		.space	2
 8831              	.LC415:
 8832 496c 47414D5F 		.ascii	"GAM_B_AREA6->GAM_B_TH_20[7:0]\000"
 8832      425F4152 
 8832      4541362D 
 8832      3E47414D 
 8832      5F425F54 
 8833 498a 0000     		.space	2
 8834              	.LC416:
 8835 498c 47414D5F 		.ascii	"GAM_B_AREA6->GAM_B_TH_21[7:0]\000"
 8835      425F4152 
 8835      4541362D 
 8835      3E47414D 
 8835      5F425F54 
 8836 49aa 0000     		.space	2
 8837              	.LC417:
 8838 49ac 47414D5F 		.ascii	"GAM_B_AREA6->GAM_B_TH_22[7:0]\000"
 8838      425F4152 
 8838      4541362D 
 8838      3E47414D 
 8838      5F425F54 
 8839 49ca 0000     		.space	2
 8840              	.LC418:
 8841 49cc 47414D5F 		.ascii	"GAM_B_AREA6->GAM_B_TH_23[7:0]\000"
 8841      425F4152 
 8841      4541362D 
 8841      3E47414D 
 8841      5F425F54 
 8842 49ea 0000     		.space	2
 8843              	.LC419:
 8844 49ec 47414D5F 		.ascii	"GAM_B_AREA7->GAM_B_TH_24[7:0]\000"
 8844      425F4152 
 8844      4541372D 
 8844      3E47414D 
 8844      5F425F54 
 8845 4a0a 0000     		.space	2
 8846              	.LC420:
 8847 4a0c 47414D5F 		.ascii	"GAM_B_AREA7->GAM_B_TH_25[7:0]\000"
 8847      425F4152 
 8847      4541372D 
 8847      3E47414D 
 8847      5F425F54 
 8848 4a2a 0000     		.space	2
 8849              	.LC421:
 8850 4a2c 47414D5F 		.ascii	"GAM_B_AREA7->GAM_B_TH_26[7:0]\000"
 8850      425F4152 
 8850      4541372D 
 8850      3E47414D 
 8850      5F425F54 
 8851 4a4a 0000     		.space	2
 8852              	.LC422:
 8853 4a4c 47414D5F 		.ascii	"GAM_B_AREA7->GAM_B_TH_27[7:0]\000"
 8853      425F4152 
 8853      4541372D 
 8853      3E47414D 
 8853      5F425F54 
 8854 4a6a 0000     		.space	2
 8855              	.LC423:
 8856 4a6c 47414D5F 		.ascii	"GAM_B_AREA8->GAM_B_TH_28[7:0]\000"
 8856      425F4152 
 8856      4541382D 
 8856      3E47414D 
 8856      5F425F54 
 8857 4a8a 0000     		.space	2
 8858              	.LC424:
 8859 4a8c 47414D5F 		.ascii	"GAM_B_AREA8->GAM_B_TH_29[7:0]\000"
 8859      425F4152 
 8859      4541382D 
 8859      3E47414D 
 8859      5F425F54 
 8860 4aaa 0000     		.space	2
 8861              	.LC425:
 8862 4aac 47414D5F 		.ascii	"GAM_B_AREA8->GAM_B_TH_30[7:0]\000"
 8862      425F4152 
 8862      4541382D 
 8862      3E47414D 
 8862      5F425F54 
 8863 4aca 0000     		.space	2
 8864              	.LC426:
 8865 4acc 47414D5F 		.ascii	"GAM_B_AREA8->GAM_B_TH_31[7:0]\000"
 8865      425F4152 
 8865      4541382D 
 8865      3E47414D 
 8865      5F425F54 
 8866 4aea 0000     		.space	2
 8867              	.LC427:
 8868 4aec 47414D5F 		.ascii	"GAM_B_LUT1->GAM_B_GAIN_00[10:0]\000"
 8868      425F4C55 
 8868      54312D3E 
 8868      47414D5F 
 8868      425F4741 
 8869              	.LC428:
 8870 4b0c 47414D5F 		.ascii	"GAM_B_LUT1->GAM_B_GAIN_01[10:0]\000"
 8870      425F4C55 
 8870      54312D3E 
 8870      47414D5F 
 8870      425F4741 
 8871              	.LC429:
 8872 4b2c 47414D5F 		.ascii	"GAM_B_LUT2->GAM_B_GAIN_02[10:0]\000"
 8872      425F4C55 
 8872      54322D3E 
 8872      47414D5F 
 8872      425F4741 
 8873              	.LC430:
 8874 4b4c 47414D5F 		.ascii	"GAM_B_LUT2->GAM_B_GAIN_03[10:0]\000"
 8874      425F4C55 
 8874      54322D3E 
 8874      47414D5F 
 8874      425F4741 
 8875              	.LC431:
 8876 4b6c 47414D5F 		.ascii	"GAM_B_LUT3->GAM_B_GAIN_04[10:0]\000"
 8876      425F4C55 
 8876      54332D3E 
 8876      47414D5F 
 8876      425F4741 
 8877              	.LC432:
 8878 4b8c 47414D5F 		.ascii	"GAM_B_LUT3->GAM_B_GAIN_05[10:0]\000"
 8878      425F4C55 
 8878      54332D3E 
 8878      47414D5F 
 8878      425F4741 
 8879              	.LC433:
 8880 4bac 47414D5F 		.ascii	"GAM_B_LUT4->GAM_B_GAIN_06[10:0]\000"
 8880      425F4C55 
 8880      54342D3E 
 8880      47414D5F 
 8880      425F4741 
 8881              	.LC434:
 8882 4bcc 47414D5F 		.ascii	"GAM_B_LUT4->GAM_B_GAIN_07[10:0]\000"
 8882      425F4C55 
 8882      54342D3E 
 8882      47414D5F 
 8882      425F4741 
 8883              	.LC435:
 8884 4bec 47414D5F 		.ascii	"GAM_B_LUT5->GAM_B_GAIN_08[10:0]\000"
 8884      425F4C55 
 8884      54352D3E 
 8884      47414D5F 
 8884      425F4741 
 8885              	.LC436:
 8886 4c0c 47414D5F 		.ascii	"GAM_B_LUT5->GAM_B_GAIN_09[10:0]\000"
 8886      425F4C55 
 8886      54352D3E 
 8886      47414D5F 
 8886      425F4741 
 8887              	.LC437:
 8888 4c2c 47414D5F 		.ascii	"GAM_B_LUT6->GAM_B_GAIN_10[10:0]\000"
 8888      425F4C55 
 8888      54362D3E 
 8888      47414D5F 
 8888      425F4741 
 8889              	.LC438:
 8890 4c4c 47414D5F 		.ascii	"GAM_B_LUT6->GAM_B_GAIN_11[10:0]\000"
 8890      425F4C55 
 8890      54362D3E 
 8890      47414D5F 
 8890      425F4741 
 8891              	.LC439:
 8892 4c6c 47414D5F 		.ascii	"GAM_B_LUT7->GAM_B_GAIN_12[10:0]\000"
 8892      425F4C55 
 8892      54372D3E 
 8892      47414D5F 
 8892      425F4741 
 8893              	.LC440:
 8894 4c8c 47414D5F 		.ascii	"GAM_B_LUT7->GAM_B_GAIN_13[10:0]\000"
 8894      425F4C55 
 8894      54372D3E 
 8894      47414D5F 
 8894      425F4741 
 8895              	.LC441:
 8896 4cac 47414D5F 		.ascii	"GAM_B_LUT8->GAM_B_GAIN_14[10:0]\000"
 8896      425F4C55 
 8896      54382D3E 
 8896      47414D5F 
 8896      425F4741 
 8897              	.LC442:
 8898 4ccc 47414D5F 		.ascii	"GAM_B_LUT8->GAM_B_GAIN_15[10:0]\000"
 8898      425F4C55 
 8898      54382D3E 
 8898      47414D5F 
 8898      425F4741 
 8899              	.LC443:
 8900 4cec 47414D5F 		.ascii	"GAM_B_LUT9->GAM_B_GAIN_16[10:0]\000"
 8900      425F4C55 
 8900      54392D3E 
 8900      47414D5F 
 8900      425F4741 
 8901              	.LC444:
 8902 4d0c 47414D5F 		.ascii	"GAM_B_LUT9->GAM_B_GAIN_17[10:0]\000"
 8902      425F4C55 
 8902      54392D3E 
 8902      47414D5F 
 8902      425F4741 
 8903              	.LC445:
 8904 4d2c 47414D5F 		.ascii	"GAM_B_LUT10->GAM_B_GAIN_18[10:0]\000"
 8904      425F4C55 
 8904      5431302D 
 8904      3E47414D 
 8904      5F425F47 
 8905 4d4d 000000   		.space	3
 8906              	.LC446:
 8907 4d50 47414D5F 		.ascii	"GAM_B_LUT10->GAM_B_GAIN_19[10:0]\000"
 8907      425F4C55 
 8907      5431302D 
 8907      3E47414D 
 8907      5F425F47 
 8908 4d71 000000   		.space	3
 8909              	.LC447:
 8910 4d74 47414D5F 		.ascii	"GAM_B_LUT11->GAM_B_GAIN_20[10:0]\000"
 8910      425F4C55 
 8910      5431312D 
 8910      3E47414D 
 8910      5F425F47 
 8911 4d95 000000   		.space	3
 8912              	.LC448:
 8913 4d98 47414D5F 		.ascii	"GAM_B_LUT11->GAM_B_GAIN_21[10:0]\000"
 8913      425F4C55 
 8913      5431312D 
 8913      3E47414D 
 8913      5F425F47 
 8914 4db9 000000   		.space	3
 8915              	.LC449:
 8916 4dbc 47414D5F 		.ascii	"GAM_B_LUT12->GAM_B_GAIN_22[10:0]\000"
 8916      425F4C55 
 8916      5431322D 
 8916      3E47414D 
 8916      5F425F47 
 8917 4ddd 000000   		.space	3
 8918              	.LC450:
 8919 4de0 47414D5F 		.ascii	"GAM_B_LUT12->GAM_B_GAIN_23[10:0]\000"
 8919      425F4C55 
 8919      5431322D 
 8919      3E47414D 
 8919      5F425F47 
 8920 4e01 000000   		.space	3
 8921              	.LC451:
 8922 4e04 47414D5F 		.ascii	"GAM_B_LUT13->GAM_B_GAIN_24[10:0]\000"
 8922      425F4C55 
 8922      5431332D 
 8922      3E47414D 
 8922      5F425F47 
 8923 4e25 000000   		.space	3
 8924              	.LC452:
 8925 4e28 47414D5F 		.ascii	"GAM_B_LUT13->GAM_B_GAIN_25[10:0]\000"
 8925      425F4C55 
 8925      5431332D 
 8925      3E47414D 
 8925      5F425F47 
 8926 4e49 000000   		.space	3
 8927              	.LC453:
 8928 4e4c 47414D5F 		.ascii	"GAM_B_LUT14->GAM_B_GAIN_26[10:0]\000"
 8928      425F4C55 
 8928      5431342D 
 8928      3E47414D 
 8928      5F425F47 
 8929 4e6d 000000   		.space	3
 8930              	.LC454:
 8931 4e70 47414D5F 		.ascii	"GAM_B_LUT14->GAM_B_GAIN_27[10:0]\000"
 8931      425F4C55 
 8931      5431342D 
 8931      3E47414D 
 8931      5F425F47 
 8932 4e91 000000   		.space	3
 8933              	.LC455:
 8934 4e94 47414D5F 		.ascii	"GAM_B_LUT15->GAM_B_GAIN_28[10:0]\000"
 8934      425F4C55 
 8934      5431352D 
 8934      3E47414D 
 8934      5F425F47 
 8935 4eb5 000000   		.space	3
 8936              	.LC456:
 8937 4eb8 47414D5F 		.ascii	"GAM_B_LUT15->GAM_B_GAIN_29[10:0]\000"
 8937      425F4C55 
 8937      5431352D 
 8937      3E47414D 
 8937      5F425F47 
 8938 4ed9 000000   		.space	3
 8939              	.LC457:
 8940 4edc 47414D5F 		.ascii	"GAM_B_LUT16->GAM_B_GAIN_30[10:0]\000"
 8940      425F4C55 
 8940      5431362D 
 8940      3E47414D 
 8940      5F425F47 
 8941 4efd 000000   		.space	3
 8942              	.LC458:
 8943 4f00 47414D5F 		.ascii	"GAM_B_LUT16->GAM_B_GAIN_31[10:0]\000"
 8943      425F4C55 
 8943      5431362D 
 8943      3E47414D 
 8943      5F425F47 
 8944 4f21 000000   		.space	3
 8945              	.LC459:
 8946 4f24 47414D5F 		.ascii	"GAM_R_AREA1->GAM_R_TH_01[7:0]\000"
 8946      525F4152 
 8946      4541312D 
 8946      3E47414D 
 8946      5F525F54 
 8947 4f42 0000     		.space	2
 8948              	.LC460:
 8949 4f44 47414D5F 		.ascii	"GAM_R_AREA1->GAM_R_TH_02[7:0]\000"
 8949      525F4152 
 8949      4541312D 
 8949      3E47414D 
 8949      5F525F54 
 8950 4f62 0000     		.space	2
 8951              	.LC461:
 8952 4f64 47414D5F 		.ascii	"GAM_R_AREA1->GAM_R_TH_03[7:0]\000"
 8952      525F4152 
 8952      4541312D 
 8952      3E47414D 
 8952      5F525F54 
 8953 4f82 0000     		.space	2
 8954              	.LC462:
 8955 4f84 47414D5F 		.ascii	"GAM_R_AREA2->GAM_R_TH_04[7:0]\000"
 8955      525F4152 
 8955      4541322D 
 8955      3E47414D 
 8955      5F525F54 
 8956 4fa2 0000     		.space	2
 8957              	.LC463:
 8958 4fa4 47414D5F 		.ascii	"GAM_R_AREA2->GAM_R_TH_05[7:0]\000"
 8958      525F4152 
 8958      4541322D 
 8958      3E47414D 
 8958      5F525F54 
 8959 4fc2 0000     		.space	2
 8960              	.LC464:
 8961 4fc4 47414D5F 		.ascii	"GAM_R_AREA2->GAM_R_TH_06[7:0]\000"
 8961      525F4152 
 8961      4541322D 
 8961      3E47414D 
 8961      5F525F54 
 8962 4fe2 0000     		.space	2
 8963              	.LC465:
 8964 4fe4 47414D5F 		.ascii	"GAM_R_AREA2->GAM_R_TH_07[7:0]\000"
 8964      525F4152 
 8964      4541322D 
 8964      3E47414D 
 8964      5F525F54 
 8965 5002 0000     		.space	2
 8966              	.LC466:
 8967 5004 47414D5F 		.ascii	"GAM_R_AREA3->GAM_R_TH_08[7:0]\000"
 8967      525F4152 
 8967      4541332D 
 8967      3E47414D 
 8967      5F525F54 
 8968 5022 0000     		.space	2
 8969              	.LC467:
 8970 5024 47414D5F 		.ascii	"GAM_R_AREA3->GAM_R_TH_09[7:0]\000"
 8970      525F4152 
 8970      4541332D 
 8970      3E47414D 
 8970      5F525F54 
 8971 5042 0000     		.space	2
 8972              	.LC468:
 8973 5044 47414D5F 		.ascii	"GAM_R_AREA3->GAM_R_TH_10[7:0]\000"
 8973      525F4152 
 8973      4541332D 
 8973      3E47414D 
 8973      5F525F54 
 8974 5062 0000     		.space	2
 8975              	.LC469:
 8976 5064 47414D5F 		.ascii	"GAM_R_AREA3->GAM_R_TH_11[7:0]\000"
 8976      525F4152 
 8976      4541332D 
 8976      3E47414D 
 8976      5F525F54 
 8977 5082 0000     		.space	2
 8978              	.LC470:
 8979 5084 47414D5F 		.ascii	"GAM_R_AREA4->GAM_R_TH_12[7:0]\000"
 8979      525F4152 
 8979      4541342D 
 8979      3E47414D 
 8979      5F525F54 
 8980 50a2 0000     		.space	2
 8981              	.LC471:
 8982 50a4 47414D5F 		.ascii	"GAM_R_AREA4->GAM_R_TH_13[7:0]\000"
 8982      525F4152 
 8982      4541342D 
 8982      3E47414D 
 8982      5F525F54 
 8983 50c2 0000     		.space	2
 8984              	.LC472:
 8985 50c4 47414D5F 		.ascii	"GAM_R_AREA4->GAM_R_TH_14[7:0]\000"
 8985      525F4152 
 8985      4541342D 
 8985      3E47414D 
 8985      5F525F54 
 8986 50e2 0000     		.space	2
 8987              	.LC473:
 8988 50e4 47414D5F 		.ascii	"GAM_R_AREA4->GAM_R_TH_15[7:0]\000"
 8988      525F4152 
 8988      4541342D 
 8988      3E47414D 
 8988      5F525F54 
 8989 5102 0000     		.space	2
 8990              	.LC474:
 8991 5104 47414D5F 		.ascii	"GAM_R_AREA5->GAM_R_TH_16[7:0]\000"
 8991      525F4152 
 8991      4541352D 
 8991      3E47414D 
 8991      5F525F54 
 8992 5122 0000     		.space	2
 8993              	.LC475:
 8994 5124 47414D5F 		.ascii	"GAM_R_AREA5->GAM_R_TH_17[7:0]\000"
 8994      525F4152 
 8994      4541352D 
 8994      3E47414D 
 8994      5F525F54 
 8995 5142 0000     		.space	2
 8996              	.LC476:
 8997 5144 47414D5F 		.ascii	"GAM_R_AREA5->GAM_R_TH_18[7:0]\000"
 8997      525F4152 
 8997      4541352D 
 8997      3E47414D 
 8997      5F525F54 
 8998 5162 0000     		.space	2
 8999              	.LC477:
 9000 5164 47414D5F 		.ascii	"GAM_R_AREA5->GAM_R_TH_19[7:0]\000"
 9000      525F4152 
 9000      4541352D 
 9000      3E47414D 
 9000      5F525F54 
 9001 5182 0000     		.space	2
 9002              	.LC478:
 9003 5184 47414D5F 		.ascii	"GAM_R_AREA6->GAM_R_TH_20[7:0]\000"
 9003      525F4152 
 9003      4541362D 
 9003      3E47414D 
 9003      5F525F54 
 9004 51a2 0000     		.space	2
 9005              	.LC479:
 9006 51a4 47414D5F 		.ascii	"GAM_R_AREA6->GAM_R_TH_21[7:0]\000"
 9006      525F4152 
 9006      4541362D 
 9006      3E47414D 
 9006      5F525F54 
 9007 51c2 0000     		.space	2
 9008              	.LC480:
 9009 51c4 47414D5F 		.ascii	"GAM_R_AREA6->GAM_R_TH_22[7:0]\000"
 9009      525F4152 
 9009      4541362D 
 9009      3E47414D 
 9009      5F525F54 
 9010 51e2 0000     		.space	2
 9011              	.LC481:
 9012 51e4 47414D5F 		.ascii	"GAM_R_AREA6->GAM_R_TH_23[7:0]\000"
 9012      525F4152 
 9012      4541362D 
 9012      3E47414D 
 9012      5F525F54 
 9013 5202 0000     		.space	2
 9014              	.LC482:
 9015 5204 47414D5F 		.ascii	"GAM_R_AREA7->GAM_R_TH_24[7:0]\000"
 9015      525F4152 
 9015      4541372D 
 9015      3E47414D 
 9015      5F525F54 
 9016 5222 0000     		.space	2
 9017              	.LC483:
 9018 5224 47414D5F 		.ascii	"GAM_R_AREA7->GAM_R_TH_25[7:0]\000"
 9018      525F4152 
 9018      4541372D 
 9018      3E47414D 
 9018      5F525F54 
 9019 5242 0000     		.space	2
 9020              	.LC484:
 9021 5244 47414D5F 		.ascii	"GAM_R_AREA7->GAM_R_TH_26[7:0]\000"
 9021      525F4152 
 9021      4541372D 
 9021      3E47414D 
 9021      5F525F54 
 9022 5262 0000     		.space	2
 9023              	.LC485:
 9024 5264 47414D5F 		.ascii	"GAM_R_AREA7->GAM_R_TH_27[7:0]\000"
 9024      525F4152 
 9024      4541372D 
 9024      3E47414D 
 9024      5F525F54 
 9025 5282 0000     		.space	2
 9026              	.LC486:
 9027 5284 47414D5F 		.ascii	"GAM_R_AREA8->GAM_R_TH_28[7:0]\000"
 9027      525F4152 
 9027      4541382D 
 9027      3E47414D 
 9027      5F525F54 
 9028 52a2 0000     		.space	2
 9029              	.LC487:
 9030 52a4 47414D5F 		.ascii	"GAM_R_AREA8->GAM_R_TH_29[7:0]\000"
 9030      525F4152 
 9030      4541382D 
 9030      3E47414D 
 9030      5F525F54 
 9031 52c2 0000     		.space	2
 9032              	.LC488:
 9033 52c4 47414D5F 		.ascii	"GAM_R_AREA8->GAM_R_TH_30[7:0]\000"
 9033      525F4152 
 9033      4541382D 
 9033      3E47414D 
 9033      5F525F54 
 9034 52e2 0000     		.space	2
 9035              	.LC489:
 9036 52e4 47414D5F 		.ascii	"GAM_R_AREA8->GAM_R_TH_31[7:0]\000"
 9036      525F4152 
 9036      4541382D 
 9036      3E47414D 
 9036      5F525F54 
 9037 5302 0000     		.space	2
 9038              	.LC490:
 9039 5304 47414D5F 		.ascii	"GAM_R_LUT1->GAM_R_GAIN_00[10:0]\000"
 9039      525F4C55 
 9039      54312D3E 
 9039      47414D5F 
 9039      525F4741 
 9040              	.LC491:
 9041 5324 47414D5F 		.ascii	"GAM_R_LUT1->GAM_R_GAIN_01[10:0]\000"
 9041      525F4C55 
 9041      54312D3E 
 9041      47414D5F 
 9041      525F4741 
 9042              	.LC492:
 9043 5344 47414D5F 		.ascii	"GAM_R_LUT2->GAM_R_GAIN_02[10:0]\000"
 9043      525F4C55 
 9043      54322D3E 
 9043      47414D5F 
 9043      525F4741 
 9044              	.LC493:
 9045 5364 47414D5F 		.ascii	"GAM_R_LUT2->GAM_R_GAIN_03[10:0]\000"
 9045      525F4C55 
 9045      54322D3E 
 9045      47414D5F 
 9045      525F4741 
 9046              	.LC494:
 9047 5384 47414D5F 		.ascii	"GAM_R_LUT3->GAM_R_GAIN_04[10:0]\000"
 9047      525F4C55 
 9047      54332D3E 
 9047      47414D5F 
 9047      525F4741 
 9048              	.LC495:
 9049 53a4 47414D5F 		.ascii	"GAM_R_LUT3->GAM_R_GAIN_05[10:0]\000"
 9049      525F4C55 
 9049      54332D3E 
 9049      47414D5F 
 9049      525F4741 
 9050              	.LC496:
 9051 53c4 47414D5F 		.ascii	"GAM_R_LUT4->GAM_R_GAIN_06[10:0]\000"
 9051      525F4C55 
 9051      54342D3E 
 9051      47414D5F 
 9051      525F4741 
 9052              	.LC497:
 9053 53e4 47414D5F 		.ascii	"GAM_R_LUT4->GAM_R_GAIN_07[10:0]\000"
 9053      525F4C55 
 9053      54342D3E 
 9053      47414D5F 
 9053      525F4741 
 9054              	.LC498:
 9055 5404 47414D5F 		.ascii	"GAM_R_LUT5->GAM_R_GAIN_08[10:0]\000"
 9055      525F4C55 
 9055      54352D3E 
 9055      47414D5F 
 9055      525F4741 
 9056              	.LC499:
 9057 5424 47414D5F 		.ascii	"GAM_R_LUT5->GAM_R_GAIN_09[10:0]\000"
 9057      525F4C55 
 9057      54352D3E 
 9057      47414D5F 
 9057      525F4741 
 9058              	.LC500:
 9059 5444 47414D5F 		.ascii	"GAM_R_LUT6->GAM_R_GAIN_10[10:0]\000"
 9059      525F4C55 
 9059      54362D3E 
 9059      47414D5F 
 9059      525F4741 
 9060              	.LC501:
 9061 5464 47414D5F 		.ascii	"GAM_R_LUT6->GAM_R_GAIN_11[10:0]\000"
 9061      525F4C55 
 9061      54362D3E 
 9061      47414D5F 
 9061      525F4741 
 9062              	.LC502:
 9063 5484 47414D5F 		.ascii	"GAM_R_LUT7->GAM_R_GAIN_12[10:0]\000"
 9063      525F4C55 
 9063      54372D3E 
 9063      47414D5F 
 9063      525F4741 
 9064              	.LC503:
 9065 54a4 47414D5F 		.ascii	"GAM_R_LUT7->GAM_R_GAIN_13[10:0]\000"
 9065      525F4C55 
 9065      54372D3E 
 9065      47414D5F 
 9065      525F4741 
 9066              	.LC504:
 9067 54c4 47414D5F 		.ascii	"GAM_R_LUT8->GAM_R_GAIN_14[10:0]\000"
 9067      525F4C55 
 9067      54382D3E 
 9067      47414D5F 
 9067      525F4741 
 9068              	.LC505:
 9069 54e4 47414D5F 		.ascii	"GAM_R_LUT8->GAM_R_GAIN_15[10:0]\000"
 9069      525F4C55 
 9069      54382D3E 
 9069      47414D5F 
 9069      525F4741 
 9070              	.LC506:
 9071 5504 47414D5F 		.ascii	"GAM_R_LUT9->GAM_R_GAIN_16[10:0]\000"
 9071      525F4C55 
 9071      54392D3E 
 9071      47414D5F 
 9071      525F4741 
 9072              	.LC507:
 9073 5524 47414D5F 		.ascii	"GAM_R_LUT9->GAM_R_GAIN_17[10:0]\000"
 9073      525F4C55 
 9073      54392D3E 
 9073      47414D5F 
 9073      525F4741 
 9074              	.LC508:
 9075 5544 47414D5F 		.ascii	"GAM_R_LUT10->GAM_R_GAIN_18[10:0]\000"
 9075      525F4C55 
 9075      5431302D 
 9075      3E47414D 
 9075      5F525F47 
 9076 5565 000000   		.space	3
 9077              	.LC509:
 9078 5568 47414D5F 		.ascii	"GAM_R_LUT10->GAM_R_GAIN_19[10:0]\000"
 9078      525F4C55 
 9078      5431302D 
 9078      3E47414D 
 9078      5F525F47 
 9079 5589 000000   		.space	3
 9080              	.LC510:
 9081 558c 47414D5F 		.ascii	"GAM_R_LUT11->GAM_R_GAIN_20[10:0]\000"
 9081      525F4C55 
 9081      5431312D 
 9081      3E47414D 
 9081      5F525F47 
 9082 55ad 000000   		.space	3
 9083              	.LC511:
 9084 55b0 47414D5F 		.ascii	"GAM_R_LUT11->GAM_R_GAIN_21[10:0]\000"
 9084      525F4C55 
 9084      5431312D 
 9084      3E47414D 
 9084      5F525F47 
 9085 55d1 000000   		.space	3
 9086              	.LC512:
 9087 55d4 47414D5F 		.ascii	"GAM_R_LUT12->GAM_R_GAIN_22[10:0]\000"
 9087      525F4C55 
 9087      5431322D 
 9087      3E47414D 
 9087      5F525F47 
 9088 55f5 000000   		.space	3
 9089              	.LC513:
 9090 55f8 47414D5F 		.ascii	"GAM_R_LUT12->GAM_R_GAIN_23[10:0]\000"
 9090      525F4C55 
 9090      5431322D 
 9090      3E47414D 
 9090      5F525F47 
 9091 5619 000000   		.space	3
 9092              	.LC514:
 9093 561c 47414D5F 		.ascii	"GAM_R_LUT13->GAM_R_GAIN_24[10:0]\000"
 9093      525F4C55 
 9093      5431332D 
 9093      3E47414D 
 9093      5F525F47 
 9094 563d 000000   		.space	3
 9095              	.LC515:
 9096 5640 47414D5F 		.ascii	"GAM_R_LUT13->GAM_R_GAIN_25[10:0]\000"
 9096      525F4C55 
 9096      5431332D 
 9096      3E47414D 
 9096      5F525F47 
 9097 5661 000000   		.space	3
 9098              	.LC516:
 9099 5664 47414D5F 		.ascii	"GAM_R_LUT14->GAM_R_GAIN_26[10:0]\000"
 9099      525F4C55 
 9099      5431342D 
 9099      3E47414D 
 9099      5F525F47 
 9100 5685 000000   		.space	3
 9101              	.LC517:
 9102 5688 47414D5F 		.ascii	"GAM_R_LUT14->GAM_R_GAIN_27[10:0]\000"
 9102      525F4C55 
 9102      5431342D 
 9102      3E47414D 
 9102      5F525F47 
 9103 56a9 000000   		.space	3
 9104              	.LC518:
 9105 56ac 47414D5F 		.ascii	"GAM_R_LUT15->GAM_R_GAIN_28[10:0]\000"
 9105      525F4C55 
 9105      5431352D 
 9105      3E47414D 
 9105      5F525F47 
 9106 56cd 000000   		.space	3
 9107              	.LC519:
 9108 56d0 47414D5F 		.ascii	"GAM_R_LUT15->GAM_R_GAIN_29[10:0]\000"
 9108      525F4C55 
 9108      5431352D 
 9108      3E47414D 
 9108      5F525F47 
 9109 56f1 000000   		.space	3
 9110              	.LC520:
 9111 56f4 47414D5F 		.ascii	"GAM_R_LUT16->GAM_R_GAIN_30[10:0]\000"
 9111      525F4C55 
 9111      5431362D 
 9111      3E47414D 
 9111      5F525F47 
 9112 5715 000000   		.space	3
 9113              	.LC521:
 9114 5718 47414D5F 		.ascii	"GAM_R_LUT16->GAM_R_GAIN_31[10:0]\000"
 9114      525F4C55 
 9114      5431362D 
 9114      3E47414D 
 9114      5F525F47 
 9115 5739 000000   		.space	3
 9116              	.LC522:
 9117 573c 41444A30 		.ascii	"ADJ0_ENH_SHP1->SHP_H_ON\000"
 9117      5F454E48 
 9117      5F534850 
 9117      312D3E53 
 9117      48505F48 
 9118              	.LC523:
 9119 5754 41444A30 		.ascii	"ADJ0_ENH_SHP1->SHP_H1_CORE[6:0]\000"
 9119      5F454E48 
 9119      5F534850 
 9119      312D3E53 
 9119      48505F48 
 9120              	.LC524:
 9121 5774 41444A30 		.ascii	"ADJ0_ENH_SHP2->SHP_H1_CLIP_O[7:0]\000"
 9121      5F454E48 
 9121      5F534850 
 9121      322D3E53 
 9121      48505F48 
 9122 5796 0000     		.space	2
 9123              	.LC525:
 9124 5798 41444A30 		.ascii	"ADJ0_ENH_SHP2->SHP_H1_CLIP_U[7:0]\000"
 9124      5F454E48 
 9124      5F534850 
 9124      322D3E53 
 9124      48505F48 
 9125 57ba 0000     		.space	2
 9126              	.LC526:
 9127 57bc 41444A30 		.ascii	"ADJ0_ENH_SHP2->SHP_H1_GAIN_O[7:0]\000"
 9127      5F454E48 
 9127      5F534850 
 9127      322D3E53 
 9127      48505F48 
 9128 57de 0000     		.space	2
 9129              	.LC527:
 9130 57e0 41444A30 		.ascii	"ADJ0_ENH_SHP2->SHP_H1_GAIN_U[7:0]\000"
 9130      5F454E48 
 9130      5F534850 
 9130      322D3E53 
 9130      48505F48 
 9131 5802 0000     		.space	2
 9132              	.LC528:
 9133 5804 41444A30 		.ascii	"ADJ0_ENH_SHP3->SHP_H2_LPF_SEL\000"
 9133      5F454E48 
 9133      5F534850 
 9133      332D3E53 
 9133      48505F48 
 9134 5822 0000     		.space	2
 9135              	.LC529:
 9136 5824 41444A30 		.ascii	"ADJ0_ENH_SHP3->SHP_H2_CORE[6:0]\000"
 9136      5F454E48 
 9136      5F534850 
 9136      332D3E53 
 9136      48505F48 
 9137              	.LC530:
 9138 5844 41444A30 		.ascii	"ADJ0_ENH_SHP4->SHP_H2_CLIP_O[7:0]\000"
 9138      5F454E48 
 9138      5F534850 
 9138      342D3E53 
 9138      48505F48 
 9139 5866 0000     		.space	2
 9140              	.LC531:
 9141 5868 41444A30 		.ascii	"ADJ0_ENH_SHP4->SHP_H2_CLIP_U[7:0]\000"
 9141      5F454E48 
 9141      5F534850 
 9141      342D3E53 
 9141      48505F48 
 9142 588a 0000     		.space	2
 9143              	.LC532:
 9144 588c 41444A30 		.ascii	"ADJ0_ENH_SHP4->SHP_H2_GAIN_O[7:0]\000"
 9144      5F454E48 
 9144      5F534850 
 9144      342D3E53 
 9144      48505F48 
 9145 58ae 0000     		.space	2
 9146              	.LC533:
 9147 58b0 41444A30 		.ascii	"ADJ0_ENH_SHP4->SHP_H2_GAIN_U[7:0]\000"
 9147      5F454E48 
 9147      5F534850 
 9147      342D3E53 
 9147      48505F48 
 9148 58d2 0000     		.space	2
 9149              	.LC534:
 9150 58d4 41444A30 		.ascii	"ADJ0_ENH_SHP5->SHP_H3_CORE[6:0]\000"
 9150      5F454E48 
 9150      5F534850 
 9150      352D3E53 
 9150      48505F48 
 9151              	.LC535:
 9152 58f4 41444A30 		.ascii	"ADJ0_ENH_SHP6->SHP_H3_CLIP_O[7:0]\000"
 9152      5F454E48 
 9152      5F534850 
 9152      362D3E53 
 9152      48505F48 
 9153 5916 0000     		.space	2
 9154              	.LC536:
 9155 5918 41444A30 		.ascii	"ADJ0_ENH_SHP6->SHP_H3_CLIP_U[7:0]\000"
 9155      5F454E48 
 9155      5F534850 
 9155      362D3E53 
 9155      48505F48 
 9156 593a 0000     		.space	2
 9157              	.LC537:
 9158 593c 41444A30 		.ascii	"ADJ0_ENH_SHP6->SHP_H3_GAIN_O[7:0]\000"
 9158      5F454E48 
 9158      5F534850 
 9158      362D3E53 
 9158      48505F48 
 9159 595e 0000     		.space	2
 9160              	.LC538:
 9161 5960 41444A30 		.ascii	"ADJ0_ENH_SHP6->SHP_H3_GAIN_U[7:0]\000"
 9161      5F454E48 
 9161      5F534850 
 9161      362D3E53 
 9161      48505F48 
 9162 5982 0000     		.space	2
 9163              	.LC539:
 9164 5984 41444A30 		.ascii	"ADJ0_ENH_LTI1->LTI_H_ON\000"
 9164      5F454E48 
 9164      5F4C5449 
 9164      312D3E4C 
 9164      54495F48 
 9165              	.LC540:
 9166 599c 41444A30 		.ascii	"ADJ0_ENH_LTI1->LTI_H2_LPF_SEL\000"
 9166      5F454E48 
 9166      5F4C5449 
 9166      312D3E4C 
 9166      54495F48 
 9167 59ba 0000     		.space	2
 9168              	.LC541:
 9169 59bc 41444A30 		.ascii	"ADJ0_ENH_LTI1->LTI_H2_INC_ZERO[7:0]\000"
 9169      5F454E48 
 9169      5F4C5449 
 9169      312D3E4C 
 9169      54495F48 
 9170              	.LC542:
 9171 59e0 41444A30 		.ascii	"ADJ0_ENH_LTI1->LTI_H2_GAIN[7:0]\000"
 9171      5F454E48 
 9171      5F4C5449 
 9171      312D3E4C 
 9171      54495F48 
 9172              	.LC543:
 9173 5a00 41444A30 		.ascii	"ADJ0_ENH_LTI1->LTI_H2_CORE[7:0]\000"
 9173      5F454E48 
 9173      5F4C5449 
 9173      312D3E4C 
 9173      54495F48 
 9174              	.LC544:
 9175 5a20 41444A30 		.ascii	"ADJ0_ENH_LTI2->LTI_H4_MEDIAN_TAP_SEL\000"
 9175      5F454E48 
 9175      5F4C5449 
 9175      322D3E4C 
 9175      54495F48 
 9176 5a45 000000   		.space	3
 9177              	.LC545:
 9178 5a48 41444A30 		.ascii	"ADJ0_ENH_LTI2->LTI_H4_INC_ZERO[7:0]\000"
 9178      5F454E48 
 9178      5F4C5449 
 9178      322D3E4C 
 9178      54495F48 
 9179              	.LC546:
 9180 5a6c 41444A30 		.ascii	"ADJ0_ENH_LTI2->LTI_H4_GAIN[7:0]\000"
 9180      5F454E48 
 9180      5F4C5449 
 9180      322D3E4C 
 9180      54495F48 
 9181              	.LC547:
 9182 5a8c 41444A30 		.ascii	"ADJ0_ENH_LTI2->LTI_H4_CORE[7:0]\000"
 9182      5F454E48 
 9182      5F4C5449 
 9182      322D3E4C 
 9182      54495F48 
 9183              	.LC548:
 9184 5aac 4F55545F 		.ascii	"OUT_CONTRAST->CONT_G[7:0]\000"
 9184      434F4E54 
 9184      52415354 
 9184      2D3E434F 
 9184      4E545F47 
 9185 5ac6 0000     		.space	2
 9186              	.LC549:
 9187 5ac8 4F55545F 		.ascii	"OUT_CONTRAST->CONT_B[7:0]\000"
 9187      434F4E54 
 9187      52415354 
 9187      2D3E434F 
 9187      4E545F42 
 9188 5ae2 0000     		.space	2
 9189              	.LC550:
 9190 5ae4 4F55545F 		.ascii	"OUT_CONTRAST->CONT_R[7:0]\000"
 9190      434F4E54 
 9190      52415354 
 9190      2D3E434F 
 9190      4E545F52 
 9191 5afe 0000     		.space	2
 9192              	.LC551:
 9193 5b00 494D4743 		.ascii	"IMGCNT_MTX_YG_ADJ0->IMGCNT_MTX_GG[10:0]\000"
 9193      4E545F4D 
 9193      54585F59 
 9193      475F4144 
 9193      4A302D3E 
 9194              	.LC552:
 9195 5b28 4F55545F 		.ascii	"OUT_BRIGHT1->PBRT_G[9:0]\000"
 9195      42524947 
 9195      4854312D 
 9195      3E504252 
 9195      545F475B 
 9196 5b41 000000   		.space	3
 9197              	.LC553:
 9198 5b44 4F55545F 		.ascii	"OUT_BRIGHT2->PBRT_B[9:0]\000"
 9198      42524947 
 9198      4854322D 
 9198      3E504252 
 9198      545F425B 
 9199 5b5d 000000   		.space	3
 9200              	.LC554:
 9201 5b60 4F55545F 		.ascii	"OUT_BRIGHT2->PBRT_R[9:0]\000"
 9201      42524947 
 9201      4854322D 
 9201      3E504252 
 9201      545F525B 
 9202 5b79 000000   		.space	3
 9203              	.LC555:
 9204 5b7c 494D4743 		.ascii	"IMGCNT_MTX_YG_ADJ0->IMGCNT_MTX_YG[7:0]\000"
 9204      4E545F4D 
 9204      54585F59 
 9204      475F4144 
 9204      4A302D3E 
 9205 5ba3 00       		.space	1
 9206              	.LC556:
 9207 5ba4 5644435F 		.ascii	"VDC_PDTH_MD_TRU\000"
 9207      50445448 
 9207      5F4D445F 
 9207      54525500 
 9208              	.LC557:
 9209 5bb4 5644435F 		.ascii	"VDC_PDTH_MD_RDOF\000"
 9209      50445448 
 9209      5F4D445F 
 9209      52444F46 
 9209      00
 9210 5bc5 000000   		.space	3
 9211              	.LC558:
 9212 5bc8 5644435F 		.ascii	"VDC_PDTH_MD_2X2\000"
 9212      50445448 
 9212      5F4D445F 
 9212      32583200 
 9213              	.LC559:
 9214 5bd8 5644435F 		.ascii	"VDC_PDTH_MD_RAND\000"
 9214      50445448 
 9214      5F4D445F 
 9214      52414E44 
 9214      00
 9215 5be9 000000   		.space	3
 9216              	.LC560:
 9217 5bec 5644435F 		.ascii	"VDC_LTI_MDFIL_SEL_ADJ2\000"
 9217      4C54495F 
 9217      4D444649 
 9217      4C5F5345 
 9217      4C5F4144 
 9218 5c03 00       		.space	1
 9219              	.LC561:
 9220 5c04 5644435F 		.ascii	"VDC_LTI_MDFIL_SEL_ADJ1\000"
 9220      4C54495F 
 9220      4D444649 
 9220      4C5F5345 
 9220      4C5F4144 
 9221 5c1b 00       		.space	1
 9222              	.LC562:
 9223 5c1c 5644435F 		.ascii	"VDC_OFF\000"
 9223      4F464600 
 9224              	.LC563:
 9225 5c24 5644435F 		.ascii	"VDC_ON\000"
 9225      4F4E00
 9226 5c2b 00       		.space	1
 9227              	.LC564:
 9228 5c2c 4E4F5420 		.ascii	"NOT SUPPORT\000"
 9228      53555050 
 9228      4F525400 
 9229              	.LC565:
 9230 5c38 5644435F 		.ascii	"VDC_COLORMTX_YCBCR_GBR\000"
 9230      434F4C4F 
 9230      524D5458 
 9230      5F594342 
 9230      43525F47 
 9231 5c4f 00       		.space	1
 9232              	.LC566:
 9233 5c50 5644435F 		.ascii	"VDC_COLORMTX_YCBCR_YCBCR\000"
 9233      434F4C4F 
 9233      524D5458 
 9233      5F594342 
 9233      43525F59 
 9234 5c69 000000   		.space	3
 9235              	.LC567:
 9236 5c6c 486F7269 		.ascii	"Horizontal Mirroring  ON\000"
 9236      7A6F6E74 
 9236      616C204D 
 9236      6972726F 
 9236      72696E67 
 9237 5c85 000000   		.space	3
 9238              	.LC568:
 9239 5c88 526F7461 		.ascii	"Rotation(180 Degrees)\000"
 9239      74696F6E 
 9239      28313830 
 9239      20446567 
 9239      72656573 
 9240 5c9e 0000     		.space	2
 9241              	.LC569:
 9242 5ca0 44656661 		.ascii	"Default(Hardware Initial Value Refer to the Hardwar"
 9242      756C7428 
 9242      48617264 
 9242      77617265 
 9242      20496E69 
 9243 5cd3 65204D61 		.ascii	"e Manual)\000"
 9243      6E75616C 
 9243      2900
 9244 5cdd 000000   		.space	3
 9245              	.LC570:
 9246 5ce0 43757374 		.ascii	"Custom\000"
 9246      6F6D00
 9247 5ce7 00       		.space	1
 9248              	.LC571:
 9249 5ce8 4375746F 		.ascii	"Cutoff\000"
 9249      666600
 9250 5cef 00       		.space	1
 9251              	.LC572:
 9252 5cf0 526F756E 		.ascii	"Round off\000"
 9252      64206F66 
 9252      6600
 9253 5cfa 0000     		.space	2
 9254              	.LC573:
 9255 5cfc 32783220 		.ascii	"2x2 Pattern Dither\000"
 9255      50617474 
 9255      65726E20 
 9255      44697468 
 9255      657200
 9256 5d0f 00       		.space	1
 9257              	.LC574:
 9258 5d10 52616E64 		.ascii	"Random Pattern Dither\000"
 9258      6F6D2050 
 9258      61747465 
 9258      726E2044 
 9258      69746865 
 9259 5d26 0000     		.space	2
 9260              	.LC575:
 9261 5d28 44656661 		.ascii	"Default(Cutoff)\000"
 9261      756C7428 
 9261      4375746F 
 9261      66662900 
 9262              	.LC576:
 9263 5d38 50617474 		.ascii	"Pattern0\000"
 9263      65726E30 
 9263      00
 9264 5d41 000000   		.space	3
 9265              	.LC577:
 9266 5d44 50617474 		.ascii	"Pattern1\000"
 9266      65726E31 
 9266      00
 9267 5d4d 000000   		.space	3
 9268              	.LC578:
 9269 5d50 50617474 		.ascii	"Pattern2\000"
 9269      65726E32 
 9269      00
 9270 5d59 000000   		.space	3
 9271              	.LC579:
 9272 5d5c 50617474 		.ascii	"Pattern3\000"
 9272      65726E33 
 9272      00
 9273 5d65 000000   		.space	3
 9274              	.LC580:
 9275 5d68 44656661 		.ascii	"Default(Gamma correction Off)\000"
 9275      756C7428 
 9275      47616D6D 
 9275      6120636F 
 9275      72726563 
 9276 5d86 0000     		.space	2
 9277              	.LC581:
 9278 5d88 5374726F 		.ascii	"Strong Sharpness\000"
 9278      6E672053 
 9278      68617270 
 9278      6E657373 
 9278      00
 9279 5d99 000000   		.space	3
 9280              	.LC582:
 9281 5d9c 53656D69 		.ascii	"Semi-Strong Sharpness\000"
 9281      2D537472 
 9281      6F6E6720 
 9281      53686172 
 9281      706E6573 
 9282 5db2 0000     		.space	2
 9283              	.LC583:
 9284 5db4 5765616B 		.ascii	"Weak Sharpness\000"
 9284      20536861 
 9284      72706E65 
 9284      737300
 9285 5dc3 00       		.space	1
 9286              	.LC584:
 9287 5dc4 44656661 		.ascii	"Default(Sharpness  OFF)\000"
 9287      756C7428 
 9287      53686172 
 9287      706E6573 
 9287      7320204F 
 9288              	.LC585:
 9289 5ddc 48696768 		.ascii	"High\000"
 9289      00
 9290 5de1 000000   		.space	3
 9291              	.LC586:
 9292 5de4 4D696464 		.ascii	"Middle\000"
 9292      6C6500
 9293 5deb 00       		.space	1
 9294              	.LC587:
 9295 5dec 4C6F7700 		.ascii	"Low\000"
 9296              	.LC588:
 9297 5df0 496E7075 		.ascii	"Input controller\000"
 9297      7420636F 
 9297      6E74726F 
 9297      6C6C6572 
 9297      00
 9298 5e01 000000   		.space	3
 9299              	.LC589:
 9300 5e04 4F757470 		.ascii	"Output controller\000"
 9300      75742063 
 9300      6F6E7472 
 9300      6F6C6C65 
 9300      7200
 9301 5e16 0000     		.space	2
 9302              	.LC590:
 9303 5e18 42726967 		.ascii	"Brightness\000"
 9303      68746E65 
 9303      737300
 9304 5e23 00       		.space	1
 9305              	.LC591:
 9306 5e24 436F6E74 		.ascii	"Contrast\000"
 9306      72617374 
 9306      00
 9307 5e2d 000000   		.space	3
 9308              	.LC592:
 9309 5e30 53686172 		.ascii	"Sharpness\000"
 9309      706E6573 
 9309      7300
 9310 5e3a 0000     		.space	2
 9311              	.LC593:
 9312 5e3c 47616D6D 		.ascii	"Gamma Correction\000"
 9312      6120436F 
 9312      72726563 
 9312      74696F6E 
 9312      00
 9313 5e4d 000000   		.space	3
 9314              	.LC594:
 9315 5e50 44697468 		.ascii	"Dither process\000"
 9315      65722070 
 9315      726F6365 
 9315      737300
 9316 5e5f 00       		.space	1
 9317              	.LC595:
 9318 5e60 486F7269 		.ascii	"Horizontal Mirroring and Rotation\000"
 9318      7A6F6E74 
 9318      616C204D 
 9318      6972726F 
 9318      72696E67 
 9319              		.text
 9320              	.Letext0:
 9321              		.file 3 "c:\\program files (x86)\\gnu tools arm embedded\\6 2017-q2-update\\arm-none-eabi\\include
 9322              		.file 4 "c:\\program files (x86)\\gnu tools arm embedded\\6 2017-q2-update\\arm-none-eabi\\include
 9323              		.file 5 "c:\\program files (x86)\\gnu tools arm embedded\\6 2017-q2-update\\arm-none-eabi\\include
 9324              		.file 6 "c:\\program files (x86)\\gnu tools arm embedded\\6 2017-q2-update\\lib\\gcc\\arm-none-eab
 9325              		.file 7 "c:\\program files (x86)\\gnu tools arm embedded\\6 2017-q2-update\\arm-none-eabi\\include
 9326              		.file 8 "c:\\program files (x86)\\gnu tools arm embedded\\6 2017-q2-update\\arm-none-eabi\\include
 9327              		.file 9 "c:\\program files (x86)\\gnu tools arm embedded\\6 2017-q2-update\\arm-none-eabi\\include
 9328              		.file 10 "C:/Users/tle/e2_studio/workspace/rza2m_cam_and_disp_sample_freertos_gcc/generate/system/
 9329              		.file 11 "c:\\program files (x86)\\gnu tools arm embedded\\6 2017-q2-update\\arm-none-eabi\\includ
 9330              		.file 12 "C:/Users/tle/e2_studio/workspace/rza2m_cam_and_disp_sample_freertos_gcc/generate/system/
 9331              		.file 13 "<built-in>"
 9332              		.file 14 "C:/Users/tle/e2_studio/workspace/rza2m_cam_and_disp_sample_freertos_gcc/generate/os_abst
 9333              		.file 15 "C:/Users/tle/e2_studio/workspace/rza2m_cam_and_disp_sample_freertos_gcc/generate/os_abst
DEFINED SYMBOLS
                            *ABS*:00000000 r_cui_image_adjust.c
C:\Users\tle\AppData\Local\Temp\cc7r39jA.s:17     .text.cui_menu_index_get:00000000 $a
C:\Users\tle\AppData\Local\Temp\cc7r39jA.s:22     .text.cui_menu_index_get:00000000 cui_menu_index_get
C:\Users\tle\AppData\Local\Temp\cc7r39jA.s:2858   .rodata.current_menu:00000000 .LANCHOR0
C:\Users\tle\AppData\Local\Temp\cc7r39jA.s:2635   .bss.gs_cur_status:00000000 .LANCHOR1
C:\Users\tle\AppData\Local\Temp\cc7r39jA.s:85     .text.cui_local_init:00000000 $a
C:\Users\tle\AppData\Local\Temp\cc7r39jA.s:90     .text.cui_local_init:00000000 cui_local_init
C:\Users\tle\AppData\Local\Temp\cc7r39jA.s:2628   .bss.gs_cur_index:00000000 .LANCHOR2
C:\Users\tle\AppData\Local\Temp\cc7r39jA.s:2642   .bss.gs_key_input_data:00000000 .LANCHOR3
C:\Users\tle\AppData\Local\Temp\cc7r39jA.s:2649   .bss.gs_preset_value:00000000 .LANCHOR4
C:\Users\tle\AppData\Local\Temp\cc7r39jA.s:291    .text.cui_get_target_bit_value:00000000 $a
C:\Users\tle\AppData\Local\Temp\cc7r39jA.s:296    .text.cui_get_target_bit_value:00000000 cui_get_target_bit_value
C:\Users\tle\AppData\Local\Temp\cc7r39jA.s:350    .text.cui_input_judge:00000000 $a
C:\Users\tle\AppData\Local\Temp\cc7r39jA.s:355    .text.cui_input_judge:00000000 cui_input_judge
C:\Users\tle\AppData\Local\Temp\cc7r39jA.s:373    .text.cui_input_judge:0000001c $d
C:\Users\tle\AppData\Local\Temp\cc7r39jA.s:449    .text.cui_input_judge:0000013c $a
C:\Users\tle\AppData\Local\Temp\cc7r39jA.s:545    .text.cui_conv_num_to_char:00000000 $a
C:\Users\tle\AppData\Local\Temp\cc7r39jA.s:550    .text.cui_conv_num_to_char:00000000 cui_conv_num_to_char
C:\Users\tle\AppData\Local\Temp\cc7r39jA.s:651    .text.cui_conv_char_to_num:00000000 $a
C:\Users\tle\AppData\Local\Temp\cc7r39jA.s:656    .text.cui_conv_char_to_num:00000000 cui_conv_char_to_num
C:\Users\tle\AppData\Local\Temp\cc7r39jA.s:759    .text.cui_registerset:00000000 $a
C:\Users\tle\AppData\Local\Temp\cc7r39jA.s:764    .text.cui_registerset:00000000 cui_registerset
C:\Users\tle\AppData\Local\Temp\cc7r39jA.s:787    .text.cui_set_update_register:00000000 $a
C:\Users\tle\AppData\Local\Temp\cc7r39jA.s:792    .text.cui_set_update_register:00000000 cui_set_update_register
C:\Users\tle\AppData\Local\Temp\cc7r39jA.s:7618   .rodata.gs_update_reg:00000000 .LANCHOR5
C:\Users\tle\AppData\Local\Temp\cc7r39jA.s:2843   .rodata.cui_set_update_register.str1.4:00000000 .LC0
C:\Users\tle\AppData\Local\Temp\cc7r39jA.s:838    .text.cui_menu_disp_title:00000000 $a
C:\Users\tle\AppData\Local\Temp\cc7r39jA.s:843    .text.cui_menu_disp_title:00000000 cui_menu_disp_title
C:\Users\tle\AppData\Local\Temp\cc7r39jA.s:2821   .rodata.cui_menu_disp_title.str1.4:00000000 .LC1
C:\Users\tle\AppData\Local\Temp\cc7r39jA.s:2824   .rodata.cui_menu_disp_title.str1.4:00000004 .LC2
C:\Users\tle\AppData\Local\Temp\cc7r39jA.s:2827   .rodata.cui_menu_disp_title.str1.4:00000030 .LC3
C:\Users\tle\AppData\Local\Temp\cc7r39jA.s:2830   .rodata.cui_menu_disp_title.str1.4:00000038 .LC4
C:\Users\tle\AppData\Local\Temp\cc7r39jA.s:2833   .rodata.cui_menu_disp_title.str1.4:00000050 .LC5
C:\Users\tle\AppData\Local\Temp\cc7r39jA.s:2835   .rodata.cui_menu_disp_title.str1.4:00000058 .LC6
C:\Users\tle\AppData\Local\Temp\cc7r39jA.s:959    .text.cui_menu_disp_explanation:00000000 $a
C:\Users\tle\AppData\Local\Temp\cc7r39jA.s:964    .text.cui_menu_disp_explanation:00000000 cui_menu_disp_explanation
C:\Users\tle\AppData\Local\Temp\cc7r39jA.s:2780   .rodata.cui_menu_disp_explanation.str1.4:00000000 .LC7
C:\Users\tle\AppData\Local\Temp\cc7r39jA.s:2784   .rodata.cui_menu_disp_explanation.str1.4:00000054 .LC8
C:\Users\tle\AppData\Local\Temp\cc7r39jA.s:2786   .rodata.cui_menu_disp_explanation.str1.4:0000007c .LC9
C:\Users\tle\AppData\Local\Temp\cc7r39jA.s:2789   .rodata.cui_menu_disp_explanation.str1.4:000000b4 .LC10
C:\Users\tle\AppData\Local\Temp\cc7r39jA.s:2792   .rodata.cui_menu_disp_explanation.str1.4:000000c4 .LC11
C:\Users\tle\AppData\Local\Temp\cc7r39jA.s:2795   .rodata.cui_menu_disp_explanation.str1.4:000000dc .LC12
C:\Users\tle\AppData\Local\Temp\cc7r39jA.s:2799   .rodata.cui_menu_disp_explanation.str1.4:00000120 .LC13
C:\Users\tle\AppData\Local\Temp\cc7r39jA.s:2803   .rodata.cui_menu_disp_explanation.str1.4:00000180 .LC14
C:\Users\tle\AppData\Local\Temp\cc7r39jA.s:2806   .rodata.cui_menu_disp_explanation.str1.4:000001d8 .LC15
C:\Users\tle\AppData\Local\Temp\cc7r39jA.s:2809   .rodata.cui_menu_disp_explanation.str1.4:00000218 .LC16
C:\Users\tle\AppData\Local\Temp\cc7r39jA.s:2812   .rodata.cui_menu_disp_explanation.str1.4:00000224 .LC17
C:\Users\tle\AppData\Local\Temp\cc7r39jA.s:2815   .rodata.cui_menu_disp_explanation.str1.4:00000230 .LC18
C:\Users\tle\AppData\Local\Temp\cc7r39jA.s:2817   .rodata.cui_menu_disp_explanation.str1.4:0000023c .LC19
C:\Users\tle\AppData\Local\Temp\cc7r39jA.s:1226   .text.cui_menu_disp:00000000 $a
C:\Users\tle\AppData\Local\Temp\cc7r39jA.s:1231   .text.cui_menu_disp:00000000 cui_menu_disp
C:\Users\tle\AppData\Local\Temp\cc7r39jA.s:2767   .rodata.cui_menu_disp.str1.4:00000000 .LC20
C:\Users\tle\AppData\Local\Temp\cc7r39jA.s:2773   .rodata.cui_menu_disp.str1.4:00000050 .LC22
C:\Users\tle\AppData\Local\Temp\cc7r39jA.s:2776   .rodata.cui_menu_disp.str1.4:00000068 .LC23
C:\Users\tle\AppData\Local\Temp\cc7r39jA.s:2770   .rodata.cui_menu_disp.str1.4:00000034 .LC21
C:\Users\tle\AppData\Local\Temp\cc7r39jA.s:1292   .text.cui_state_transition:00000000 $a
C:\Users\tle\AppData\Local\Temp\cc7r39jA.s:1297   .text.cui_state_transition:00000000 cui_state_transition
C:\Users\tle\AppData\Local\Temp\cc7r39jA.s:1326   .text.cui_state_transition:0000002c $d
C:\Users\tle\AppData\Local\Temp\cc7r39jA.s:1400   .text.cui_state_transition:0000014c $a
C:\Users\tle\AppData\Local\Temp\cc7r39jA.s:3292   .rodata.gs_allparam:00000000 .LANCHOR6
C:\Users\tle\AppData\Local\Temp\cc7r39jA.s:2847   .rodata.cui_state_transition.str1.4:00000000 .LC24
C:\Users\tle\AppData\Local\Temp\cc7r39jA.s:2850   .rodata.cui_state_transition.str1.4:00000004 .LC25
C:\Users\tle\AppData\Local\Temp\cc7r39jA.s:2112   .text.cui_serial_input:00000000 $a
C:\Users\tle\AppData\Local\Temp\cc7r39jA.s:2117   .text.cui_serial_input:00000000 cui_serial_input
C:\Users\tle\AppData\Local\Temp\cc7r39jA.s:2839   .rodata.cui_serial_input.str1.4:00000000 .LC26
C:\Users\tle\AppData\Local\Temp\cc7r39jA.s:2472   .text.cui_task:00000000 $a
C:\Users\tle\AppData\Local\Temp\cc7r39jA.s:2478   .text.cui_task:00000000 cui_task
C:\Users\tle\AppData\Local\Temp\cc7r39jA.s:2854   .rodata.cui_task.str1.4:00000000 .LC27
C:\Users\tle\AppData\Local\Temp\cc7r39jA.s:2568   .text.CreateCuiTask:00000000 $a
C:\Users\tle\AppData\Local\Temp\cc7r39jA.s:2574   .text.CreateCuiTask:00000000 CreateCuiTask
C:\Users\tle\AppData\Local\Temp\cc7r39jA.s:2756   .rodata.CreateCuiTask.str1.4:00000000 .LC28
C:\Users\tle\AppData\Local\Temp\cc7r39jA.s:2759   .rodata.CreateCuiTask.str1.4:00000024 .LC29
C:\Users\tle\AppData\Local\Temp\cc7r39jA.s:2762   .rodata.CreateCuiTask.str1.4:00000030 .LC30
C:\Users\tle\AppData\Local\Temp\cc7r39jA.s:2627   .bss.gs_cur_index:00000000 $d
C:\Users\tle\AppData\Local\Temp\cc7r39jA.s:2631   .bss.gs_cur_index:00000000 gs_cur_index
C:\Users\tle\AppData\Local\Temp\cc7r39jA.s:2634   .bss.gs_cur_status:00000000 $d
C:\Users\tle\AppData\Local\Temp\cc7r39jA.s:2638   .bss.gs_cur_status:00000000 gs_cur_status
C:\Users\tle\AppData\Local\Temp\cc7r39jA.s:2641   .bss.gs_key_input_data:00000000 $d
C:\Users\tle\AppData\Local\Temp\cc7r39jA.s:2645   .bss.gs_key_input_data:00000000 gs_key_input_data
C:\Users\tle\AppData\Local\Temp\cc7r39jA.s:2648   .bss.gs_preset_value:00000000 $d
C:\Users\tle\AppData\Local\Temp\cc7r39jA.s:2652   .bss.gs_preset_value:00000000 gs_preset_value
C:\Users\tle\AppData\Local\Temp\cc7r39jA.s:2655   .data.gsp_bright_input_mode_list:00000000 $d
C:\Users\tle\AppData\Local\Temp\cc7r39jA.s:2658   .data.gsp_bright_input_mode_list:00000000 gsp_bright_input_mode_list
C:\Users\tle\AppData\Local\Temp\cc7r39jA.s:2664   .data.gsp_controller_select_list:00000000 $d
C:\Users\tle\AppData\Local\Temp\cc7r39jA.s:2667   .data.gsp_controller_select_list:00000000 gsp_controller_select_list
C:\Users\tle\AppData\Local\Temp\cc7r39jA.s:2671   .data.gsp_dither_mode_list:00000000 $d
C:\Users\tle\AppData\Local\Temp\cc7r39jA.s:2674   .data.gsp_dither_mode_list:00000000 gsp_dither_mode_list
C:\Users\tle\AppData\Local\Temp\cc7r39jA.s:2680   .data.gsp_dither_select_list:00000000 $d
C:\Users\tle\AppData\Local\Temp\cc7r39jA.s:2683   .data.gsp_dither_select_list:00000000 gsp_dither_select_list
C:\Users\tle\AppData\Local\Temp\cc7r39jA.s:2690   .data.gsp_function_on_off_list:00000000 $d
C:\Users\tle\AppData\Local\Temp\cc7r39jA.s:2693   .data.gsp_function_on_off_list:00000000 gsp_function_on_off_list
C:\Users\tle\AppData\Local\Temp\cc7r39jA.s:2697   .data.gsp_gamma_select_list:00000000 $d
C:\Users\tle\AppData\Local\Temp\cc7r39jA.s:2700   .data.gsp_gamma_select_list:00000000 gsp_gamma_select_list
C:\Users\tle\AppData\Local\Temp\cc7r39jA.s:2708   .data.gsp_hml_select_list:00000000 $d
C:\Users\tle\AppData\Local\Temp\cc7r39jA.s:2711   .data.gsp_hml_select_list:00000000 gsp_hml_select_list
C:\Users\tle\AppData\Local\Temp\cc7r39jA.s:2718   .data.gsp_median_tap_sel_list:00000000 $d
C:\Users\tle\AppData\Local\Temp\cc7r39jA.s:2721   .data.gsp_median_tap_sel_list:00000000 gsp_median_tap_sel_list
C:\Users\tle\AppData\Local\Temp\cc7r39jA.s:2725   .data.gsp_rotation_select_list:00000000 $d
C:\Users\tle\AppData\Local\Temp\cc7r39jA.s:2728   .data.gsp_rotation_select_list:00000000 gsp_rotation_select_list
C:\Users\tle\AppData\Local\Temp\cc7r39jA.s:2734   .data.gsp_sharp_select_list:00000000 $d
C:\Users\tle\AppData\Local\Temp\cc7r39jA.s:2737   .data.gsp_sharp_select_list:00000000 gsp_sharp_select_list
C:\Users\tle\AppData\Local\Temp\cc7r39jA.s:2744   .data.gsp_top_select_list:00000000 $d
C:\Users\tle\AppData\Local\Temp\cc7r39jA.s:2747   .data.gsp_top_select_list:00000000 gsp_top_select_list
C:\Users\tle\AppData\Local\Temp\cc7r39jA.s:2755   .rodata.CreateCuiTask.str1.4:00000000 $d
C:\Users\tle\AppData\Local\Temp\cc7r39jA.s:2766   .rodata.cui_menu_disp.str1.4:00000000 $d
C:\Users\tle\AppData\Local\Temp\cc7r39jA.s:2779   .rodata.cui_menu_disp_explanation.str1.4:00000000 $d
C:\Users\tle\AppData\Local\Temp\cc7r39jA.s:2820   .rodata.cui_menu_disp_title.str1.4:00000000 $d
C:\Users\tle\AppData\Local\Temp\cc7r39jA.s:2838   .rodata.cui_serial_input.str1.4:00000000 $d
C:\Users\tle\AppData\Local\Temp\cc7r39jA.s:2842   .rodata.cui_set_update_register.str1.4:00000000 $d
C:\Users\tle\AppData\Local\Temp\cc7r39jA.s:2846   .rodata.cui_state_transition.str1.4:00000000 $d
C:\Users\tle\AppData\Local\Temp\cc7r39jA.s:2853   .rodata.cui_task.str1.4:00000000 $d
C:\Users\tle\AppData\Local\Temp\cc7r39jA.s:2857   .rodata.current_menu:00000000 $d
C:\Users\tle\AppData\Local\Temp\cc7r39jA.s:2861   .rodata.current_menu:00000000 current_menu
C:\Users\tle\AppData\Local\Temp\cc7r39jA.s:7614   .rodata.gs_top_content:00000000 gs_top_content
C:\Users\tle\AppData\Local\Temp\cc7r39jA.s:4821   .rodata.gs_explanation_top_br_co:00000000 gs_explanation_top_br_co
C:\Users\tle\AppData\Local\Temp\cc7r39jA.s:4760   .rodata.gs_bright_content:00000000 gs_bright_content
C:\Users\tle\AppData\Local\Temp\cc7r39jA.s:4766   .rodata.gs_bright_in_content:00000000 gs_bright_in_content
C:\Users\tle\AppData\Local\Temp\cc7r39jA.s:4815   .rodata.gs_explanation_preset:00000000 gs_explanation_preset
C:\Users\tle\AppData\Local\Temp\cc7r39jA.s:4833   .rodata.gs_reg_bright_in:00000000 gs_reg_bright_in
C:\Users\tle\AppData\Local\Temp\cc7r39jA.s:4772   .rodata.gs_bright_out_content:00000000 gs_bright_out_content
C:\Users\tle\AppData\Local\Temp\cc7r39jA.s:4850   .rodata.gs_reg_bright_out:00000000 gs_reg_bright_out
C:\Users\tle\AppData\Local\Temp\cc7r39jA.s:3282   .rodata.gs_all_custom:00000000 gs_all_custom
C:\Users\tle\AppData\Local\Temp\cc7r39jA.s:4809   .rodata.gs_explanation_customreg:00000000 gs_explanation_customreg
C:\Users\tle\AppData\Local\Temp\cc7r39jA.s:3288   .rodata.gs_all_custom_reg:00000000 gs_all_custom_reg
C:\Users\tle\AppData\Local\Temp\cc7r39jA.s:4802   .rodata.gs_explanation_custom:00000000 gs_explanation_custom
C:\Users\tle\AppData\Local\Temp\cc7r39jA.s:4778   .rodata.gs_contra_content:00000000 gs_contra_content
C:\Users\tle\AppData\Local\Temp\cc7r39jA.s:4784   .rodata.gs_contra_in_content:00000000 gs_contra_in_content
C:\Users\tle\AppData\Local\Temp\cc7r39jA.s:4891   .rodata.gs_reg_cont_in:00000000 gs_reg_cont_in
C:\Users\tle\AppData\Local\Temp\cc7r39jA.s:4790   .rodata.gs_contra_out_content:00000000 gs_contra_out_content
C:\Users\tle\AppData\Local\Temp\cc7r39jA.s:4908   .rodata.gs_reg_cont_out:00000000 gs_reg_cont_out
C:\Users\tle\AppData\Local\Temp\cc7r39jA.s:7608   .rodata.gs_sharp_content:00000000 gs_sharp_content
C:\Users\tle\AppData\Local\Temp\cc7r39jA.s:7285   .rodata.gs_reg_sharpness:00000000 gs_reg_sharpness
C:\Users\tle\AppData\Local\Temp\cc7r39jA.s:4827   .rodata.gs_gamma_content:00000000 gs_gamma_content
C:\Users\tle\AppData\Local\Temp\cc7r39jA.s:4966   .rodata.gs_reg_gamma:00000000 gs_reg_gamma
C:\Users\tle\AppData\Local\Temp\cc7r39jA.s:4796   .rodata.gs_dither_content:00000000 gs_dither_content
C:\Users\tle\AppData\Local\Temp\cc7r39jA.s:4949   .rodata.gs_reg_dither:00000000 gs_reg_dither
C:\Users\tle\AppData\Local\Temp\cc7r39jA.s:7602   .rodata.gs_rotation_content:00000000 gs_rotation_content
C:\Users\tle\AppData\Local\Temp\cc7r39jA.s:7268   .rodata.gs_reg_rotation:00000000 gs_reg_rotation
C:\Users\tle\AppData\Local\Temp\cc7r39jA.s:3279   .rodata.gs_all_custom:00000000 $d
C:\Users\tle\AppData\Local\Temp\cc7r39jA.s:3285   .rodata.gs_all_custom_reg:00000000 $d
C:\Users\tle\AppData\Local\Temp\cc7r39jA.s:3291   .rodata.gs_allparam:00000000 $d
C:\Users\tle\AppData\Local\Temp\cc7r39jA.s:3295   .rodata.gs_allparam:00000000 gs_allparam
C:\Users\tle\AppData\Local\Temp\cc7r39jA.s:7251   .rodata.gs_reg_input_mtx_mode:00000000 gs_reg_input_mtx_mode
C:\Users\tle\AppData\Local\Temp\cc7r39jA.s:4757   .rodata.gs_bright_content:00000000 $d
C:\Users\tle\AppData\Local\Temp\cc7r39jA.s:4763   .rodata.gs_bright_in_content:00000000 $d
C:\Users\tle\AppData\Local\Temp\cc7r39jA.s:4769   .rodata.gs_bright_out_content:00000000 $d
C:\Users\tle\AppData\Local\Temp\cc7r39jA.s:4775   .rodata.gs_contra_content:00000000 $d
C:\Users\tle\AppData\Local\Temp\cc7r39jA.s:4781   .rodata.gs_contra_in_content:00000000 $d
C:\Users\tle\AppData\Local\Temp\cc7r39jA.s:4787   .rodata.gs_contra_out_content:00000000 $d
C:\Users\tle\AppData\Local\Temp\cc7r39jA.s:4793   .rodata.gs_dither_content:00000000 $d
C:\Users\tle\AppData\Local\Temp\cc7r39jA.s:4799   .rodata.gs_explanation_custom:00000000 $d
C:\Users\tle\AppData\Local\Temp\cc7r39jA.s:4806   .rodata.gs_explanation_customreg:00000000 $d
C:\Users\tle\AppData\Local\Temp\cc7r39jA.s:4812   .rodata.gs_explanation_preset:00000000 $d
C:\Users\tle\AppData\Local\Temp\cc7r39jA.s:4818   .rodata.gs_explanation_top_br_co:00000000 $d
C:\Users\tle\AppData\Local\Temp\cc7r39jA.s:4824   .rodata.gs_gamma_content:00000000 $d
C:\Users\tle\AppData\Local\Temp\cc7r39jA.s:4830   .rodata.gs_reg_bright_in:00000000 $d
C:\Users\tle\AppData\Local\Temp\cc7r39jA.s:4847   .rodata.gs_reg_bright_out:00000000 $d
C:\Users\tle\AppData\Local\Temp\cc7r39jA.s:4888   .rodata.gs_reg_cont_in:00000000 $d
C:\Users\tle\AppData\Local\Temp\cc7r39jA.s:4905   .rodata.gs_reg_cont_out:00000000 $d
C:\Users\tle\AppData\Local\Temp\cc7r39jA.s:4946   .rodata.gs_reg_dither:00000000 $d
C:\Users\tle\AppData\Local\Temp\cc7r39jA.s:4963   .rodata.gs_reg_gamma:00000000 $d
C:\Users\tle\AppData\Local\Temp\cc7r39jA.s:7248   .rodata.gs_reg_input_mtx_mode:00000000 $d
C:\Users\tle\AppData\Local\Temp\cc7r39jA.s:7265   .rodata.gs_reg_rotation:00000000 $d
C:\Users\tle\AppData\Local\Temp\cc7r39jA.s:7282   .rodata.gs_reg_sharpness:00000000 $d
C:\Users\tle\AppData\Local\Temp\cc7r39jA.s:7599   .rodata.gs_rotation_content:00000000 $d
C:\Users\tle\AppData\Local\Temp\cc7r39jA.s:7605   .rodata.gs_sharp_content:00000000 $d
C:\Users\tle\AppData\Local\Temp\cc7r39jA.s:7611   .rodata.gs_top_content:00000000 $d
C:\Users\tle\AppData\Local\Temp\cc7r39jA.s:7617   .rodata.gs_update_reg:00000000 $d
C:\Users\tle\AppData\Local\Temp\cc7r39jA.s:7621   .rodata.gs_update_reg:00000000 gs_update_reg
C:\Users\tle\AppData\Local\Temp\cc7r39jA.s:7650   .rodata.str1.4:00000000 $d
                     .debug_frame:00000010 $d
                           .group:00000000 wm4.0.14fc17be114e5a2cba0959c511ea2aaf
                           .group:00000000 wm4._newlib_version.h.4.3572908597b70d672d181fc7fc501c19
                           .group:00000000 wm4.newlib.h.21.59901f4bf241ab46c63694665baa7297
                           .group:00000000 wm4.features.h.22.5cdadbb3efe495d1c9e38350b8c376c7
                           .group:00000000 wm4.config.h.219.65a553ab5bef5482f0d7880b0d33015e
                           .group:00000000 wm4._ansi.h.23.9f8fcfa20193763fcf364fb91705c94b
                           .group:00000000 wm4.stdio.h.31.7c0e28c411445f3f9c5b11accf882760
                           .group:00000000 wm4._default_types.h.6.959254cf5f09734ea7516c89e8bb21bd
                           .group:00000000 wm4.stddef.h.187.2ff233552538c6ff9b8575ca8ea52cb3
                           .group:00000000 wm4.cdefs.h.47.e658329a094974ebad41b40c60502de7
                           .group:00000000 wm4.stddef.h.39.ec95e8feac892e292b69dc7ae75b0d64
                           .group:00000000 wm4.stdarg.h.34.3a23a216c0c293b3d2ea2e89281481e6
                           .group:00000000 wm4.lock.h.2.1461d1fff82dffe8bfddc23307f6484f
                           .group:00000000 wm4._types.h.125.5cf8a495f1f7ef36777ad868a1e32068
                           .group:00000000 wm4.stddef.h.161.5349cb105733e8777bfb0cf53c4e3f34
                           .group:00000000 wm4._types.h.183.c226d164ceca1f2ecb9ae9360c54a098
                           .group:00000000 wm4.reent.h.17.23b059516345f8f5abfa01ddc379570f
                           .group:00000000 wm4.types.h.40.e8c16e7ec36ba55f133d0616070e25fc
                           .group:00000000 wm4._stdint.h.10.c24fa3af3bc1706662bb5593a907e841
                           .group:00000000 wm4._endian.h.31.65a10590763c3dde1ac4a7f66d7d4891
                           .group:00000000 wm4.endian.h.9.49f3a4695c1b61e8a0808de3c4a106cb
                           .group:00000000 wm4._timeval.h.30.0e8bfd94e85db17dda3286ee81496fe6
                           .group:00000000 wm4.timespec.h.41.d855182eb0e690443ab8651bcedca6e1
                           .group:00000000 wm4.select.h.30.bbece7fa40993a78092dcc5805132560
                           .group:00000000 wm4.types.h.69.ed3eae3cf73030a737515151ebcab7a1
                           .group:00000000 wm4.stdio.h.2.4aa87247282eca6c8f36f9de33d8df1a
                           .group:00000000 wm4.stdio.h.81.8188691c2279eac7a223caa50f6694b9
                           .group:00000000 wm4.string.h.8.c4b8571ce60dff2817f43fec8b86aecd
                           .group:00000000 wm4.stddef.h.161.19e15733342b50ead2919490b095303e
                           .group:00000000 wm4._default_fcntl.h.6.b13d56891b95175b639f824a0fd1ed77
                           .group:00000000 wm4.time.h.8.db4619001f026d0b4874c029fef0e91f
                           .group:00000000 wm4.time.h.2.4581ce0ffb6627cfc02162c94bf846c9
                           .group:00000000 wm4.time.h.25.106a07801fea6508dd6bbd3b8a1c271a
                           .group:00000000 wm4.stat.h.71.d65ac61ff88c651e198008cfb38bda9c
                           .group:00000000 wm4.fcntl.h.9.9336f33d7f5028f694c75e6e224e0cf7
                           .group:00000000 wm4.adc_iodefine.h.29.14c6f50dce37432a7d004e4b1ce33da7
                           .group:00000000 wm4.bsc_iodefine.h.29.9281d1f3639266933964d6d0c2d42c4f
                           .group:00000000 wm4.ceu_iodefine.h.29.2a669d0b46fdde030a50db9e3c307fbf
                           .group:00000000 wm4.cpg_iodefine.h.29.d6fdc9cb4798723afd88b251d64c2ce2
                           .group:00000000 wm4.csi2link_iodefine.h.29.221c4531636a409f24d307b16341ada8
                           .group:00000000 wm4.dmac_iodefine.h.29.578fccc2cc1da886ec95a029bf874f01
                           .group:00000000 wm4.drpk_iodefine.h.29.580eb8588a2b2d43d2726fbe791e513f
                           .group:00000000 wm4.drw_iodefine.h.29.df30f4a4a34a79f6a86c4df91353dffe
                           .group:00000000 wm4.edmac_iodefine.h.29.33e8759349004a722f42f5429c1353f6
                           .group:00000000 wm4.eptpc_iodefine.h.29.74d8f9fab0f5549b56097fb9e937dde8
                           .group:00000000 wm4.etherc_iodefine.h.29.14602750383a574f1c21f994ad33a366
                           .group:00000000 wm4.gpio_iodefine.h.29.3d0b021c56839cee4ae5149903684e4b
                           .group:00000000 wm4.gpt_iodefine.h.29.557ead75d7b0585b898d3898b64c7f87
                           .group:00000000 wm4.hyper_iodefine.h.29.000caadbb74d881e97db55b39b432154
                           .group:00000000 wm4.imr_iodefine.h.29.77c022f017e711c4d51cc0145db1dad3
                           .group:00000000 wm4.intc_iodefine.h.29.b68f5799a35a7495d63b4cd458e1ba57
                           .group:00000000 wm4.irda_iodefine.h.29.37e67bd2005173d68a74d1cc937d8444
                           .group:00000000 wm4.jcu_iodefine.h.29.3aca452908962e7a7ccf26164751feda
                           .group:00000000 wm4.lvds_iodefine.h.29.c11cbe1900e5209c8dcc76c2336c16bc
                           .group:00000000 wm4.mtu_iodefine.h.29.5498fb974bb53caf05aa143c2deec781
                           .group:00000000 wm4.nandc_iodefine.h.29.e0b343306750f017ee86e169ad98efe9
                           .group:00000000 wm4.octa_iodefine.h.29.4cb0d62e4b9633e173858000dc1c626c
                           .group:00000000 wm4.ostm_iodefine.h.29.6914f7e330a1cf0008b34219adcdfed4
                           .group:00000000 wm4.pl_iodefine.h.29.abbb6d725aed990aa8343242bfe31416
                           .group:00000000 wm4.pmg_iodefine.h.29.8bcfbc4771a6f9b7dd4d6f504427219e
                           .group:00000000 wm4.poeg_iodefine.h.29.0d8e258d10986260cbc70cfb8c0ef273
                           .group:00000000 wm4.poe_iodefine.h.29.fe74e55e7b6b4afbe3596c74ba035e98
                           .group:00000000 wm4.prr_iodefine.h.29.c1f15576f7a27b9c83aa3b40f5b2f988
                           .group:00000000 wm4.ptpedmac_iodefine.h.29.cd24a93374ce35cebc41e26889d619ef
                           .group:00000000 wm4.rcanfd_iodefine.h.29.532dd48b82fcb61d63538aba4b6f1289
                           .group:00000000 wm4.rcan_iodefine.h.29.a47a89db1b35c12b54af48fa1956acba
                           .group:00000000 wm4.riic_iodefine.h.29.f96943d49800d297612c4af3bba5c943
                           .group:00000000 wm4.rspi_iodefine.h.29.7efa041fe34a7d27db66a7b337879dfe
                           .group:00000000 wm4.rtc_iodefine.h.29.6dc76be5ca3df69cecb5a81d06cc46b5
                           .group:00000000 wm4.scifa_iodefine.h.29.b04ccd664d71baaf31c75761c45b9c4d
                           .group:00000000 wm4.scim_iodefine.h.29.87d0760abf94446b00d826c797bf0ff2
                           .group:00000000 wm4.sdmmc_iodefine.h.29.e67e9815445e8057a3262d1566bea0db
                           .group:00000000 wm4.spdif_iodefine.h.29.59f5d70150fa200a4d8ee50be1ee34c8
                           .group:00000000 wm4.spibsc_iodefine.h.29.f4930f8b8da1140200204513a363c76f
                           .group:00000000 wm4.sprite_iodefine.h.29.55796d1fa083a2457fea4ece974a192e
                           .group:00000000 wm4.ssif_iodefine.h.29.054ec6d95f487f631f16aee39c85c47a
                           .group:00000000 wm4.usb_iodefine.h.29.6dc44ea388ba227e8fdcfb33c315887b
                           .group:00000000 wm4.vdc_iodefine.h.29.db282ded1f052d8567fbbd3b61ce8f7a
                           .group:00000000 wm4.vin_iodefine.h.29.9b392e5601347d53e64be3272934e170
                           .group:00000000 wm4.wdt_iodefine.h.29.ed07bb44b797072f8c28b41c64fdca30
                           .group:00000000 wm4._intsup.h.10.cce27fed8484c08a33f522034c30d2b5
                           .group:00000000 wm4.stdint.h.23.d53047a68f4a85177f80b422d52785ed
                           .group:00000000 wm4.math.h.13.adb102f7bd7860b1f241e149d6914a1e
                           .group:00000000 wm4.r_typedefs.h.38.e90d9de5300d9ae020e5db8c5af88b3e
                           .group:00000000 wm4.r_cui_image_adjust.h.40.119877da75ab4e37436c269816b3db31
                           .group:00000000 wm4.driver.h.34.180df73e0731406f5e50150641059ede
                           .group:00000000 wm4.r_os_abstraction_api.h.52.0a236ebd862fe9ea15cb48eccaec65a1

UNDEFINED SYMBOLS
memset
__aeabi_uidiv
__aeabi_uidivmod
puts
printf
putchar
__srget_r
_impure_ptr
__swbuf_r
R_OS_TaskSleep
R_OS_TaskCreate
