   1              		.cpu cortex-a9
   2              		.eabi_attribute 28, 1
   3              		.eabi_attribute 20, 1
   4              		.eabi_attribute 21, 1
   5              		.eabi_attribute 23, 3
   6              		.eabi_attribute 24, 1
   7              		.eabi_attribute 25, 1
   8              		.eabi_attribute 26, 1
   9              		.eabi_attribute 30, 1
  10              		.eabi_attribute 34, 0
  11              		.eabi_attribute 18, 4
  12              		.file	"jcu_api.c"
  13              		.text
  14              	.Ltext0:
  15              		.cfi_sections	.debug_frame
  16              		.section	.text.R_JCU_GetAsyncError_ST,"ax",%progbits
  17              		.align	2
  18              		.syntax unified
  19              		.arm
  20              		.fpu neon
  22              	R_JCU_GetAsyncError_ST:
  23              	.LFB19:
  24              		.file 1 "../generate/sc_drivers/r_jcu/src/jcu_api.c"
   1:../generate/sc_drivers/r_jcu/src/jcu_api.c **** /**************************************************************************************************
   2:../generate/sc_drivers/r_jcu/src/jcu_api.c ****  * DISCLAIMER
   3:../generate/sc_drivers/r_jcu/src/jcu_api.c ****  * This software is supplied by Renesas Electronics Corporation and is only intended for use with R
   4:../generate/sc_drivers/r_jcu/src/jcu_api.c ****  * other uses are authorized. This software is owned by Renesas Electronics Corporation and is prot
   5:../generate/sc_drivers/r_jcu/src/jcu_api.c ****  * applicable laws, including copyright laws.
   6:../generate/sc_drivers/r_jcu/src/jcu_api.c ****  * THIS SOFTWARE IS PROVIDED "AS IS" AND RENESAS MAKES NO WARRANTIES REGARDING
   7:../generate/sc_drivers/r_jcu/src/jcu_api.c ****  * THIS SOFTWARE, WHETHER EXPRESS, IMPLIED OR STATUTORY, INCLUDING BUT NOT LIMITED TO WARRANTIES OF
   8:../generate/sc_drivers/r_jcu/src/jcu_api.c ****  * FITNESS FOR A PARTICULAR PURPOSE AND NON-INFRINGEMENT. ALL SUCH WARRANTIES ARE EXPRESSLY DISCLAI
   9:../generate/sc_drivers/r_jcu/src/jcu_api.c ****  * EXTENT PERMITTED NOT PROHIBITED BY LAW, NEITHER RENESAS ELECTRONICS CORPORATION NOR ANY OF ITS A
  10:../generate/sc_drivers/r_jcu/src/jcu_api.c ****  * SHALL BE LIABLE FOR ANY DIRECT, INDIRECT, SPECIAL, INCIDENTAL OR CONSEQUENTIAL DAMAGES FOR ANY R
  11:../generate/sc_drivers/r_jcu/src/jcu_api.c ****  * THIS SOFTWARE, EVEN IF RENESAS OR ITS AFFILIATES HAVE BEEN ADVISED OF THE POSSIBILITY OF SUCH DA
  12:../generate/sc_drivers/r_jcu/src/jcu_api.c ****  * Renesas reserves the right, without notice, to make changes to this software and to discontinue 
  13:../generate/sc_drivers/r_jcu/src/jcu_api.c ****  * this software. By using this software, you agree to the additional terms and conditions found by
  14:../generate/sc_drivers/r_jcu/src/jcu_api.c ****  * following link:
  15:../generate/sc_drivers/r_jcu/src/jcu_api.c ****  * http://www.renesas.com/disclaimer
  16:../generate/sc_drivers/r_jcu/src/jcu_api.c ****  *
  17:../generate/sc_drivers/r_jcu/src/jcu_api.c ****  * Copyright (C) 2019 Renesas Electronics Corporation. All rights reserved.
  18:../generate/sc_drivers/r_jcu/src/jcu_api.c ****  **************************************************************************************************
  19:../generate/sc_drivers/r_jcu/src/jcu_api.c **** /******************************************************************************
  20:../generate/sc_drivers/r_jcu/src/jcu_api.c **** * File         : jcu_api.c
  21:../generate/sc_drivers/r_jcu/src/jcu_api.c **** * Description  : JPEG Codec Unit (JCU) driver API. Main Code for single thread.
  22:../generate/sc_drivers/r_jcu/src/jcu_api.c **** * Version      : 1.12
  23:../generate/sc_drivers/r_jcu/src/jcu_api.c **** ******************************************************************************/
  24:../generate/sc_drivers/r_jcu/src/jcu_api.c **** 
  25:../generate/sc_drivers/r_jcu/src/jcu_api.c **** /******************************************************************************
  26:../generate/sc_drivers/r_jcu/src/jcu_api.c **** Includes   <System Includes> , "Project Includes"
  27:../generate/sc_drivers/r_jcu/src/jcu_api.c **** ******************************************************************************/
  28:../generate/sc_drivers/r_jcu/src/jcu_api.c **** #include  <string.h>
  29:../generate/sc_drivers/r_jcu/src/jcu_api.c **** #include  "r_typedefs.h"
  30:../generate/sc_drivers/r_jcu/src/jcu_api.c **** #include  "iodefine.h"
  31:../generate/sc_drivers/r_jcu/src/jcu_api.c **** #include  "iobitmask.h"
  32:../generate/sc_drivers/r_jcu/src/jcu_api.c **** #include  "r_jcu.h"
  33:../generate/sc_drivers/r_jcu/src/jcu_api.c **** #include  "../src/r_jcu_local.h"
  34:../generate/sc_drivers/r_jcu/src/jcu_api.c **** #include  "../src/r_jcu_pl.h"
  35:../generate/sc_drivers/r_jcu/src/jcu_api.c **** #include  "rz_co.h"
  36:../generate/sc_drivers/r_jcu/src/jcu_api.c **** 
  37:../generate/sc_drivers/r_jcu/src/jcu_api.c **** 
  38:../generate/sc_drivers/r_jcu/src/jcu_api.c **** /******************************************************************************
  39:../generate/sc_drivers/r_jcu/src/jcu_api.c **** Typedef definitions
  40:../generate/sc_drivers/r_jcu/src/jcu_api.c **** ******************************************************************************/
  41:../generate/sc_drivers/r_jcu/src/jcu_api.c **** 
  42:../generate/sc_drivers/r_jcu/src/jcu_api.c **** /******************************************************************************
  43:../generate/sc_drivers/r_jcu/src/jcu_api.c **** Macro definitions
  44:../generate/sc_drivers/r_jcu/src/jcu_api.c **** ******************************************************************************/
  45:../generate/sc_drivers/r_jcu/src/jcu_api.c **** 
  46:../generate/sc_drivers/r_jcu/src/jcu_api.c **** /******************************************************************************
  47:../generate/sc_drivers/r_jcu/src/jcu_api.c **** Imported global variables and functions (from other files)
  48:../generate/sc_drivers/r_jcu/src/jcu_api.c **** ******************************************************************************/
  49:../generate/sc_drivers/r_jcu/src/jcu_api.c **** 
  50:../generate/sc_drivers/r_jcu/src/jcu_api.c **** /******************************************************************************
  51:../generate/sc_drivers/r_jcu/src/jcu_api.c **** Exported global variables and functions (to be accessed by other files)
  52:../generate/sc_drivers/r_jcu/src/jcu_api.c **** ******************************************************************************/
  53:../generate/sc_drivers/r_jcu/src/jcu_api.c **** 
  54:../generate/sc_drivers/r_jcu/src/jcu_api.c **** /***********************************************************************
  55:../generate/sc_drivers/r_jcu/src/jcu_api.c **** * Variable: gs_jcu_internal_information
  56:../generate/sc_drivers/r_jcu/src/jcu_api.c **** ************************************************************************/
  57:../generate/sc_drivers/r_jcu/src/jcu_api.c **** static jcu_internal_information_t  gs_jcu_internal_information;
  58:../generate/sc_drivers/r_jcu/src/jcu_api.c **** 
  59:../generate/sc_drivers/r_jcu/src/jcu_api.c **** 
  60:../generate/sc_drivers/r_jcu/src/jcu_api.c **** /******************************************************************************
  61:../generate/sc_drivers/r_jcu/src/jcu_api.c **** Private global variables and functions
  62:../generate/sc_drivers/r_jcu/src/jcu_api.c **** ******************************************************************************/
  63:../generate/sc_drivers/r_jcu/src/jcu_api.c **** static jcu_errorcode_t  R_JCU_Initialize_ST( jcu_config_t*  in_out_Config );
  64:../generate/sc_drivers/r_jcu/src/jcu_api.c **** static jcu_errorcode_t  R_JCU_TerminateAsync_ST( r_co_function_t  in_OnFinalized,
  65:../generate/sc_drivers/r_jcu/src/jcu_api.c ****         volatile void*  in_OnFinalizedArgument );
  66:../generate/sc_drivers/r_jcu/src/jcu_api.c **** static jcu_errorcode_t  R_JCU_SelectCodec_ST( const jcu_codec_t  in_Codec );
  67:../generate/sc_drivers/r_jcu/src/jcu_api.c **** static jcu_errorcode_t  R_JCU_StartAsync_ST( r_co_function_t  in_OnFinished,  volatile void*  in_On
  68:../generate/sc_drivers/r_jcu/src/jcu_api.c **** static jcu_errorcode_t  R_JCU_GetAsyncError_ST(void);
  69:../generate/sc_drivers/r_jcu/src/jcu_api.c **** static jcu_errorcode_t  R_JCU_ContinueAsync_ST( const jcu_continue_type_t  in_Type,
  70:../generate/sc_drivers/r_jcu/src/jcu_api.c ****         r_co_function_t  in_OnFinished,  volatile void*  in_OnFinishedArgument );
  71:../generate/sc_drivers/r_jcu/src/jcu_api.c **** static jcu_errorcode_t  R_JCU_SetDecodeParam_ST( const jcu_decode_param_t*const  in_Decode,
  72:../generate/sc_drivers/r_jcu/src/jcu_api.c ****         const jcu_buffer_param_t*const  in_Buffer );
  73:../generate/sc_drivers/r_jcu/src/jcu_api.c **** static jcu_errorcode_t  R_JCU_SetPauseForImageInfo_ST( const bool_t  in_IsPause );
  74:../generate/sc_drivers/r_jcu/src/jcu_api.c **** static jcu_errorcode_t  R_JCU_GetImageInfo_ST( jcu_image_info_t* const  out_Buffer );
  75:../generate/sc_drivers/r_jcu/src/jcu_api.c **** static jcu_errorcode_t  R_JCU_SetErrorFilter_ST( jcu_int_detail_errors_t  in_Filter );
  76:../generate/sc_drivers/r_jcu/src/jcu_api.c **** static jcu_errorcode_t  R_JCU_SetQuantizationTable_ST( const jcu_table_no_t  in_TableNum,
  77:../generate/sc_drivers/r_jcu/src/jcu_api.c ****         const uint8_t* const  in_Table );
  78:../generate/sc_drivers/r_jcu/src/jcu_api.c **** static jcu_errorcode_t  R_JCU_SetHuffmanTable_ST( const jcu_table_no_t  in_TableNum,
  79:../generate/sc_drivers/r_jcu/src/jcu_api.c ****         const jcu_huff_t  in_Type,  const uint8_t* const  in_Table );
  80:../generate/sc_drivers/r_jcu/src/jcu_api.c **** static jcu_errorcode_t  R_JCU_SetEncodeParam_ST( const jcu_encode_param_t* const  in_Encode,
  81:../generate/sc_drivers/r_jcu/src/jcu_api.c ****         const jcu_buffer_param_t* const  in_Buffer );
  82:../generate/sc_drivers/r_jcu/src/jcu_api.c **** static jcu_errorcode_t  R_JCU_GetEncodedSize_ST( size_t* const  out_Size );
  83:../generate/sc_drivers/r_jcu/src/jcu_api.c **** static errnum_t  R_JCU_OnInterrupted(void); 
  84:../generate/sc_drivers/r_jcu/src/jcu_api.c **** 
  85:../generate/sc_drivers/r_jcu/src/jcu_api.c **** 
  86:../generate/sc_drivers/r_jcu/src/jcu_api.c **** /* Section: JCU_methods */
  87:../generate/sc_drivers/r_jcu/src/jcu_api.c **** /***********************************************************************
  88:../generate/sc_drivers/r_jcu/src/jcu_api.c **** * Function Name: R_JCU_Initialize
  89:../generate/sc_drivers/r_jcu/src/jcu_api.c **** *    Initializes the JCU driver
  90:../generate/sc_drivers/r_jcu/src/jcu_api.c **** *
  91:../generate/sc_drivers/r_jcu/src/jcu_api.c **** * Arguments:
  92:../generate/sc_drivers/r_jcu/src/jcu_api.c **** *    in_out_Config - NULL
  93:../generate/sc_drivers/r_jcu/src/jcu_api.c **** *
  94:../generate/sc_drivers/r_jcu/src/jcu_api.c **** * Return Value:
  95:../generate/sc_drivers/r_jcu/src/jcu_api.c **** *    Error code. 0=No error. <jcu_errorcode_t> type.
  96:../generate/sc_drivers/r_jcu/src/jcu_api.c **** *
  97:../generate/sc_drivers/r_jcu/src/jcu_api.c **** * Description:
  98:../generate/sc_drivers/r_jcu/src/jcu_api.c **** *    The state will be in the initialized status.
  99:../generate/sc_drivers/r_jcu/src/jcu_api.c **** *    Initializes the internal status(gs_jcu_internal_information).
 100:../generate/sc_drivers/r_jcu/src/jcu_api.c **** *    The user defined function(R_JCU_OnInitialize) is called.
 101:../generate/sc_drivers/r_jcu/src/jcu_api.c **** *    Perform the following processing in the user defined function.
 102:../generate/sc_drivers/r_jcu/src/jcu_api.c **** *
 103:../generate/sc_drivers/r_jcu/src/jcu_api.c **** *    - Clock supply to JCU.
 104:../generate/sc_drivers/r_jcu/src/jcu_api.c **** *    - Sets the priority of interrupt.
 105:../generate/sc_drivers/r_jcu/src/jcu_api.c **** *    - Sets the environment-depend process.
 106:../generate/sc_drivers/r_jcu/src/jcu_api.c **** ************************************************************************/
 107:../generate/sc_drivers/r_jcu/src/jcu_api.c **** jcu_errorcode_t  R_JCU_Initialize( jcu_config_t*  in_out_Config ) 
 108:../generate/sc_drivers/r_jcu/src/jcu_api.c **** {
 109:../generate/sc_drivers/r_jcu/src/jcu_api.c ****     #if  ! JCU_MULTI_THREAD
 110:../generate/sc_drivers/r_jcu/src/jcu_api.c ****         return  R_JCU_Initialize_ST( in_out_Config );
 111:../generate/sc_drivers/r_jcu/src/jcu_api.c ****     #else
 112:../generate/sc_drivers/r_jcu/src/jcu_api.c ****         return  R_JCU_Initialize_MT( in_out_Config );
 113:../generate/sc_drivers/r_jcu/src/jcu_api.c ****     #endif
 114:../generate/sc_drivers/r_jcu/src/jcu_api.c **** } /* End of function R_JCU_Initialize */
 115:../generate/sc_drivers/r_jcu/src/jcu_api.c **** 
 116:../generate/sc_drivers/r_jcu/src/jcu_api.c **** 
 117:../generate/sc_drivers/r_jcu/src/jcu_api.c **** /***********************************************************************
 118:../generate/sc_drivers/r_jcu/src/jcu_api.c **** * Function Name: R_JCU_TerminateAsync
 119:../generate/sc_drivers/r_jcu/src/jcu_api.c **** *    Performs termination processing for the JCU driver
 120:../generate/sc_drivers/r_jcu/src/jcu_api.c **** *
 121:../generate/sc_drivers/r_jcu/src/jcu_api.c **** * Arguments:
 122:../generate/sc_drivers/r_jcu/src/jcu_api.c **** *    in_OnFinalized - Callback function called when interrupt was signaled.
 123:../generate/sc_drivers/r_jcu/src/jcu_api.c **** *                     This function will be called from interrupt or thread.
 124:../generate/sc_drivers/r_jcu/src/jcu_api.c **** *                     If any error was raised, this function will be not called.
 125:../generate/sc_drivers/r_jcu/src/jcu_api.c **** *    in_OnFinalizedArgument - Argument of callback function called when interrupt was signaled
 126:../generate/sc_drivers/r_jcu/src/jcu_api.c **** *
 127:../generate/sc_drivers/r_jcu/src/jcu_api.c **** * Return Value:
 128:../generate/sc_drivers/r_jcu/src/jcu_api.c **** *    Error code. 0=No error. <jcu_errorcode_t> type.
 129:../generate/sc_drivers/r_jcu/src/jcu_api.c **** *
 130:../generate/sc_drivers/r_jcu/src/jcu_api.c **** * Description:
 131:../generate/sc_drivers/r_jcu/src/jcu_api.c **** *    The processing which finishes a JCU driver.
 132:../generate/sc_drivers/r_jcu/src/jcu_api.c **** *    This function is asynchronous function that will return before processing ends.
 133:../generate/sc_drivers/r_jcu/src/jcu_api.c **** *    The state will be changed.
 134:../generate/sc_drivers/r_jcu/src/jcu_api.c **** *    Perform the following processing in the user defined function.
 135:../generate/sc_drivers/r_jcu/src/jcu_api.c **** *
 136:../generate/sc_drivers/r_jcu/src/jcu_api.c **** *    - Clock stopped to JCU.
 137:../generate/sc_drivers/r_jcu/src/jcu_api.c **** *    - Clear the priority of interrupt.
 138:../generate/sc_drivers/r_jcu/src/jcu_api.c **** *    - Sets the environment-depend process.
 139:../generate/sc_drivers/r_jcu/src/jcu_api.c **** *
 140:../generate/sc_drivers/r_jcu/src/jcu_api.c **** *    <R_JCU_GetAsyncError> must be called after finishing this asynchronous operation.
 141:../generate/sc_drivers/r_jcu/src/jcu_api.c **** ************************************************************************/
 142:../generate/sc_drivers/r_jcu/src/jcu_api.c **** jcu_errorcode_t R_JCU_TerminateAsync( r_co_function_t  in_OnFinalized,   
 143:../generate/sc_drivers/r_jcu/src/jcu_api.c ****         volatile void*  in_OnFinalizedArgument )
 144:../generate/sc_drivers/r_jcu/src/jcu_api.c **** {
 145:../generate/sc_drivers/r_jcu/src/jcu_api.c ****     #if  ! JCU_MULTI_THREAD
 146:../generate/sc_drivers/r_jcu/src/jcu_api.c ****         return  R_JCU_TerminateAsync_ST( in_OnFinalized,  in_OnFinalizedArgument );
 147:../generate/sc_drivers/r_jcu/src/jcu_api.c ****     #else
 148:../generate/sc_drivers/r_jcu/src/jcu_api.c ****         return  R_JCU_TerminateAsync_MT( in_OnFinalized,  in_OnFinalizedArgument );
 149:../generate/sc_drivers/r_jcu/src/jcu_api.c ****     #endif
 150:../generate/sc_drivers/r_jcu/src/jcu_api.c **** } /* End of function R_JCU_TerminateAsync */
 151:../generate/sc_drivers/r_jcu/src/jcu_api.c **** 
 152:../generate/sc_drivers/r_jcu/src/jcu_api.c **** 
 153:../generate/sc_drivers/r_jcu/src/jcu_api.c **** /***********************************************************************
 154:../generate/sc_drivers/r_jcu/src/jcu_api.c **** * Function Name: R_JCU_SelectCodec
 155:../generate/sc_drivers/r_jcu/src/jcu_api.c **** *    Sets the JCU mode
 156:../generate/sc_drivers/r_jcu/src/jcu_api.c **** *
 157:../generate/sc_drivers/r_jcu/src/jcu_api.c **** * Arguments:
 158:../generate/sc_drivers/r_jcu/src/jcu_api.c **** *    in_Codec - JCU mode(Compression or De-compression)
 159:../generate/sc_drivers/r_jcu/src/jcu_api.c **** *
 160:../generate/sc_drivers/r_jcu/src/jcu_api.c **** * Return Value:
 161:../generate/sc_drivers/r_jcu/src/jcu_api.c **** *    Error code. 0=No error. <jcu_errorcode_t> type.
 162:../generate/sc_drivers/r_jcu/src/jcu_api.c **** *
 163:../generate/sc_drivers/r_jcu/src/jcu_api.c **** * Description:
 164:../generate/sc_drivers/r_jcu/src/jcu_api.c **** *    This function selects the JCU mode(Compression or De-compression).
 165:../generate/sc_drivers/r_jcu/src/jcu_api.c **** *    All parameters of decode, encode and count mode must be set again.
 166:../generate/sc_drivers/r_jcu/src/jcu_api.c **** *    Because when this function was called, these parameters were initialized.
 167:../generate/sc_drivers/r_jcu/src/jcu_api.c **** ************************************************************************/
 168:../generate/sc_drivers/r_jcu/src/jcu_api.c **** jcu_errorcode_t  R_JCU_SelectCodec( const jcu_codec_t  in_Codec ) 
 169:../generate/sc_drivers/r_jcu/src/jcu_api.c **** {
 170:../generate/sc_drivers/r_jcu/src/jcu_api.c ****     #if  ! JCU_MULTI_THREAD
 171:../generate/sc_drivers/r_jcu/src/jcu_api.c ****         return  R_JCU_SelectCodec_ST( in_Codec );
 172:../generate/sc_drivers/r_jcu/src/jcu_api.c ****     #else
 173:../generate/sc_drivers/r_jcu/src/jcu_api.c ****         return  R_JCU_SelectCodec_MT( in_Codec );
 174:../generate/sc_drivers/r_jcu/src/jcu_api.c ****     #endif
 175:../generate/sc_drivers/r_jcu/src/jcu_api.c **** } /* End of function R_JCU_SelectCodec */
 176:../generate/sc_drivers/r_jcu/src/jcu_api.c **** 
 177:../generate/sc_drivers/r_jcu/src/jcu_api.c **** 
 178:../generate/sc_drivers/r_jcu/src/jcu_api.c **** /***********************************************************************
 179:../generate/sc_drivers/r_jcu/src/jcu_api.c **** * Function Name: R_JCU_StartAsync
 180:../generate/sc_drivers/r_jcu/src/jcu_api.c **** *    Starts JCU process
 181:../generate/sc_drivers/r_jcu/src/jcu_api.c **** *
 182:../generate/sc_drivers/r_jcu/src/jcu_api.c **** * Arguments:
 183:../generate/sc_drivers/r_jcu/src/jcu_api.c **** *    in_OnFinished         - Callback function called after interrupt handling.
 184:../generate/sc_drivers/r_jcu/src/jcu_api.c **** *                            This function will be called from interrupt or thread.
 185:../generate/sc_drivers/r_jcu/src/jcu_api.c **** *                            If any error was raised, this function will be not called.
 186:../generate/sc_drivers/r_jcu/src/jcu_api.c **** *    in_OnFinishedArgument - Argument of callback function called after interrupt handling
 187:../generate/sc_drivers/r_jcu/src/jcu_api.c **** *
 188:../generate/sc_drivers/r_jcu/src/jcu_api.c **** * Return Value:
 189:../generate/sc_drivers/r_jcu/src/jcu_api.c **** *    Error code. 0=No error. <jcu_errorcode_t> type.
 190:../generate/sc_drivers/r_jcu/src/jcu_api.c **** *
 191:../generate/sc_drivers/r_jcu/src/jcu_api.c **** * Description:
 192:../generate/sc_drivers/r_jcu/src/jcu_api.c **** *    Starts JCU process. The function is asynchronous function that will return before
 193:../generate/sc_drivers/r_jcu/src/jcu_api.c **** *    decoding or encoding ends or pauses.
 194:../generate/sc_drivers/r_jcu/src/jcu_api.c **** *    Using the <R_JCU_SetDecodeParam> API function or the <R_JCU_SetEncodeParam> API function,
 195:../generate/sc_drivers/r_jcu/src/jcu_api.c **** *    set the parameters before the JCU process starts
 196:../generate/sc_drivers/r_jcu/src/jcu_api.c **** *    You cannot stop the JCU process, after the JCU process starts.
 197:../generate/sc_drivers/r_jcu/src/jcu_api.c **** *    <R_JCU_GetAsyncError> must be called after finishing this asynchronous operation.
 198:../generate/sc_drivers/r_jcu/src/jcu_api.c **** ************************************************************************/
 199:../generate/sc_drivers/r_jcu/src/jcu_api.c **** jcu_errorcode_t  R_JCU_StartAsync( r_co_function_t  in_OnFinished, 
 200:../generate/sc_drivers/r_jcu/src/jcu_api.c ****         volatile void*  in_OnFinishedArgument )
 201:../generate/sc_drivers/r_jcu/src/jcu_api.c **** {
 202:../generate/sc_drivers/r_jcu/src/jcu_api.c ****     #if  ! JCU_MULTI_THREAD
 203:../generate/sc_drivers/r_jcu/src/jcu_api.c ****         return  R_JCU_StartAsync_ST( in_OnFinished,  in_OnFinishedArgument );
 204:../generate/sc_drivers/r_jcu/src/jcu_api.c ****     #else
 205:../generate/sc_drivers/r_jcu/src/jcu_api.c ****         return  R_JCU_StartAsync_MT( in_OnFinished,  in_OnFinishedArgument );
 206:../generate/sc_drivers/r_jcu/src/jcu_api.c ****     #endif
 207:../generate/sc_drivers/r_jcu/src/jcu_api.c **** } /* End of function R_JCU_StartAsync */
 208:../generate/sc_drivers/r_jcu/src/jcu_api.c **** 
 209:../generate/sc_drivers/r_jcu/src/jcu_api.c **** 
 210:../generate/sc_drivers/r_jcu/src/jcu_api.c **** /***********************************************************************
 211:../generate/sc_drivers/r_jcu/src/jcu_api.c **** * Function Name: R_JCU_GetAsyncError
 212:../generate/sc_drivers/r_jcu/src/jcu_api.c **** *    Returns error raised in asynchronized process
 213:../generate/sc_drivers/r_jcu/src/jcu_api.c **** *
 214:../generate/sc_drivers/r_jcu/src/jcu_api.c **** * Arguments:
 215:../generate/sc_drivers/r_jcu/src/jcu_api.c **** *    None
 216:../generate/sc_drivers/r_jcu/src/jcu_api.c **** *
 217:../generate/sc_drivers/r_jcu/src/jcu_api.c **** * Return Value:
 218:../generate/sc_drivers/r_jcu/src/jcu_api.c **** *    Error code. 0=No error. <jcu_errorcode_t> type.
 219:../generate/sc_drivers/r_jcu/src/jcu_api.c **** ************************************************************************/
 220:../generate/sc_drivers/r_jcu/src/jcu_api.c **** jcu_errorcode_t  R_JCU_GetAsyncError() 
 221:../generate/sc_drivers/r_jcu/src/jcu_api.c **** {
 222:../generate/sc_drivers/r_jcu/src/jcu_api.c ****     #if  ! JCU_MULTI_THREAD
 223:../generate/sc_drivers/r_jcu/src/jcu_api.c ****         return  R_JCU_GetAsyncError_ST();
 224:../generate/sc_drivers/r_jcu/src/jcu_api.c ****     #else
 225:../generate/sc_drivers/r_jcu/src/jcu_api.c ****         return  R_JCU_GetAsyncError_MT();
 226:../generate/sc_drivers/r_jcu/src/jcu_api.c ****     #endif
 227:../generate/sc_drivers/r_jcu/src/jcu_api.c **** } /* End of function R_JCU_GetAsyncError */
 228:../generate/sc_drivers/r_jcu/src/jcu_api.c **** 
 229:../generate/sc_drivers/r_jcu/src/jcu_api.c **** 
 230:../generate/sc_drivers/r_jcu/src/jcu_api.c **** /***********************************************************************
 231:../generate/sc_drivers/r_jcu/src/jcu_api.c **** * Function Name: R_JCU_ContinueAsync
 232:../generate/sc_drivers/r_jcu/src/jcu_api.c **** *    Resumes the JCU process (asynchronous process)
 233:../generate/sc_drivers/r_jcu/src/jcu_api.c **** *
 234:../generate/sc_drivers/r_jcu/src/jcu_api.c **** * Arguments:
 235:../generate/sc_drivers/r_jcu/src/jcu_api.c **** *    in_Type               - Mode of restarting JCU
 236:../generate/sc_drivers/r_jcu/src/jcu_api.c **** *    in_OnFinished         - Callback function called after interrupt handling.
 237:../generate/sc_drivers/r_jcu/src/jcu_api.c **** *                            This function will be called from interrupt or thread.
 238:../generate/sc_drivers/r_jcu/src/jcu_api.c **** *                            If any error was raised, this function will be not called.
 239:../generate/sc_drivers/r_jcu/src/jcu_api.c **** *    in_OnFinishedArgument - Argument of callback function called after interrupt handling
 240:../generate/sc_drivers/r_jcu/src/jcu_api.c **** *
 241:../generate/sc_drivers/r_jcu/src/jcu_api.c **** * Return Value:
 242:../generate/sc_drivers/r_jcu/src/jcu_api.c **** *    Error code. 0=No error. <jcu_errorcode_t> type.
 243:../generate/sc_drivers/r_jcu/src/jcu_api.c **** *
 244:../generate/sc_drivers/r_jcu/src/jcu_api.c **** * Description:
 245:../generate/sc_drivers/r_jcu/src/jcu_api.c **** *    Processing of JCU which paused is resumed.
 246:../generate/sc_drivers/r_jcu/src/jcu_api.c **** *    The function is asynchronous function that will return before decoding or encoding ends or pau
 247:../generate/sc_drivers/r_jcu/src/jcu_api.c **** *    <R_JCU_GetAsyncError> must be called after finishing this asynchronous operation.
 248:../generate/sc_drivers/r_jcu/src/jcu_api.c **** ************************************************************************/
 249:../generate/sc_drivers/r_jcu/src/jcu_api.c **** jcu_errorcode_t  R_JCU_ContinueAsync( const jcu_continue_type_t  in_Type, 
 250:../generate/sc_drivers/r_jcu/src/jcu_api.c ****     r_co_function_t  in_OnFinished,  volatile void*  in_OnFinishedArgument )
 251:../generate/sc_drivers/r_jcu/src/jcu_api.c **** {
 252:../generate/sc_drivers/r_jcu/src/jcu_api.c ****     #if  ! JCU_MULTI_THREAD
 253:../generate/sc_drivers/r_jcu/src/jcu_api.c ****         return  R_JCU_ContinueAsync_ST( in_Type,  in_OnFinished,  in_OnFinishedArgument );
 254:../generate/sc_drivers/r_jcu/src/jcu_api.c ****     #else
 255:../generate/sc_drivers/r_jcu/src/jcu_api.c ****         return  R_JCU_ContinueAsync_MT( in_Type,  in_OnFinished,  in_OnFinishedArgument );
 256:../generate/sc_drivers/r_jcu/src/jcu_api.c ****     #endif
 257:../generate/sc_drivers/r_jcu/src/jcu_api.c **** } /* End of function R_JCU_ContinueAsync */
 258:../generate/sc_drivers/r_jcu/src/jcu_api.c **** 
 259:../generate/sc_drivers/r_jcu/src/jcu_api.c **** 
 260:../generate/sc_drivers/r_jcu/src/jcu_api.c **** /***********************************************************************
 261:../generate/sc_drivers/r_jcu/src/jcu_api.c **** * Function Name: R_JCU_SetDecodeParam
 262:../generate/sc_drivers/r_jcu/src/jcu_api.c **** *    Sets decoding parameter
 263:../generate/sc_drivers/r_jcu/src/jcu_api.c **** *
 264:../generate/sc_drivers/r_jcu/src/jcu_api.c **** * Arguments:
 265:../generate/sc_drivers/r_jcu/src/jcu_api.c **** *    in_Decode - Decode parameter
 266:../generate/sc_drivers/r_jcu/src/jcu_api.c **** *    in_Buffer - Output buffer
 267:../generate/sc_drivers/r_jcu/src/jcu_api.c **** *
 268:../generate/sc_drivers/r_jcu/src/jcu_api.c **** * Return Value:
 269:../generate/sc_drivers/r_jcu/src/jcu_api.c **** *    Error code. 0=No error. <jcu_errorcode_t> type.
 270:../generate/sc_drivers/r_jcu/src/jcu_api.c **** *
 271:../generate/sc_drivers/r_jcu/src/jcu_api.c **** * Description:
 272:../generate/sc_drivers/r_jcu/src/jcu_api.c **** *    Sets decoding parameter.
 273:../generate/sc_drivers/r_jcu/src/jcu_api.c **** *    If the pixel format isn't ARGB8888, the alpha value must be zero.
 274:../generate/sc_drivers/r_jcu/src/jcu_api.c **** *    If the pixel format isn't YCbCr, the Cb/Cr value must be JCU_CBCR_OFFSET_0.
 275:../generate/sc_drivers/r_jcu/src/jcu_api.c **** ************************************************************************/
 276:../generate/sc_drivers/r_jcu/src/jcu_api.c **** jcu_errorcode_t R_JCU_SetDecodeParam( 
 277:../generate/sc_drivers/r_jcu/src/jcu_api.c ****     const jcu_decode_param_t*const  in_Decode,
 278:../generate/sc_drivers/r_jcu/src/jcu_api.c ****     const jcu_buffer_param_t*const  in_Buffer )
 279:../generate/sc_drivers/r_jcu/src/jcu_api.c **** {
 280:../generate/sc_drivers/r_jcu/src/jcu_api.c ****     #if  ! JCU_MULTI_THREAD
 281:../generate/sc_drivers/r_jcu/src/jcu_api.c ****         return  R_JCU_SetDecodeParam_ST( in_Decode,  in_Buffer );
 282:../generate/sc_drivers/r_jcu/src/jcu_api.c ****     #else
 283:../generate/sc_drivers/r_jcu/src/jcu_api.c ****         return  R_JCU_SetDecodeParam_MT( in_Decode,  in_Buffer );
 284:../generate/sc_drivers/r_jcu/src/jcu_api.c ****     #endif
 285:../generate/sc_drivers/r_jcu/src/jcu_api.c **** } /* End of function R_JCU_SetDecodeParam */
 286:../generate/sc_drivers/r_jcu/src/jcu_api.c **** 
 287:../generate/sc_drivers/r_jcu/src/jcu_api.c **** 
 288:../generate/sc_drivers/r_jcu/src/jcu_api.c **** /***********************************************************************
 289:../generate/sc_drivers/r_jcu/src/jcu_api.c **** * Function Name: R_JCU_SetPauseForImageInfo
 290:../generate/sc_drivers/r_jcu/src/jcu_api.c **** *    When the image information can be acquired, it's made the setting which is paused
 291:../generate/sc_drivers/r_jcu/src/jcu_api.c **** *
 292:../generate/sc_drivers/r_jcu/src/jcu_api.c **** * Arguments:
 293:../generate/sc_drivers/r_jcu/src/jcu_api.c **** *    in_IsPause - true: It's made the setting which is paused, false: It's made the setting which i
 294:../generate/sc_drivers/r_jcu/src/jcu_api.c **** *
 295:../generate/sc_drivers/r_jcu/src/jcu_api.c **** * Return Value:
 296:../generate/sc_drivers/r_jcu/src/jcu_api.c **** *    Error code. 0=No error. <jcu_errorcode_t> type.
 297:../generate/sc_drivers/r_jcu/src/jcu_api.c **** *
 298:../generate/sc_drivers/r_jcu/src/jcu_api.c **** * Description:
 299:../generate/sc_drivers/r_jcu/src/jcu_api.c **** *    When the image information can be acquired,
 300:../generate/sc_drivers/r_jcu/src/jcu_api.c **** *    it's made the setting which is paused by the <R_JCU_GetImageInfo> function.
 301:../generate/sc_drivers/r_jcu/src/jcu_api.c **** ************************************************************************/
 302:../generate/sc_drivers/r_jcu/src/jcu_api.c **** jcu_errorcode_t R_JCU_SetPauseForImageInfo( const bool_t  in_IsPause ) 
 303:../generate/sc_drivers/r_jcu/src/jcu_api.c **** {
 304:../generate/sc_drivers/r_jcu/src/jcu_api.c ****     #if  ! JCU_MULTI_THREAD
 305:../generate/sc_drivers/r_jcu/src/jcu_api.c ****         return  R_JCU_SetPauseForImageInfo_ST( in_IsPause );
 306:../generate/sc_drivers/r_jcu/src/jcu_api.c ****     #else
 307:../generate/sc_drivers/r_jcu/src/jcu_api.c ****         return  R_JCU_SetPauseForImageInfo_MT( in_IsPause );
 308:../generate/sc_drivers/r_jcu/src/jcu_api.c ****     #endif
 309:../generate/sc_drivers/r_jcu/src/jcu_api.c **** } /* End of function R_JCU_SetPauseForImageInfo */
 310:../generate/sc_drivers/r_jcu/src/jcu_api.c **** 
 311:../generate/sc_drivers/r_jcu/src/jcu_api.c **** 
 312:../generate/sc_drivers/r_jcu/src/jcu_api.c **** /***********************************************************************
 313:../generate/sc_drivers/r_jcu/src/jcu_api.c **** * Function Name: R_JCU_GetImageInfo
 314:../generate/sc_drivers/r_jcu/src/jcu_api.c **** *    Gets information on the JPEG data
 315:../generate/sc_drivers/r_jcu/src/jcu_api.c **** *
 316:../generate/sc_drivers/r_jcu/src/jcu_api.c **** * Arguments:
 317:../generate/sc_drivers/r_jcu/src/jcu_api.c **** *    out_Buffer - Output: image information
 318:../generate/sc_drivers/r_jcu/src/jcu_api.c **** *
 319:../generate/sc_drivers/r_jcu/src/jcu_api.c **** * Return Value:
 320:../generate/sc_drivers/r_jcu/src/jcu_api.c **** *    Error code. 0=No error. <jcu_errorcode_t> type.
 321:../generate/sc_drivers/r_jcu/src/jcu_api.c **** *
 322:../generate/sc_drivers/r_jcu/src/jcu_api.c **** * Description:
 323:../generate/sc_drivers/r_jcu/src/jcu_api.c **** *    Gets the image information (width, height, pixel format) of the decoded JPEG data.
 324:../generate/sc_drivers/r_jcu/src/jcu_api.c **** *    If data is read before the request which reads the image information, the data is not guarante
 325:../generate/sc_drivers/r_jcu/src/jcu_api.c **** *    If the pixel format of the decoded JPEG data is outside of the jcu_jpeg_format_t,
 326:../generate/sc_drivers/r_jcu/src/jcu_api.c **** *    it's the error, so JCU can't decode.
 327:../generate/sc_drivers/r_jcu/src/jcu_api.c **** ************************************************************************/
 328:../generate/sc_drivers/r_jcu/src/jcu_api.c **** jcu_errorcode_t R_JCU_GetImageInfo( jcu_image_info_t* const  out_Buffer ) 
 329:../generate/sc_drivers/r_jcu/src/jcu_api.c **** {
 330:../generate/sc_drivers/r_jcu/src/jcu_api.c ****     #if  ! JCU_MULTI_THREAD
 331:../generate/sc_drivers/r_jcu/src/jcu_api.c ****         return  R_JCU_GetImageInfo_ST( out_Buffer );
 332:../generate/sc_drivers/r_jcu/src/jcu_api.c ****     #else
 333:../generate/sc_drivers/r_jcu/src/jcu_api.c ****         return  R_JCU_GetImageInfo_MT( out_Buffer );
 334:../generate/sc_drivers/r_jcu/src/jcu_api.c ****     #endif
 335:../generate/sc_drivers/r_jcu/src/jcu_api.c **** } /* End of function R_JCU_GetImageInfo */
 336:../generate/sc_drivers/r_jcu/src/jcu_api.c **** 
 337:../generate/sc_drivers/r_jcu/src/jcu_api.c **** 
 338:../generate/sc_drivers/r_jcu/src/jcu_api.c **** /***********************************************************************
 339:../generate/sc_drivers/r_jcu/src/jcu_api.c **** * Function Name: R_JCU_SetErrorFilter
 340:../generate/sc_drivers/r_jcu/src/jcu_api.c **** *    The particular error code was set to valid
 341:../generate/sc_drivers/r_jcu/src/jcu_api.c **** *
 342:../generate/sc_drivers/r_jcu/src/jcu_api.c **** * Arguments:
 343:../generate/sc_drivers/r_jcu/src/jcu_api.c **** *    in_Filter - The valid decoding error code <jcu_int_detail_error_t> as the bit flag value.
 344:../generate/sc_drivers/r_jcu/src/jcu_api.c **** *
 345:../generate/sc_drivers/r_jcu/src/jcu_api.c **** * Return Value:
 346:../generate/sc_drivers/r_jcu/src/jcu_api.c **** *    Error code. 0=No error. <jcu_errorcode_t> type.
 347:../generate/sc_drivers/r_jcu/src/jcu_api.c **** *
 348:../generate/sc_drivers/r_jcu/src/jcu_api.c **** * Description:
 349:../generate/sc_drivers/r_jcu/src/jcu_api.c **** *    The particular error code was set to valid.
 350:../generate/sc_drivers/r_jcu/src/jcu_api.c **** *    When the valid decoding error occurred, interrupt occurs.
 351:../generate/sc_drivers/r_jcu/src/jcu_api.c **** ************************************************************************/
 352:../generate/sc_drivers/r_jcu/src/jcu_api.c **** jcu_errorcode_t  R_JCU_SetErrorFilter( jcu_int_detail_errors_t  in_Filter ) 
 353:../generate/sc_drivers/r_jcu/src/jcu_api.c **** {
 354:../generate/sc_drivers/r_jcu/src/jcu_api.c ****     #if  ! JCU_MULTI_THREAD
 355:../generate/sc_drivers/r_jcu/src/jcu_api.c ****         return  R_JCU_SetErrorFilter_ST( in_Filter );
 356:../generate/sc_drivers/r_jcu/src/jcu_api.c ****     #else
 357:../generate/sc_drivers/r_jcu/src/jcu_api.c ****         return  R_JCU_SetErrorFilter_MT( in_Filter );
 358:../generate/sc_drivers/r_jcu/src/jcu_api.c ****     #endif
 359:../generate/sc_drivers/r_jcu/src/jcu_api.c **** } /* End of function R_JCU_SetErrorFilter */
 360:../generate/sc_drivers/r_jcu/src/jcu_api.c **** 
 361:../generate/sc_drivers/r_jcu/src/jcu_api.c **** 
 362:../generate/sc_drivers/r_jcu/src/jcu_api.c **** /***********************************************************************
 363:../generate/sc_drivers/r_jcu/src/jcu_api.c **** * Function Name: R_JCU_SetQuantizationTable
 364:../generate/sc_drivers/r_jcu/src/jcu_api.c **** *    Sets the Quantization table
 365:../generate/sc_drivers/r_jcu/src/jcu_api.c **** *
 366:../generate/sc_drivers/r_jcu/src/jcu_api.c **** * Arguments:
 367:../generate/sc_drivers/r_jcu/src/jcu_api.c **** *    tableNo - Quantization table number
 368:../generate/sc_drivers/r_jcu/src/jcu_api.c **** *    table   - Quantization table
 369:../generate/sc_drivers/r_jcu/src/jcu_api.c **** *
 370:../generate/sc_drivers/r_jcu/src/jcu_api.c **** * Return Value:
 371:../generate/sc_drivers/r_jcu/src/jcu_api.c **** *    Error code. 0=No error. <jcu_errorcode_t> type.
 372:../generate/sc_drivers/r_jcu/src/jcu_api.c **** *
 373:../generate/sc_drivers/r_jcu/src/jcu_api.c **** * Description:
 374:../generate/sc_drivers/r_jcu/src/jcu_api.c **** *    Quantization table data.
 375:../generate/sc_drivers/r_jcu/src/jcu_api.c **** *    For the setting value of the quantization table data,
 376:../generate/sc_drivers/r_jcu/src/jcu_api.c **** *    see "RZ/A2M Group User's Manual: Hardware"
 377:../generate/sc_drivers/r_jcu/src/jcu_api.c **** *    section 45.3.1 (4), (a) Quantization Table Specification.
 378:../generate/sc_drivers/r_jcu/src/jcu_api.c **** *    Attached "QuantizationTable_Generator.html" file can calculate
 379:../generate/sc_drivers/r_jcu/src/jcu_api.c **** *    an example of quantization table.
 380:../generate/sc_drivers/r_jcu/src/jcu_api.c **** ************************************************************************/
 381:../generate/sc_drivers/r_jcu/src/jcu_api.c **** jcu_errorcode_t  R_JCU_SetQuantizationTable( 
 382:../generate/sc_drivers/r_jcu/src/jcu_api.c ****     const jcu_table_no_t  in_TableNum,  const uint8_t* const  in_Table )
 383:../generate/sc_drivers/r_jcu/src/jcu_api.c **** {
 384:../generate/sc_drivers/r_jcu/src/jcu_api.c ****     #if  ! JCU_MULTI_THREAD
 385:../generate/sc_drivers/r_jcu/src/jcu_api.c ****         return  R_JCU_SetQuantizationTable_ST( in_TableNum,  in_Table );
 386:../generate/sc_drivers/r_jcu/src/jcu_api.c ****     #else
 387:../generate/sc_drivers/r_jcu/src/jcu_api.c ****         return  R_JCU_SetQuantizationTable_MT( in_TableNum,  in_Table );
 388:../generate/sc_drivers/r_jcu/src/jcu_api.c ****     #endif
 389:../generate/sc_drivers/r_jcu/src/jcu_api.c **** } /* End of function R_JCU_SetQuantizationTable */
 390:../generate/sc_drivers/r_jcu/src/jcu_api.c **** 
 391:../generate/sc_drivers/r_jcu/src/jcu_api.c **** 
 392:../generate/sc_drivers/r_jcu/src/jcu_api.c **** /***********************************************************************
 393:../generate/sc_drivers/r_jcu/src/jcu_api.c **** * Function Name: R_JCU_SetHuffmanTable
 394:../generate/sc_drivers/r_jcu/src/jcu_api.c **** *    Sets the Huffman table
 395:../generate/sc_drivers/r_jcu/src/jcu_api.c **** *
 396:../generate/sc_drivers/r_jcu/src/jcu_api.c **** * Arguments:
 397:../generate/sc_drivers/r_jcu/src/jcu_api.c **** *    in_TableNum - Huffman table number
 398:../generate/sc_drivers/r_jcu/src/jcu_api.c **** *    in_Type     - Type of Huffman table (AC or DC)
 399:../generate/sc_drivers/r_jcu/src/jcu_api.c **** *    in_Table    - Huffman table
 400:../generate/sc_drivers/r_jcu/src/jcu_api.c **** *
 401:../generate/sc_drivers/r_jcu/src/jcu_api.c **** * Return Value:
 402:../generate/sc_drivers/r_jcu/src/jcu_api.c **** *    Error code. 0=No error. <jcu_errorcode_t> type.
 403:../generate/sc_drivers/r_jcu/src/jcu_api.c **** *
 404:../generate/sc_drivers/r_jcu/src/jcu_api.c **** * Description:
 405:../generate/sc_drivers/r_jcu/src/jcu_api.c **** *    Huffman table data.
 406:../generate/sc_drivers/r_jcu/src/jcu_api.c **** *    For the setting value of the Huffman table data,
 407:../generate/sc_drivers/r_jcu/src/jcu_api.c **** *    see "RZ/A2M Group User's Manual: Hardware"
 408:../generate/sc_drivers/r_jcu/src/jcu_api.c **** *    section 45.3.1 (4), (b) Huffman Table Specification.
 409:../generate/sc_drivers/r_jcu/src/jcu_api.c **** ************************************************************************/
 410:../generate/sc_drivers/r_jcu/src/jcu_api.c **** jcu_errorcode_t  R_JCU_SetHuffmanTable( const jcu_table_no_t  in_TableNum,   
 411:../generate/sc_drivers/r_jcu/src/jcu_api.c ****         const jcu_huff_t  in_Type, const uint8_t* const  in_Table )
 412:../generate/sc_drivers/r_jcu/src/jcu_api.c **** {
 413:../generate/sc_drivers/r_jcu/src/jcu_api.c ****     #if  ! JCU_MULTI_THREAD
 414:../generate/sc_drivers/r_jcu/src/jcu_api.c ****         return  R_JCU_SetHuffmanTable_ST( in_TableNum,  in_Type,  in_Table );
 415:../generate/sc_drivers/r_jcu/src/jcu_api.c ****     #else
 416:../generate/sc_drivers/r_jcu/src/jcu_api.c ****         return  R_JCU_SetHuffmanTable_MT( in_TableNum,  in_Type,  in_Table );
 417:../generate/sc_drivers/r_jcu/src/jcu_api.c ****     #endif
 418:../generate/sc_drivers/r_jcu/src/jcu_api.c **** } /* End of function R_JCU_SetHuffmanTable */
 419:../generate/sc_drivers/r_jcu/src/jcu_api.c **** 
 420:../generate/sc_drivers/r_jcu/src/jcu_api.c **** 
 421:../generate/sc_drivers/r_jcu/src/jcu_api.c **** /***********************************************************************
 422:../generate/sc_drivers/r_jcu/src/jcu_api.c **** * Function Name: R_JCU_SetEncodeParam
 423:../generate/sc_drivers/r_jcu/src/jcu_api.c **** *    Sets encoding parameter
 424:../generate/sc_drivers/r_jcu/src/jcu_api.c **** *
 425:../generate/sc_drivers/r_jcu/src/jcu_api.c **** * Arguments:
 426:../generate/sc_drivers/r_jcu/src/jcu_api.c **** *    in_Encode - Encode parameter
 427:../generate/sc_drivers/r_jcu/src/jcu_api.c **** *    in_Buffer - Input buffer
 428:../generate/sc_drivers/r_jcu/src/jcu_api.c **** *
 429:../generate/sc_drivers/r_jcu/src/jcu_api.c **** * Return Value:
 430:../generate/sc_drivers/r_jcu/src/jcu_api.c **** *    Error code. 0=No error. <jcu_errorcode_t> type.
 431:../generate/sc_drivers/r_jcu/src/jcu_api.c **** *
 432:../generate/sc_drivers/r_jcu/src/jcu_api.c **** * Description:
 433:../generate/sc_drivers/r_jcu/src/jcu_api.c **** *    Sets Encoding parameter.
 434:../generate/sc_drivers/r_jcu/src/jcu_api.c **** ************************************************************************/
 435:../generate/sc_drivers/r_jcu/src/jcu_api.c **** jcu_errorcode_t  R_JCU_SetEncodeParam 
 436:../generate/sc_drivers/r_jcu/src/jcu_api.c ****         ( const jcu_encode_param_t* const  in_Encode, const jcu_buffer_param_t* const  in_Buffer )
 437:../generate/sc_drivers/r_jcu/src/jcu_api.c **** {
 438:../generate/sc_drivers/r_jcu/src/jcu_api.c ****     #if  ! JCU_MULTI_THREAD
 439:../generate/sc_drivers/r_jcu/src/jcu_api.c ****         return  R_JCU_SetEncodeParam_ST( in_Encode,  in_Buffer );
 440:../generate/sc_drivers/r_jcu/src/jcu_api.c ****     #else
 441:../generate/sc_drivers/r_jcu/src/jcu_api.c ****         return  R_JCU_SetEncodeParam_MT( in_Encode,  in_Buffer );
 442:../generate/sc_drivers/r_jcu/src/jcu_api.c ****     #endif
 443:../generate/sc_drivers/r_jcu/src/jcu_api.c **** } /* End of function R_JCU_SetEncodeParam */
 444:../generate/sc_drivers/r_jcu/src/jcu_api.c **** 
 445:../generate/sc_drivers/r_jcu/src/jcu_api.c **** 
 446:../generate/sc_drivers/r_jcu/src/jcu_api.c **** /***********************************************************************
 447:../generate/sc_drivers/r_jcu/src/jcu_api.c **** * Function Name: R_JCU_GetEncodedSize
 448:../generate/sc_drivers/r_jcu/src/jcu_api.c **** *    Gets the size of data to be compressed
 449:../generate/sc_drivers/r_jcu/src/jcu_api.c **** *
 450:../generate/sc_drivers/r_jcu/src/jcu_api.c **** * Arguments:
 451:../generate/sc_drivers/r_jcu/src/jcu_api.c **** *    out_Size - Output: Pointer to variable of the data size
 452:../generate/sc_drivers/r_jcu/src/jcu_api.c **** *
 453:../generate/sc_drivers/r_jcu/src/jcu_api.c **** * Return Value:
 454:../generate/sc_drivers/r_jcu/src/jcu_api.c **** *    Error code. 0=No error. <jcu_errorcode_t> type.
 455:../generate/sc_drivers/r_jcu/src/jcu_api.c **** *
 456:../generate/sc_drivers/r_jcu/src/jcu_api.c **** * Description:
 457:../generate/sc_drivers/r_jcu/src/jcu_api.c **** *    Gets the size of data to be compressed.
 458:../generate/sc_drivers/r_jcu/src/jcu_api.c **** *    If data is read before interrupt of encoding complete, the data is not guaranteed.
 459:../generate/sc_drivers/r_jcu/src/jcu_api.c **** ************************************************************************/
 460:../generate/sc_drivers/r_jcu/src/jcu_api.c **** jcu_errorcode_t  R_JCU_GetEncodedSize( size_t* const  out_Size ) 
 461:../generate/sc_drivers/r_jcu/src/jcu_api.c **** {
 462:../generate/sc_drivers/r_jcu/src/jcu_api.c ****     #if  ! JCU_MULTI_THREAD
 463:../generate/sc_drivers/r_jcu/src/jcu_api.c ****         return  R_JCU_GetEncodedSize_ST( out_Size );
 464:../generate/sc_drivers/r_jcu/src/jcu_api.c ****     #else
 465:../generate/sc_drivers/r_jcu/src/jcu_api.c ****         return  R_JCU_GetEncodedSize_MT( out_Size );
 466:../generate/sc_drivers/r_jcu/src/jcu_api.c ****     #endif
 467:../generate/sc_drivers/r_jcu/src/jcu_api.c **** } /* End of function R_JCU_GetEncodedSize */
 468:../generate/sc_drivers/r_jcu/src/jcu_api.c **** 
 469:../generate/sc_drivers/r_jcu/src/jcu_api.c **** 
 470:../generate/sc_drivers/r_jcu/src/jcu_api.c **** /***********************************************************************
 471:../generate/sc_drivers/r_jcu/src/jcu_api.c **** * Implement: R_JCU_Initialize_ST
 472:../generate/sc_drivers/r_jcu/src/jcu_api.c **** ************************************************************************/
 473:../generate/sc_drivers/r_jcu/src/jcu_api.c **** /* ->SEC M1.1.1 API Function */
 474:../generate/sc_drivers/r_jcu/src/jcu_api.c **** 
 475:../generate/sc_drivers/r_jcu/src/jcu_api.c **** /******************************************************************************
 476:../generate/sc_drivers/r_jcu/src/jcu_api.c ****  * Function Name: R_JCU_Initialize_ST
 477:../generate/sc_drivers/r_jcu/src/jcu_api.c ****  * Description  : .
 478:../generate/sc_drivers/r_jcu/src/jcu_api.c ****  * Arguments    : .
 479:../generate/sc_drivers/r_jcu/src/jcu_api.c ****  * Return Value : .
 480:../generate/sc_drivers/r_jcu/src/jcu_api.c ****  *****************************************************************************/
 481:../generate/sc_drivers/r_jcu/src/jcu_api.c **** static jcu_errorcode_t  R_JCU_Initialize_ST( jcu_config_t*  in_out_Config ) 
 482:../generate/sc_drivers/r_jcu/src/jcu_api.c **** 
 483:../generate/sc_drivers/r_jcu/src/jcu_api.c **** /* <-SEC M1.1.1 */
 484:../generate/sc_drivers/r_jcu/src/jcu_api.c **** {
 485:../generate/sc_drivers/r_jcu/src/jcu_api.c ****     errnum_t          e;
 486:../generate/sc_drivers/r_jcu/src/jcu_api.c ****     jcu_internal_information_t*
 487:../generate/sc_drivers/r_jcu/src/jcu_api.c ****         const  self = &gs_jcu_internal_information; 
 488:../generate/sc_drivers/r_jcu/src/jcu_api.c **** 
 489:../generate/sc_drivers/r_jcu/src/jcu_api.c ****     /* Cast to an appropriate type */
 490:../generate/sc_drivers/r_jcu/src/jcu_api.c ****     R_UNREFERENCED_VARIABLE( in_out_Config );
 491:../generate/sc_drivers/r_jcu/src/jcu_api.c **** 
 492:../generate/sc_drivers/r_jcu/src/jcu_api.c ****     if (!( self->AsyncStatus.Status == JCU_STATUS_UNDEF ))
 493:../generate/sc_drivers/r_jcu/src/jcu_api.c ****     {
 494:../generate/sc_drivers/r_jcu/src/jcu_api.c ****         e = JCU_ERROR_STATUS_1;
 495:../generate/sc_drivers/r_jcu/src/jcu_api.c ****         goto fin;  /* Error: Already initialized. */
 496:../generate/sc_drivers/r_jcu/src/jcu_api.c ****     }
 497:../generate/sc_drivers/r_jcu/src/jcu_api.c **** 
 498:../generate/sc_drivers/r_jcu/src/jcu_api.c ****     /* Initialize the variable */
 499:../generate/sc_drivers/r_jcu/src/jcu_api.c ****     self->AsyncStatus.OnInterrupted = (r_co_function_t) R_JCU_OnInterrupted;
 500:../generate/sc_drivers/r_jcu/src/jcu_api.c **** 
 501:../generate/sc_drivers/r_jcu/src/jcu_api.c ****     /* Cast to an appropriate type */
 502:../generate/sc_drivers/r_jcu/src/jcu_api.c ****     self->AsyncStatus.OnInterruptedArgument = NULL;
 503:../generate/sc_drivers/r_jcu/src/jcu_api.c **** 
 504:../generate/sc_drivers/r_jcu/src/jcu_api.c ****     /* Cast to an appropriate type */
 505:../generate/sc_drivers/r_jcu/src/jcu_api.c ****     self->AsyncStatus.OnFinished = NULL;
 506:../generate/sc_drivers/r_jcu/src/jcu_api.c **** 
 507:../generate/sc_drivers/r_jcu/src/jcu_api.c ****     /* Cast to an appropriate type */
 508:../generate/sc_drivers/r_jcu/src/jcu_api.c ****     self->AsyncStatus.OnFinishedArgument = NULL;
 509:../generate/sc_drivers/r_jcu/src/jcu_api.c **** 
 510:../generate/sc_drivers/r_jcu/src/jcu_api.c ****     /* Cast to an appropriate type */
 511:../generate/sc_drivers/r_jcu/src/jcu_api.c ****     self->AsyncStatus.OnFinalized = NULL;
 512:../generate/sc_drivers/r_jcu/src/jcu_api.c **** 
 513:../generate/sc_drivers/r_jcu/src/jcu_api.c ****     /* Cast to an appropriate type */
 514:../generate/sc_drivers/r_jcu/src/jcu_api.c ****     self->AsyncStatus.OnFinalizedArgument = NULL;
 515:../generate/sc_drivers/r_jcu/src/jcu_api.c ****     self->AsyncStatus.InterruptFlags = 0u;
 516:../generate/sc_drivers/r_jcu/src/jcu_api.c ****     self->AsyncStatus.CancelFlags = 0u;
 517:../generate/sc_drivers/r_jcu/src/jcu_api.c ****     self->AsyncStatus.IsPaused = false;
 518:../generate/sc_drivers/r_jcu/src/jcu_api.c ****     self->AsyncStatus.SubStatusFlags = 0u;
 519:../generate/sc_drivers/r_jcu/src/jcu_api.c ****     self->IsCountMode = false;
 520:../generate/sc_drivers/r_jcu/src/jcu_api.c ****     self->ErrorFilter = JCU_INT_ERROR_ALL;
 521:../generate/sc_drivers/r_jcu/src/jcu_api.c **** 
 522:../generate/sc_drivers/r_jcu/src/jcu_api.c ****     /* User defined initialize */
 523:../generate/sc_drivers/r_jcu/src/jcu_api.c ****     e= R_JCU_OnInitialize();
 524:../generate/sc_drivers/r_jcu/src/jcu_api.c ****     if(e)
 525:../generate/sc_drivers/r_jcu/src/jcu_api.c ****     {
 526:../generate/sc_drivers/r_jcu/src/jcu_api.c ****         goto fin;
 527:../generate/sc_drivers/r_jcu/src/jcu_api.c ****     }
 528:../generate/sc_drivers/r_jcu/src/jcu_api.c **** 
 529:../generate/sc_drivers/r_jcu/src/jcu_api.c ****     /* Set the register */
 530:../generate/sc_drivers/r_jcu/src/jcu_api.c ****     e= JCU_SetRegisterForInitialize();
 531:../generate/sc_drivers/r_jcu/src/jcu_api.c ****     if(e)
 532:../generate/sc_drivers/r_jcu/src/jcu_api.c ****     {
 533:../generate/sc_drivers/r_jcu/src/jcu_api.c ****         goto fin;
 534:../generate/sc_drivers/r_jcu/src/jcu_api.c ****     }
 535:../generate/sc_drivers/r_jcu/src/jcu_api.c **** 
 536:../generate/sc_drivers/r_jcu/src/jcu_api.c ****     /* Set the updated status */
 537:../generate/sc_drivers/r_jcu/src/jcu_api.c ****     self->AsyncStatus.Status = JCU_STATUS_INIT;
 538:../generate/sc_drivers/r_jcu/src/jcu_api.c **** 
 539:../generate/sc_drivers/r_jcu/src/jcu_api.c ****     /* Initialize the status for the encode */
 540:../generate/sc_drivers/r_jcu/src/jcu_api.c ****     self->Codec = JCU_CODEC_NOT_SELECTED;
 541:../generate/sc_drivers/r_jcu/src/jcu_api.c **** 
 542:../generate/sc_drivers/r_jcu/src/jcu_api.c ****     e = 0;
 543:../generate/sc_drivers/r_jcu/src/jcu_api.c **** fin:
 544:../generate/sc_drivers/r_jcu/src/jcu_api.c ****     if ( e )
 545:../generate/sc_drivers/r_jcu/src/jcu_api.c ****     {
 546:../generate/sc_drivers/r_jcu/src/jcu_api.c ****         /* Rollback */
 547:../generate/sc_drivers/r_jcu/src/jcu_api.c ****         bool_t  is_event = false;
 548:../generate/sc_drivers/r_jcu/src/jcu_api.c **** 
 549:../generate/sc_drivers/r_jcu/src/jcu_api.c ****         /* Cast to an appropriate type */
 550:../generate/sc_drivers/r_jcu/src/jcu_api.c ****         R_JCU_TerminateAsync( (r_co_function_t) R_CO_SetTrue,  &is_event );
 551:../generate/sc_drivers/r_jcu/src/jcu_api.c ****         while ( ! is_event )
 552:../generate/sc_drivers/r_jcu/src/jcu_api.c ****             { /* Pooling */ ;}
 553:../generate/sc_drivers/r_jcu/src/jcu_api.c ****     }
 554:../generate/sc_drivers/r_jcu/src/jcu_api.c ****     R_ERROR_Set( e );
 555:../generate/sc_drivers/r_jcu/src/jcu_api.c **** 
 556:../generate/sc_drivers/r_jcu/src/jcu_api.c ****     /* Cast to an appropriate type */
 557:../generate/sc_drivers/r_jcu/src/jcu_api.c ****     return  (jcu_errorcode_t) e;
 558:../generate/sc_drivers/r_jcu/src/jcu_api.c **** } /* End of function R_JCU_Initialize_ST */
 559:../generate/sc_drivers/r_jcu/src/jcu_api.c **** 
 560:../generate/sc_drivers/r_jcu/src/jcu_api.c **** 
 561:../generate/sc_drivers/r_jcu/src/jcu_api.c **** /***********************************************************************
 562:../generate/sc_drivers/r_jcu/src/jcu_api.c **** * Implement: R_JCU_TerminateAsync_ST
 563:../generate/sc_drivers/r_jcu/src/jcu_api.c **** ************************************************************************/
 564:../generate/sc_drivers/r_jcu/src/jcu_api.c **** /* ->SEC M1.1.1 API Function */
 565:../generate/sc_drivers/r_jcu/src/jcu_api.c **** /******************************************************************************
 566:../generate/sc_drivers/r_jcu/src/jcu_api.c ****  * Function Name: R_JCU_TerminateAsync_ST
 567:../generate/sc_drivers/r_jcu/src/jcu_api.c ****  * Description  : .
 568:../generate/sc_drivers/r_jcu/src/jcu_api.c ****  * Arguments    : .
 569:../generate/sc_drivers/r_jcu/src/jcu_api.c ****  * Return Value : .
 570:../generate/sc_drivers/r_jcu/src/jcu_api.c ****  *****************************************************************************/
 571:../generate/sc_drivers/r_jcu/src/jcu_api.c **** static jcu_errorcode_t  R_JCU_TerminateAsync_ST( 
 572:../generate/sc_drivers/r_jcu/src/jcu_api.c ****     r_co_function_t  in_OnFinalized,  volatile void*  in_OnFinalizedArgument )
 573:../generate/sc_drivers/r_jcu/src/jcu_api.c **** 
 574:../generate/sc_drivers/r_jcu/src/jcu_api.c **** /* <-SEC M1.1.1 */
 575:../generate/sc_drivers/r_jcu/src/jcu_api.c **** {
 576:../generate/sc_drivers/r_jcu/src/jcu_api.c ****     errnum_t  e;
 577:../generate/sc_drivers/r_jcu/src/jcu_api.c ****     bool_t    was_enabled = false;
 578:../generate/sc_drivers/r_jcu/src/jcu_api.c ****     bool_t    is_callback = false;
 579:../generate/sc_drivers/r_jcu/src/jcu_api.c ****     jcu_internal_information_t*
 580:../generate/sc_drivers/r_jcu/src/jcu_api.c ****         const  self = &gs_jcu_internal_information; 
 581:../generate/sc_drivers/r_jcu/src/jcu_api.c ****     int_fast32_t  oblivious = 0;
 582:../generate/sc_drivers/r_jcu/src/jcu_api.c **** 
 583:../generate/sc_drivers/r_jcu/src/jcu_api.c ****     #if  ! defined( JCU_RELEASE )
 584:../generate/sc_drivers/r_jcu/src/jcu_api.c **** 
 585:../generate/sc_drivers/r_jcu/src/jcu_api.c ****         /* Cast to an appropriate type */
 586:../generate/sc_drivers/r_jcu/src/jcu_api.c ****         if ( in_OnFinalized == NULL )
 587:../generate/sc_drivers/r_jcu/src/jcu_api.c ****         {
 588:../generate/sc_drivers/r_jcu/src/jcu_api.c ****             e = JCU_ERROR_PARAM_1;  goto fin;
 589:../generate/sc_drivers/r_jcu/src/jcu_api.c ****         }  /* Error: <Parameter/> */
 590:../generate/sc_drivers/r_jcu/src/jcu_api.c ****     #endif
 591:../generate/sc_drivers/r_jcu/src/jcu_api.c **** 
 592:../generate/sc_drivers/r_jcu/src/jcu_api.c ****     self->AsyncStatus.ReturnValue = 0;
 593:../generate/sc_drivers/r_jcu/src/jcu_api.c **** 
 594:../generate/sc_drivers/r_jcu/src/jcu_api.c ****     /* Guard */
 595:../generate/sc_drivers/r_jcu/src/jcu_api.c ****     if ( !(
 596:../generate/sc_drivers/r_jcu/src/jcu_api.c ****         (self->AsyncStatus.OnFinalizedArgument != self->AsyncStatus.OnFinishedArgument)  ||
 597:../generate/sc_drivers/r_jcu/src/jcu_api.c ****         (self->AsyncStatus.OnFinalized != self->AsyncStatus.OnFinished)  ||
 598:../generate/sc_drivers/r_jcu/src/jcu_api.c **** 
 599:../generate/sc_drivers/r_jcu/src/jcu_api.c ****         /* Cast to an appropriate type */
 600:../generate/sc_drivers/r_jcu/src/jcu_api.c ****         (self->AsyncStatus.OnFinalizedArgument == NULL) ))
 601:../generate/sc_drivers/r_jcu/src/jcu_api.c ****     {
 602:../generate/sc_drivers/r_jcu/src/jcu_api.c ****         e=JCU_ERROR_PARAM_36; goto fin;
 603:../generate/sc_drivers/r_jcu/src/jcu_api.c **** 
 604:../generate/sc_drivers/r_jcu/src/jcu_api.c ****         /* Error: Arguments of "R_JCU_TerminateAsync" and "R_JCU_StartAsync" are same synchronized 
 605:../generate/sc_drivers/r_jcu/src/jcu_api.c ****     }
 606:../generate/sc_drivers/r_jcu/src/jcu_api.c **** 
 607:../generate/sc_drivers/r_jcu/src/jcu_api.c ****     /* R_JCU_DisableInterrupt */
 608:../generate/sc_drivers/r_jcu/src/jcu_api.c ****     was_enabled = R_JCU_DisableInterrupt();
 609:../generate/sc_drivers/r_jcu/src/jcu_api.c **** 
 610:../generate/sc_drivers/r_jcu/src/jcu_api.c ****     /* Check the status */
 611:../generate/sc_drivers/r_jcu/src/jcu_api.c ****     if ( self->AsyncStatus.Status == JCU_STATUS_UNDEF )
 612:../generate/sc_drivers/r_jcu/src/jcu_api.c ****     {
 613:../generate/sc_drivers/r_jcu/src/jcu_api.c ****         in_OnFinalized( in_OnFinalizedArgument );
 614:../generate/sc_drivers/r_jcu/src/jcu_api.c ****     }
 615:../generate/sc_drivers/r_jcu/src/jcu_api.c ****     else if ( self->AsyncStatus.Status == JCU_STATUS_RUN )
 616:../generate/sc_drivers/r_jcu/src/jcu_api.c ****     {
 617:../generate/sc_drivers/r_jcu/src/jcu_api.c ****         self->AsyncStatus.OnFinalized = in_OnFinalized;
 618:../generate/sc_drivers/r_jcu/src/jcu_api.c ****         self->AsyncStatus.OnFinalizedArgument = in_OnFinalizedArgument;
 619:../generate/sc_drivers/r_jcu/src/jcu_api.c **** 
 620:../generate/sc_drivers/r_jcu/src/jcu_api.c ****         self->AsyncStatus.CancelFlags |= JCU_FINALIZE_REQUEST;
 621:../generate/sc_drivers/r_jcu/src/jcu_api.c **** 
 622:../generate/sc_drivers/r_jcu/src/jcu_api.c ****         /* "R_JCU_OnInterrupted" will be called */
 623:../generate/sc_drivers/r_jcu/src/jcu_api.c ****     }
 624:../generate/sc_drivers/r_jcu/src/jcu_api.c ****     else
 625:../generate/sc_drivers/r_jcu/src/jcu_api.c ****     {
 626:../generate/sc_drivers/r_jcu/src/jcu_api.c **** 
 627:../generate/sc_drivers/r_jcu/src/jcu_api.c ****         /* R_JCU_FinalizeStep2_Sub */
 628:../generate/sc_drivers/r_jcu/src/jcu_api.c ****         e= R_JCU_FinalizeStep2_Sub();
 629:../generate/sc_drivers/r_jcu/src/jcu_api.c ****         is_callback = true;
 630:../generate/sc_drivers/r_jcu/src/jcu_api.c ****     }
 631:../generate/sc_drivers/r_jcu/src/jcu_api.c **** 
 632:../generate/sc_drivers/r_jcu/src/jcu_api.c ****     if ( oblivious != 0 )
 633:../generate/sc_drivers/r_jcu/src/jcu_api.c ****     {
 634:../generate/sc_drivers/r_jcu/src/jcu_api.c ****         e=E_JCU_OBLIVIOUS_3; goto fin;
 635:../generate/sc_drivers/r_jcu/src/jcu_api.c ****     }  /* Error: */
 636:../generate/sc_drivers/r_jcu/src/jcu_api.c ****     e=0;
 637:../generate/sc_drivers/r_jcu/src/jcu_api.c **** fin:
 638:../generate/sc_drivers/r_jcu/src/jcu_api.c ****     if ( was_enabled )
 639:../generate/sc_drivers/r_jcu/src/jcu_api.c ****     {
 640:../generate/sc_drivers/r_jcu/src/jcu_api.c ****         R_JCU_EnableInterrupt();
 641:../generate/sc_drivers/r_jcu/src/jcu_api.c ****     }
 642:../generate/sc_drivers/r_jcu/src/jcu_api.c ****     R_ERROR_Set( e );
 643:../generate/sc_drivers/r_jcu/src/jcu_api.c ****     if ( is_callback )
 644:../generate/sc_drivers/r_jcu/src/jcu_api.c ****         { in_OnFinalized( in_OnFinalizedArgument ); }
 645:../generate/sc_drivers/r_jcu/src/jcu_api.c **** 
 646:../generate/sc_drivers/r_jcu/src/jcu_api.c ****     /* Cast to an appropriate type */
 647:../generate/sc_drivers/r_jcu/src/jcu_api.c ****     return  (jcu_errorcode_t) e;
 648:../generate/sc_drivers/r_jcu/src/jcu_api.c **** } /* End of function R_JCU_TerminateAsync_ST */
 649:../generate/sc_drivers/r_jcu/src/jcu_api.c **** 
 650:../generate/sc_drivers/r_jcu/src/jcu_api.c **** 
 651:../generate/sc_drivers/r_jcu/src/jcu_api.c **** /***********************************************************************
 652:../generate/sc_drivers/r_jcu/src/jcu_api.c **** * Function Name: R_JCU_FinalizeStep2_Sub
 653:../generate/sc_drivers/r_jcu/src/jcu_api.c **** *    Terminate the driver function (for internal)
 654:../generate/sc_drivers/r_jcu/src/jcu_api.c **** *
 655:../generate/sc_drivers/r_jcu/src/jcu_api.c **** * Arguments:
 656:../generate/sc_drivers/r_jcu/src/jcu_api.c **** *    None
 657:../generate/sc_drivers/r_jcu/src/jcu_api.c **** *
 658:../generate/sc_drivers/r_jcu/src/jcu_api.c **** * Return Value:
 659:../generate/sc_drivers/r_jcu/src/jcu_api.c **** *    <jcu_errorcode_t> type.
 660:../generate/sc_drivers/r_jcu/src/jcu_api.c **** ************************************************************************/
 661:../generate/sc_drivers/r_jcu/src/jcu_api.c **** jcu_errorcode_t  R_JCU_FinalizeStep2_Sub(void) 
 662:../generate/sc_drivers/r_jcu/src/jcu_api.c **** {
 663:../generate/sc_drivers/r_jcu/src/jcu_api.c ****     errnum_t  e;
 664:../generate/sc_drivers/r_jcu/src/jcu_api.c ****     jcu_internal_information_t*
 665:../generate/sc_drivers/r_jcu/src/jcu_api.c ****         const  self = &gs_jcu_internal_information; 
 666:../generate/sc_drivers/r_jcu/src/jcu_api.c **** 
 667:../generate/sc_drivers/r_jcu/src/jcu_api.c **** 
 668:../generate/sc_drivers/r_jcu/src/jcu_api.c ****     /* Set the updated status */
 669:../generate/sc_drivers/r_jcu/src/jcu_api.c ****     self->AsyncStatus.CancelFlags = 0;
 670:../generate/sc_drivers/r_jcu/src/jcu_api.c ****     self->AsyncStatus.Status = JCU_STATUS_UNDEF;
 671:../generate/sc_drivers/r_jcu/src/jcu_api.c **** 
 672:../generate/sc_drivers/r_jcu/src/jcu_api.c **** 
 673:../generate/sc_drivers/r_jcu/src/jcu_api.c ****     /* Run the additional function selected by parameter */
 674:../generate/sc_drivers/r_jcu/src/jcu_api.c ****     e= R_JCU_OnFinalize();
 675:../generate/sc_drivers/r_jcu/src/jcu_api.c ****     if(e)
 676:../generate/sc_drivers/r_jcu/src/jcu_api.c ****     {
 677:../generate/sc_drivers/r_jcu/src/jcu_api.c ****         goto fin;
 678:../generate/sc_drivers/r_jcu/src/jcu_api.c ****     }
 679:../generate/sc_drivers/r_jcu/src/jcu_api.c **** 
 680:../generate/sc_drivers/r_jcu/src/jcu_api.c ****     e=0;
 681:../generate/sc_drivers/r_jcu/src/jcu_api.c **** fin:
 682:../generate/sc_drivers/r_jcu/src/jcu_api.c ****     {
 683:../generate/sc_drivers/r_jcu/src/jcu_api.c ****         R_ERROR_Set(e);
 684:../generate/sc_drivers/r_jcu/src/jcu_api.c ****     }
 685:../generate/sc_drivers/r_jcu/src/jcu_api.c **** 
 686:../generate/sc_drivers/r_jcu/src/jcu_api.c ****     /* Cast to an appropriate type */
 687:../generate/sc_drivers/r_jcu/src/jcu_api.c ****     return  (jcu_errorcode_t) e;
 688:../generate/sc_drivers/r_jcu/src/jcu_api.c **** } /* End of function R_JCU_FinalizeStep2_Sub */
 689:../generate/sc_drivers/r_jcu/src/jcu_api.c **** 
 690:../generate/sc_drivers/r_jcu/src/jcu_api.c **** 
 691:../generate/sc_drivers/r_jcu/src/jcu_api.c **** /***********************************************************************
 692:../generate/sc_drivers/r_jcu/src/jcu_api.c **** * Implement: R_JCU_SelectCodec_ST
 693:../generate/sc_drivers/r_jcu/src/jcu_api.c **** ************************************************************************/
 694:../generate/sc_drivers/r_jcu/src/jcu_api.c **** /* ->SEC M1.1.1 API Function */
 695:../generate/sc_drivers/r_jcu/src/jcu_api.c **** /******************************************************************************
 696:../generate/sc_drivers/r_jcu/src/jcu_api.c ****  * Function Name: R_JCU_SelectCodec_ST
 697:../generate/sc_drivers/r_jcu/src/jcu_api.c ****  * Description  : .
 698:../generate/sc_drivers/r_jcu/src/jcu_api.c ****  * Arguments    : .
 699:../generate/sc_drivers/r_jcu/src/jcu_api.c ****  * Return Value : .
 700:../generate/sc_drivers/r_jcu/src/jcu_api.c ****  *****************************************************************************/
 701:../generate/sc_drivers/r_jcu/src/jcu_api.c **** jcu_errorcode_t R_JCU_SelectCodec_ST( const jcu_codec_t codec )   
 702:../generate/sc_drivers/r_jcu/src/jcu_api.c **** 
 703:../generate/sc_drivers/r_jcu/src/jcu_api.c **** /* <-SEC M1.1.1 */
 704:../generate/sc_drivers/r_jcu/src/jcu_api.c **** {
 705:../generate/sc_drivers/r_jcu/src/jcu_api.c ****     errnum_t          e;
 706:../generate/sc_drivers/r_jcu/src/jcu_api.c ****     bool_t            was_enabled; /* = false; */ /* QAC 3197 */
 707:../generate/sc_drivers/r_jcu/src/jcu_api.c ****     jcu_internal_information_t*
 708:../generate/sc_drivers/r_jcu/src/jcu_api.c ****         const  self = &gs_jcu_internal_information; 
 709:../generate/sc_drivers/r_jcu/src/jcu_api.c **** 
 710:../generate/sc_drivers/r_jcu/src/jcu_api.c **** 
 711:../generate/sc_drivers/r_jcu/src/jcu_api.c ****     was_enabled = R_JCU_DisableInterrupt();
 712:../generate/sc_drivers/r_jcu/src/jcu_api.c **** 
 713:../generate/sc_drivers/r_jcu/src/jcu_api.c ****     #if  ! defined( JCU_RELEASE )
 714:../generate/sc_drivers/r_jcu/src/jcu_api.c ****         if (!(
 715:../generate/sc_drivers/r_jcu/src/jcu_api.c ****             (self->AsyncStatus.Status == JCU_STATUS_INIT)  ||
 716:../generate/sc_drivers/r_jcu/src/jcu_api.c ****             (self->AsyncStatus.Status == JCU_STATUS_SELECTED)  ||
 717:../generate/sc_drivers/r_jcu/src/jcu_api.c ****             (self->AsyncStatus.Status == JCU_STATUS_READY) ))
 718:../generate/sc_drivers/r_jcu/src/jcu_api.c ****         {
 719:../generate/sc_drivers/r_jcu/src/jcu_api.c ****             e = JCU_ERROR_STATUS_2;
 720:../generate/sc_drivers/r_jcu/src/jcu_api.c ****             goto fin;
 721:../generate/sc_drivers/r_jcu/src/jcu_api.c ****         }  /* Error: <State/> */
 722:../generate/sc_drivers/r_jcu/src/jcu_api.c **** 
 723:../generate/sc_drivers/r_jcu/src/jcu_api.c ****         e= JCU_ParaCheckSelectCodec(codec);
 724:../generate/sc_drivers/r_jcu/src/jcu_api.c ****         if(e)
 725:../generate/sc_drivers/r_jcu/src/jcu_api.c ****         {
 726:../generate/sc_drivers/r_jcu/src/jcu_api.c ****             goto fin;
 727:../generate/sc_drivers/r_jcu/src/jcu_api.c ****         }
 728:../generate/sc_drivers/r_jcu/src/jcu_api.c ****     #endif
 729:../generate/sc_drivers/r_jcu/src/jcu_api.c **** 
 730:../generate/sc_drivers/r_jcu/src/jcu_api.c ****     /* Clear the count mode flag */
 731:../generate/sc_drivers/r_jcu/src/jcu_api.c ****     self->IsCountMode = false;
 732:../generate/sc_drivers/r_jcu/src/jcu_api.c **** 
 733:../generate/sc_drivers/r_jcu/src/jcu_api.c ****     /* Register set */
 734:../generate/sc_drivers/r_jcu/src/jcu_api.c ****     JCU_SetRegisterForCodec(codec);
 735:../generate/sc_drivers/r_jcu/src/jcu_api.c ****     if ( codec == JCU_DECODE )
 736:../generate/sc_drivers/r_jcu/src/jcu_api.c ****     {
 737:../generate/sc_drivers/r_jcu/src/jcu_api.c ****         JCU_SetRegisterForSetPause( false,  self->ErrorFilter );  /* Clear previous decoding settin
 738:../generate/sc_drivers/r_jcu/src/jcu_api.c ****     }
 739:../generate/sc_drivers/r_jcu/src/jcu_api.c **** 
 740:../generate/sc_drivers/r_jcu/src/jcu_api.c ****     /* Set the updated status */
 741:../generate/sc_drivers/r_jcu/src/jcu_api.c ****     self->AsyncStatus.Status = JCU_STATUS_SELECTED;
 742:../generate/sc_drivers/r_jcu/src/jcu_api.c ****     self->AsyncStatus.IsPaused = false;
 743:../generate/sc_drivers/r_jcu/src/jcu_api.c **** 
 744:../generate/sc_drivers/r_jcu/src/jcu_api.c ****     /* Set codec type to internal information variable */
 745:../generate/sc_drivers/r_jcu/src/jcu_api.c ****     switch (codec)
 746:../generate/sc_drivers/r_jcu/src/jcu_api.c ****     {
 747:../generate/sc_drivers/r_jcu/src/jcu_api.c ****         case JCU_ENCODE:
 748:../generate/sc_drivers/r_jcu/src/jcu_api.c ****             self->Codec = JCU_STATUS_ENCODE;
 749:../generate/sc_drivers/r_jcu/src/jcu_api.c ****         break;
 750:../generate/sc_drivers/r_jcu/src/jcu_api.c ****         case JCU_DECODE:
 751:../generate/sc_drivers/r_jcu/src/jcu_api.c ****             self->Codec = JCU_STATUS_DECODE;
 752:../generate/sc_drivers/r_jcu/src/jcu_api.c ****         break;
 753:../generate/sc_drivers/r_jcu/src/jcu_api.c **** 
 754:../generate/sc_drivers/r_jcu/src/jcu_api.c ****     /* ->QAC 2018 : For MISRA 15.3, SEC R3.5.2 */
 755:../generate/sc_drivers/r_jcu/src/jcu_api.c ****         default:
 756:../generate/sc_drivers/r_jcu/src/jcu_api.c **** 
 757:../generate/sc_drivers/r_jcu/src/jcu_api.c ****     /* <-QAC 2018 */
 758:../generate/sc_drivers/r_jcu/src/jcu_api.c ****     /* NOT REACHED */
 759:../generate/sc_drivers/r_jcu/src/jcu_api.c ****         break;
 760:../generate/sc_drivers/r_jcu/src/jcu_api.c ****     } /* end switch */
 761:../generate/sc_drivers/r_jcu/src/jcu_api.c **** 
 762:../generate/sc_drivers/r_jcu/src/jcu_api.c ****     e = 0;
 763:../generate/sc_drivers/r_jcu/src/jcu_api.c **** fin:
 764:../generate/sc_drivers/r_jcu/src/jcu_api.c ****     if ( was_enabled )
 765:../generate/sc_drivers/r_jcu/src/jcu_api.c ****     {
 766:../generate/sc_drivers/r_jcu/src/jcu_api.c ****         R_JCU_EnableInterrupt();
 767:../generate/sc_drivers/r_jcu/src/jcu_api.c ****     }
 768:../generate/sc_drivers/r_jcu/src/jcu_api.c ****     R_ERROR_Set( e );
 769:../generate/sc_drivers/r_jcu/src/jcu_api.c **** 
 770:../generate/sc_drivers/r_jcu/src/jcu_api.c ****     /* Cast to an appropriate type */
 771:../generate/sc_drivers/r_jcu/src/jcu_api.c ****     return  (jcu_errorcode_t) e;
 772:../generate/sc_drivers/r_jcu/src/jcu_api.c **** } /* End of function R_JCU_SelectCodec_ST */
 773:../generate/sc_drivers/r_jcu/src/jcu_api.c **** 
 774:../generate/sc_drivers/r_jcu/src/jcu_api.c **** 
 775:../generate/sc_drivers/r_jcu/src/jcu_api.c **** /***********************************************************************
 776:../generate/sc_drivers/r_jcu/src/jcu_api.c **** * Implement: R_JCU_StartAsync_ST
 777:../generate/sc_drivers/r_jcu/src/jcu_api.c **** ************************************************************************/
 778:../generate/sc_drivers/r_jcu/src/jcu_api.c **** /* ->SEC M1.1.1 API Function */
 779:../generate/sc_drivers/r_jcu/src/jcu_api.c **** /******************************************************************************
 780:../generate/sc_drivers/r_jcu/src/jcu_api.c ****  * Function Name: R_JCU_StartAsync_ST
 781:../generate/sc_drivers/r_jcu/src/jcu_api.c ****  * Description  : .
 782:../generate/sc_drivers/r_jcu/src/jcu_api.c ****  * Arguments    : .
 783:../generate/sc_drivers/r_jcu/src/jcu_api.c ****  * Return Value : .
 784:../generate/sc_drivers/r_jcu/src/jcu_api.c ****  *****************************************************************************/
 785:../generate/sc_drivers/r_jcu/src/jcu_api.c **** static jcu_errorcode_t  R_JCU_StartAsync_ST( r_co_function_t  in_OnFinished, 
 786:../generate/sc_drivers/r_jcu/src/jcu_api.c ****         volatile void*  in_OnFinishedArgument )
 787:../generate/sc_drivers/r_jcu/src/jcu_api.c **** 
 788:../generate/sc_drivers/r_jcu/src/jcu_api.c **** /* <-SEC M1.1.1 */
 789:../generate/sc_drivers/r_jcu/src/jcu_api.c **** {
 790:../generate/sc_drivers/r_jcu/src/jcu_api.c ****     errnum_t          e;
 791:../generate/sc_drivers/r_jcu/src/jcu_api.c ****     bool_t            was_enabled; /* = false; */ /* QAC 3197 */
 792:../generate/sc_drivers/r_jcu/src/jcu_api.c ****     jcu_internal_information_t*
 793:../generate/sc_drivers/r_jcu/src/jcu_api.c ****         const  self = &gs_jcu_internal_information; 
 794:../generate/sc_drivers/r_jcu/src/jcu_api.c **** 
 795:../generate/sc_drivers/r_jcu/src/jcu_api.c **** 
 796:../generate/sc_drivers/r_jcu/src/jcu_api.c ****     was_enabled = R_JCU_DisableInterrupt();
 797:../generate/sc_drivers/r_jcu/src/jcu_api.c **** 
 798:../generate/sc_drivers/r_jcu/src/jcu_api.c ****     #if  ! defined( JCU_RELEASE )
 799:../generate/sc_drivers/r_jcu/src/jcu_api.c ****         if (!( self->AsyncStatus.Status == JCU_STATUS_READY ))
 800:../generate/sc_drivers/r_jcu/src/jcu_api.c ****             { e = JCU_ERROR_STATUS_3;  goto fin; }  /* Error: <State/> */
 801:../generate/sc_drivers/r_jcu/src/jcu_api.c **** 
 802:../generate/sc_drivers/r_jcu/src/jcu_api.c ****         /* Cast to an appropriate type */
 803:../generate/sc_drivers/r_jcu/src/jcu_api.c ****         if (!( in_OnFinished != NULL ))
 804:../generate/sc_drivers/r_jcu/src/jcu_api.c ****             { e = JCU_ERROR_PARAM_2;  goto fin; }  /* Error: <Parameter/> */
 805:../generate/sc_drivers/r_jcu/src/jcu_api.c **** 
 806:../generate/sc_drivers/r_jcu/src/jcu_api.c ****         e= JCU_ParaCheckStart();
 807:../generate/sc_drivers/r_jcu/src/jcu_api.c ****         if(e)
 808:../generate/sc_drivers/r_jcu/src/jcu_api.c ****         {
 809:../generate/sc_drivers/r_jcu/src/jcu_api.c ****             goto fin;
 810:../generate/sc_drivers/r_jcu/src/jcu_api.c ****         }
 811:../generate/sc_drivers/r_jcu/src/jcu_api.c ****     #endif
 812:../generate/sc_drivers/r_jcu/src/jcu_api.c **** 
 813:../generate/sc_drivers/r_jcu/src/jcu_api.c ****     self->AsyncStatus.OnFinished = in_OnFinished;
 814:../generate/sc_drivers/r_jcu/src/jcu_api.c ****     self->AsyncStatus.OnFinishedArgument = in_OnFinishedArgument;
 815:../generate/sc_drivers/r_jcu/src/jcu_api.c ****     self->AsyncStatus.ReturnValue = 0;
 816:../generate/sc_drivers/r_jcu/src/jcu_api.c **** 
 817:../generate/sc_drivers/r_jcu/src/jcu_api.c ****     self->AsyncStatus.Status = JCU_STATUS_RUN;
 818:../generate/sc_drivers/r_jcu/src/jcu_api.c ****     JCU_SetRegisterForStart( self->ErrorFilter );
 819:../generate/sc_drivers/r_jcu/src/jcu_api.c **** 
 820:../generate/sc_drivers/r_jcu/src/jcu_api.c ****     e = 0;
 821:../generate/sc_drivers/r_jcu/src/jcu_api.c **** fin:
 822:../generate/sc_drivers/r_jcu/src/jcu_api.c ****     if ( was_enabled )
 823:../generate/sc_drivers/r_jcu/src/jcu_api.c ****     {
 824:../generate/sc_drivers/r_jcu/src/jcu_api.c ****         R_JCU_EnableInterrupt();
 825:../generate/sc_drivers/r_jcu/src/jcu_api.c ****     }
 826:../generate/sc_drivers/r_jcu/src/jcu_api.c ****     R_ERROR_Set( e );
 827:../generate/sc_drivers/r_jcu/src/jcu_api.c **** 
 828:../generate/sc_drivers/r_jcu/src/jcu_api.c ****     /* Cast to an appropriate type */
 829:../generate/sc_drivers/r_jcu/src/jcu_api.c ****     return  (jcu_errorcode_t) e;
 830:../generate/sc_drivers/r_jcu/src/jcu_api.c **** } /* End of function R_JCU_StartAsync_ST */
 831:../generate/sc_drivers/r_jcu/src/jcu_api.c **** 
 832:../generate/sc_drivers/r_jcu/src/jcu_api.c **** 
 833:../generate/sc_drivers/r_jcu/src/jcu_api.c **** /***********************************************************************
 834:../generate/sc_drivers/r_jcu/src/jcu_api.c **** * Implement: R_JCU_GetAsyncError_ST
 835:../generate/sc_drivers/r_jcu/src/jcu_api.c **** ************************************************************************/
 836:../generate/sc_drivers/r_jcu/src/jcu_api.c **** /* ->SEC M1.1.1 API Function */
 837:../generate/sc_drivers/r_jcu/src/jcu_api.c **** /******************************************************************************
 838:../generate/sc_drivers/r_jcu/src/jcu_api.c ****  * Function Name: R_JCU_GetAsyncError_ST
 839:../generate/sc_drivers/r_jcu/src/jcu_api.c ****  * Description  : .
 840:../generate/sc_drivers/r_jcu/src/jcu_api.c ****  * Arguments    : .
 841:../generate/sc_drivers/r_jcu/src/jcu_api.c ****  * Return Value : .
 842:../generate/sc_drivers/r_jcu/src/jcu_api.c ****  *****************************************************************************/
 843:../generate/sc_drivers/r_jcu/src/jcu_api.c **** static jcu_errorcode_t  R_JCU_GetAsyncError_ST() 
 844:../generate/sc_drivers/r_jcu/src/jcu_api.c **** 
 845:../generate/sc_drivers/r_jcu/src/jcu_api.c **** /* <-SEC M1.1.1 */
 846:../generate/sc_drivers/r_jcu/src/jcu_api.c **** {
  25              		.loc 1 846 0
  26              		.cfi_startproc
  27              		@ args = 0, pretend = 0, frame = 0
  28              		@ frame_needed = 0, uses_anonymous_args = 0
  29 0000 10402DE9 		push	{r4, lr}
  30              		.cfi_def_cfa_offset 8
  31              		.cfi_offset 4, -8
  32              		.cfi_offset 14, -4
  33              	.LVL0:
 847:../generate/sc_drivers/r_jcu/src/jcu_api.c ****     errnum_t  e;
 848:../generate/sc_drivers/r_jcu/src/jcu_api.c **** 
 849:../generate/sc_drivers/r_jcu/src/jcu_api.c ****     jcu_internal_information_t*
 850:../generate/sc_drivers/r_jcu/src/jcu_api.c ****         const  self = &gs_jcu_internal_information; 
 851:../generate/sc_drivers/r_jcu/src/jcu_api.c **** 
 852:../generate/sc_drivers/r_jcu/src/jcu_api.c ****     e= self->AsyncStatus.ReturnValue;
  34              		.loc 1 852 0
  35 0004 003000E3 		movw	r3, #:lower16:.LANCHOR0
  36 0008 003040E3 		movt	r3, #:upper16:.LANCHOR0
  37 000c 344093E5 		ldr	r4, [r3, #52]
  38              	.LVL1:
  39              	.L2:
 853:../generate/sc_drivers/r_jcu/src/jcu_api.c ****     if(e)
 854:../generate/sc_drivers/r_jcu/src/jcu_api.c ****     {
 855:../generate/sc_drivers/r_jcu/src/jcu_api.c ****         goto fin;
 856:../generate/sc_drivers/r_jcu/src/jcu_api.c ****     }
 857:../generate/sc_drivers/r_jcu/src/jcu_api.c **** 
 858:../generate/sc_drivers/r_jcu/src/jcu_api.c ****     e = 0;
 859:../generate/sc_drivers/r_jcu/src/jcu_api.c **** fin:
 860:../generate/sc_drivers/r_jcu/src/jcu_api.c ****     {
 861:../generate/sc_drivers/r_jcu/src/jcu_api.c ****         R_ERROR_Set(e);
  40              		.loc 1 861 0
  41 0010 0400A0E1 		mov	r0, r4
  42 0014 FEFFFFEB 		bl	R_ERROR_Set
  43              	.LVL2:
 862:../generate/sc_drivers/r_jcu/src/jcu_api.c ****     }
 863:../generate/sc_drivers/r_jcu/src/jcu_api.c **** 
 864:../generate/sc_drivers/r_jcu/src/jcu_api.c ****     /* Cast to an appropriate type */
 865:../generate/sc_drivers/r_jcu/src/jcu_api.c ****     return  (jcu_errorcode_t) e;
 866:../generate/sc_drivers/r_jcu/src/jcu_api.c **** } /* End of function R_JCU_GetAsyncError_ST */
  44              		.loc 1 866 0
  45 0018 0400A0E1 		mov	r0, r4
  46 001c 1080BDE8 		pop	{r4, pc}
  47              		.cfi_endproc
  48              	.LFE19:
  50              		.section	.text.R_JCU_SetErrorFilter_ST,"ax",%progbits
  51              		.align	2
  52              		.syntax unified
  53              		.arm
  54              		.fpu neon
  56              	R_JCU_SetErrorFilter_ST:
  57              	.LFB24:
 867:../generate/sc_drivers/r_jcu/src/jcu_api.c **** 
 868:../generate/sc_drivers/r_jcu/src/jcu_api.c **** 
 869:../generate/sc_drivers/r_jcu/src/jcu_api.c **** /***********************************************************************
 870:../generate/sc_drivers/r_jcu/src/jcu_api.c **** * Implement: R_JCU_ContinueAsync_ST
 871:../generate/sc_drivers/r_jcu/src/jcu_api.c **** ************************************************************************/
 872:../generate/sc_drivers/r_jcu/src/jcu_api.c **** /* ->SEC M1.1.1 API Function */
 873:../generate/sc_drivers/r_jcu/src/jcu_api.c **** /******************************************************************************
 874:../generate/sc_drivers/r_jcu/src/jcu_api.c ****  * Function Name: R_JCU_ContinueAsync_ST
 875:../generate/sc_drivers/r_jcu/src/jcu_api.c ****  * Description  : .
 876:../generate/sc_drivers/r_jcu/src/jcu_api.c ****  * Arguments    : .
 877:../generate/sc_drivers/r_jcu/src/jcu_api.c ****  * Return Value : .
 878:../generate/sc_drivers/r_jcu/src/jcu_api.c ****  *****************************************************************************/
 879:../generate/sc_drivers/r_jcu/src/jcu_api.c **** static jcu_errorcode_t  R_JCU_ContinueAsync_ST 
 880:../generate/sc_drivers/r_jcu/src/jcu_api.c ****     ( const jcu_continue_type_t  in_Type, r_co_function_t  in_OnFinished,  volatile void*  in_OnFin
 881:../generate/sc_drivers/r_jcu/src/jcu_api.c **** 
 882:../generate/sc_drivers/r_jcu/src/jcu_api.c **** /* <-SEC M1.1.1 */
 883:../generate/sc_drivers/r_jcu/src/jcu_api.c **** {
 884:../generate/sc_drivers/r_jcu/src/jcu_api.c ****     errnum_t          e;
 885:../generate/sc_drivers/r_jcu/src/jcu_api.c ****     bool_t            was_enabled; /* = false; */ /* QAC 3197 */
 886:../generate/sc_drivers/r_jcu/src/jcu_api.c ****     enum {            num_8_bit = 8 }; 
 887:../generate/sc_drivers/r_jcu/src/jcu_api.c ****     bit_flags32_t     mask;
 888:../generate/sc_drivers/r_jcu/src/jcu_api.c ****     jcu_internal_information_t*
 889:../generate/sc_drivers/r_jcu/src/jcu_api.c ****         const  self = &gs_jcu_internal_information; 
 890:../generate/sc_drivers/r_jcu/src/jcu_api.c **** 
 891:../generate/sc_drivers/r_jcu/src/jcu_api.c **** 
 892:../generate/sc_drivers/r_jcu/src/jcu_api.c ****     was_enabled = R_JCU_DisableInterrupt();
 893:../generate/sc_drivers/r_jcu/src/jcu_api.c **** 
 894:../generate/sc_drivers/r_jcu/src/jcu_api.c ****     #if  ! defined( JCU_RELEASE )
 895:../generate/sc_drivers/r_jcu/src/jcu_api.c ****         if (!( self->AsyncStatus.Status == JCU_STATUS_READY ))
 896:../generate/sc_drivers/r_jcu/src/jcu_api.c ****             { e = JCU_ERROR_STATUS_4; goto fin; }  /* Error: <State/> */
 897:../generate/sc_drivers/r_jcu/src/jcu_api.c **** 
 898:../generate/sc_drivers/r_jcu/src/jcu_api.c ****         if (!( self->AsyncStatus.IsPaused == true ))
 899:../generate/sc_drivers/r_jcu/src/jcu_api.c ****             { e = JCU_ERROR_STATUS_5; goto fin; }  /* Error: <State/> */
 900:../generate/sc_drivers/r_jcu/src/jcu_api.c **** 
 901:../generate/sc_drivers/r_jcu/src/jcu_api.c ****         /* Cast to an appropriate type */
 902:../generate/sc_drivers/r_jcu/src/jcu_api.c ****         if (!( in_OnFinished != NULL ))
 903:../generate/sc_drivers/r_jcu/src/jcu_api.c ****             { e = JCU_ERROR_PARAM_3; goto fin; }  /* Error: <Parameter/> */
 904:../generate/sc_drivers/r_jcu/src/jcu_api.c ****     #endif
 905:../generate/sc_drivers/r_jcu/src/jcu_api.c **** 
 906:../generate/sc_drivers/r_jcu/src/jcu_api.c ****     /* Clear the sub status flag */
 907:../generate/sc_drivers/r_jcu/src/jcu_api.c ****     switch ( in_Type )
 908:../generate/sc_drivers/r_jcu/src/jcu_api.c ****     {
 909:../generate/sc_drivers/r_jcu/src/jcu_api.c ****         case JCU_INPUT_BUFFER:
 910:../generate/sc_drivers/r_jcu/src/jcu_api.c **** 
 911:../generate/sc_drivers/r_jcu/src/jcu_api.c ****             /* Cast to an appropriate type */
 912:../generate/sc_drivers/r_jcu/src/jcu_api.c ****             mask = ( ( JCU_JINTS1_JINF | JCU_JINTS1_DINLF ) << ( (sizeof( JCU.JINTS0 )) * num_8_bit
 913:../generate/sc_drivers/r_jcu/src/jcu_api.c ****             break;
 914:../generate/sc_drivers/r_jcu/src/jcu_api.c ****         case JCU_OUTPUT_BUFFER:
 915:../generate/sc_drivers/r_jcu/src/jcu_api.c **** 
 916:../generate/sc_drivers/r_jcu/src/jcu_api.c ****             /* Cast to an appropriate type */
 917:../generate/sc_drivers/r_jcu/src/jcu_api.c ****             mask = ( ( JCU_JINTS1_DOUTLF | JCU_JINTS1_JOUTF ) << ( (sizeof( JCU.JINTS0 )) * num_8_b
 918:../generate/sc_drivers/r_jcu/src/jcu_api.c ****             break;
 919:../generate/sc_drivers/r_jcu/src/jcu_api.c ****         default:
 920:../generate/sc_drivers/r_jcu/src/jcu_api.c ****             if (!( in_Type == JCU_IMAGE_INFO ))
 921:../generate/sc_drivers/r_jcu/src/jcu_api.c ****             {
 922:../generate/sc_drivers/r_jcu/src/jcu_api.c ****                 e=JCU_ERROR_PARAM_4; goto fin;
 923:../generate/sc_drivers/r_jcu/src/jcu_api.c ****             }  /* Error: <Parameter/> */
 924:../generate/sc_drivers/r_jcu/src/jcu_api.c **** 
 925:../generate/sc_drivers/r_jcu/src/jcu_api.c ****             /* Cast to an appropriate type */
 926:../generate/sc_drivers/r_jcu/src/jcu_api.c ****             mask = JCU_JINTS0_INS3;
 927:../generate/sc_drivers/r_jcu/src/jcu_api.c ****             break;
 928:../generate/sc_drivers/r_jcu/src/jcu_api.c ****     }
 929:../generate/sc_drivers/r_jcu/src/jcu_api.c ****     if (!( IS_ANY_BITS_SET( self->AsyncStatus.SubStatusFlags, mask ) ))
 930:../generate/sc_drivers/r_jcu/src/jcu_api.c ****     {
 931:../generate/sc_drivers/r_jcu/src/jcu_api.c ****         e=JCU_ERROR_PARAM_5;
 932:../generate/sc_drivers/r_jcu/src/jcu_api.c ****         goto fin;
 933:../generate/sc_drivers/r_jcu/src/jcu_api.c ****     }  /* Error: <Parameter/> */
 934:../generate/sc_drivers/r_jcu/src/jcu_api.c ****     self->AsyncStatus.SubStatusFlags &= (~mask);
 935:../generate/sc_drivers/r_jcu/src/jcu_api.c ****     self->AsyncStatus.ReturnValue = 0;
 936:../generate/sc_drivers/r_jcu/src/jcu_api.c **** 
 937:../generate/sc_drivers/r_jcu/src/jcu_api.c ****     /* JCU will restart */
 938:../generate/sc_drivers/r_jcu/src/jcu_api.c ****     if ( self->AsyncStatus.SubStatusFlags == 0 )
 939:../generate/sc_drivers/r_jcu/src/jcu_api.c ****     {
 940:../generate/sc_drivers/r_jcu/src/jcu_api.c ****         /* Change the status */
 941:../generate/sc_drivers/r_jcu/src/jcu_api.c ****         self->AsyncStatus.Status = JCU_STATUS_RUN;
 942:../generate/sc_drivers/r_jcu/src/jcu_api.c ****         self->AsyncStatus.IsPaused = false;
 943:../generate/sc_drivers/r_jcu/src/jcu_api.c **** 
 944:../generate/sc_drivers/r_jcu/src/jcu_api.c ****         /* Register set */
 945:../generate/sc_drivers/r_jcu/src/jcu_api.c ****         JCU_SetRegisterForContinue( in_Type );
 946:../generate/sc_drivers/r_jcu/src/jcu_api.c ****     }
 947:../generate/sc_drivers/r_jcu/src/jcu_api.c **** 
 948:../generate/sc_drivers/r_jcu/src/jcu_api.c ****     /* JCU will not restart */
 949:../generate/sc_drivers/r_jcu/src/jcu_api.c ****     else
 950:../generate/sc_drivers/r_jcu/src/jcu_api.c ****     {
 951:../generate/sc_drivers/r_jcu/src/jcu_api.c ****         /* Register set */
 952:../generate/sc_drivers/r_jcu/src/jcu_api.c ****         JCU_SetRegisterForContinue( in_Type );
 953:../generate/sc_drivers/r_jcu/src/jcu_api.c **** 
 954:../generate/sc_drivers/r_jcu/src/jcu_api.c ****         /* Change the status */
 955:../generate/sc_drivers/r_jcu/src/jcu_api.c ****         self->AsyncStatus.Status = JCU_STATUS_READY;
 956:../generate/sc_drivers/r_jcu/src/jcu_api.c **** 
 957:../generate/sc_drivers/r_jcu/src/jcu_api.c ****         /* Set event flags */
 958:../generate/sc_drivers/r_jcu/src/jcu_api.c ****         in_OnFinished( in_OnFinishedArgument );
 959:../generate/sc_drivers/r_jcu/src/jcu_api.c ****     }
 960:../generate/sc_drivers/r_jcu/src/jcu_api.c **** 
 961:../generate/sc_drivers/r_jcu/src/jcu_api.c ****     e = 0;
 962:../generate/sc_drivers/r_jcu/src/jcu_api.c **** fin:
 963:../generate/sc_drivers/r_jcu/src/jcu_api.c ****     if ( was_enabled )
 964:../generate/sc_drivers/r_jcu/src/jcu_api.c ****     {
 965:../generate/sc_drivers/r_jcu/src/jcu_api.c ****         R_JCU_EnableInterrupt();
 966:../generate/sc_drivers/r_jcu/src/jcu_api.c ****     }
 967:../generate/sc_drivers/r_jcu/src/jcu_api.c ****     R_ERROR_Set( e );
 968:../generate/sc_drivers/r_jcu/src/jcu_api.c **** 
 969:../generate/sc_drivers/r_jcu/src/jcu_api.c ****     /* Cast to an appropriate type */
 970:../generate/sc_drivers/r_jcu/src/jcu_api.c ****     return  (jcu_errorcode_t) e;
 971:../generate/sc_drivers/r_jcu/src/jcu_api.c **** } /* End of function R_JCU_ContinueAsync_ST */
 972:../generate/sc_drivers/r_jcu/src/jcu_api.c **** 
 973:../generate/sc_drivers/r_jcu/src/jcu_api.c **** 
 974:../generate/sc_drivers/r_jcu/src/jcu_api.c **** /***********************************************************************
 975:../generate/sc_drivers/r_jcu/src/jcu_api.c **** * Implement: R_JCU_SetDecodeParam_ST
 976:../generate/sc_drivers/r_jcu/src/jcu_api.c **** ************************************************************************/
 977:../generate/sc_drivers/r_jcu/src/jcu_api.c **** /* ->SEC M1.1.1 API Function */
 978:../generate/sc_drivers/r_jcu/src/jcu_api.c **** /******************************************************************************
 979:../generate/sc_drivers/r_jcu/src/jcu_api.c ****  * Function Name: R_JCU_SetDecodeParam_ST
 980:../generate/sc_drivers/r_jcu/src/jcu_api.c ****  * Description  : .
 981:../generate/sc_drivers/r_jcu/src/jcu_api.c ****  * Arguments    : .
 982:../generate/sc_drivers/r_jcu/src/jcu_api.c ****  * Return Value : .
 983:../generate/sc_drivers/r_jcu/src/jcu_api.c ****  *****************************************************************************/
 984:../generate/sc_drivers/r_jcu/src/jcu_api.c **** static jcu_errorcode_t  R_JCU_SetDecodeParam_ST( 
 985:../generate/sc_drivers/r_jcu/src/jcu_api.c ****     const jcu_decode_param_t*const  in_Decode,
 986:../generate/sc_drivers/r_jcu/src/jcu_api.c ****     const jcu_buffer_param_t*const  in_Buffer )
 987:../generate/sc_drivers/r_jcu/src/jcu_api.c **** 
 988:../generate/sc_drivers/r_jcu/src/jcu_api.c **** /* <-SEC M1.1.1 */
 989:../generate/sc_drivers/r_jcu/src/jcu_api.c **** {
 990:../generate/sc_drivers/r_jcu/src/jcu_api.c ****     jcu_errorcode_t   e;
 991:../generate/sc_drivers/r_jcu/src/jcu_api.c ****     bool_t            was_enabled; /* = false; */ /* QAC 3197 */
 992:../generate/sc_drivers/r_jcu/src/jcu_api.c ****     jcu_internal_information_t*
 993:../generate/sc_drivers/r_jcu/src/jcu_api.c ****         const  self = &gs_jcu_internal_information; 
 994:../generate/sc_drivers/r_jcu/src/jcu_api.c **** 
 995:../generate/sc_drivers/r_jcu/src/jcu_api.c **** 
 996:../generate/sc_drivers/r_jcu/src/jcu_api.c ****     was_enabled = R_JCU_DisableInterrupt();
 997:../generate/sc_drivers/r_jcu/src/jcu_api.c **** 
 998:../generate/sc_drivers/r_jcu/src/jcu_api.c ****     #if  ! defined( JCU_RELEASE )
 999:../generate/sc_drivers/r_jcu/src/jcu_api.c ****         if (!(
1000:../generate/sc_drivers/r_jcu/src/jcu_api.c ****             (self->AsyncStatus.Status == JCU_STATUS_SELECTED)  ||
1001:../generate/sc_drivers/r_jcu/src/jcu_api.c ****             (self->AsyncStatus.Status == JCU_STATUS_READY) ))
1002:../generate/sc_drivers/r_jcu/src/jcu_api.c ****         {
1003:../generate/sc_drivers/r_jcu/src/jcu_api.c ****             e = JCU_ERROR_STATUS_6;
1004:../generate/sc_drivers/r_jcu/src/jcu_api.c ****             goto fin;
1005:../generate/sc_drivers/r_jcu/src/jcu_api.c ****         }  /* Error: <State/> */
1006:../generate/sc_drivers/r_jcu/src/jcu_api.c ****         if (!(
1007:../generate/sc_drivers/r_jcu/src/jcu_api.c ****             self->Codec == JCU_STATUS_DECODE ))
1008:../generate/sc_drivers/r_jcu/src/jcu_api.c ****         {
1009:../generate/sc_drivers/r_jcu/src/jcu_api.c ****             e = JCU_ERROR_STATUS_7;
1010:../generate/sc_drivers/r_jcu/src/jcu_api.c ****             goto fin;
1011:../generate/sc_drivers/r_jcu/src/jcu_api.c ****         }  /* Error: <State/> */
1012:../generate/sc_drivers/r_jcu/src/jcu_api.c **** 
1013:../generate/sc_drivers/r_jcu/src/jcu_api.c ****         /* Cast to an appropriate type */
1014:../generate/sc_drivers/r_jcu/src/jcu_api.c ****         if (!( in_Decode != NULL ))
1015:../generate/sc_drivers/r_jcu/src/jcu_api.c ****         {
1016:../generate/sc_drivers/r_jcu/src/jcu_api.c ****             e = JCU_ERROR_PARAM_6;
1017:../generate/sc_drivers/r_jcu/src/jcu_api.c ****             goto fin;
1018:../generate/sc_drivers/r_jcu/src/jcu_api.c ****         }  /* Error: <Parameter/> */
1019:../generate/sc_drivers/r_jcu/src/jcu_api.c **** 
1020:../generate/sc_drivers/r_jcu/src/jcu_api.c ****         /* Cast to an appropriate type */
1021:../generate/sc_drivers/r_jcu/src/jcu_api.c ****         if (! (in_Buffer != NULL ))
1022:../generate/sc_drivers/r_jcu/src/jcu_api.c ****         {
1023:../generate/sc_drivers/r_jcu/src/jcu_api.c ****             e = JCU_ERROR_PARAM_7;
1024:../generate/sc_drivers/r_jcu/src/jcu_api.c ****             goto fin;
1025:../generate/sc_drivers/r_jcu/src/jcu_api.c ****         }  /* Error: <Parameter/> */
1026:../generate/sc_drivers/r_jcu/src/jcu_api.c **** 
1027:../generate/sc_drivers/r_jcu/src/jcu_api.c ****         e = JCU_ParaCheckSetDecodeParam(in_Decode, in_Buffer);
1028:../generate/sc_drivers/r_jcu/src/jcu_api.c ****         if(e)
1029:../generate/sc_drivers/r_jcu/src/jcu_api.c ****         {
1030:../generate/sc_drivers/r_jcu/src/jcu_api.c ****             goto fin;
1031:../generate/sc_drivers/r_jcu/src/jcu_api.c ****         }
1032:../generate/sc_drivers/r_jcu/src/jcu_api.c ****     #endif /* ! defined( JCU_RELEASE ) */
1033:../generate/sc_drivers/r_jcu/src/jcu_api.c **** 
1034:../generate/sc_drivers/r_jcu/src/jcu_api.c ****     /* Register set */
1035:../generate/sc_drivers/r_jcu/src/jcu_api.c ****     JCU_SetRegisterForSetDecodePrm(in_Decode, in_Buffer);
1036:../generate/sc_drivers/r_jcu/src/jcu_api.c **** 
1037:../generate/sc_drivers/r_jcu/src/jcu_api.c ****     /* Set the updated status */
1038:../generate/sc_drivers/r_jcu/src/jcu_api.c ****     self->AsyncStatus.Status = JCU_STATUS_READY;
1039:../generate/sc_drivers/r_jcu/src/jcu_api.c **** 
1040:../generate/sc_drivers/r_jcu/src/jcu_api.c ****     e = 0;
1041:../generate/sc_drivers/r_jcu/src/jcu_api.c **** fin:
1042:../generate/sc_drivers/r_jcu/src/jcu_api.c ****     if ( was_enabled )
1043:../generate/sc_drivers/r_jcu/src/jcu_api.c ****     {
1044:../generate/sc_drivers/r_jcu/src/jcu_api.c ****         R_JCU_EnableInterrupt();
1045:../generate/sc_drivers/r_jcu/src/jcu_api.c ****     }
1046:../generate/sc_drivers/r_jcu/src/jcu_api.c ****     R_ERROR_Set( e );
1047:../generate/sc_drivers/r_jcu/src/jcu_api.c **** 
1048:../generate/sc_drivers/r_jcu/src/jcu_api.c ****     /* Cast to an appropriate type */
1049:../generate/sc_drivers/r_jcu/src/jcu_api.c ****     return  (jcu_errorcode_t) e;
1050:../generate/sc_drivers/r_jcu/src/jcu_api.c **** } /* End of function R_JCU_SetDecodeParam_ST */
1051:../generate/sc_drivers/r_jcu/src/jcu_api.c **** 
1052:../generate/sc_drivers/r_jcu/src/jcu_api.c **** 
1053:../generate/sc_drivers/r_jcu/src/jcu_api.c **** /***********************************************************************
1054:../generate/sc_drivers/r_jcu/src/jcu_api.c **** * Implement: R_JCU_SetPauseForImageInfo_ST
1055:../generate/sc_drivers/r_jcu/src/jcu_api.c **** ************************************************************************/
1056:../generate/sc_drivers/r_jcu/src/jcu_api.c **** /******************************************************************************
1057:../generate/sc_drivers/r_jcu/src/jcu_api.c ****  * Function Name: R_JCU_SetPauseForImageInfo_ST
1058:../generate/sc_drivers/r_jcu/src/jcu_api.c ****  * Description  : .
1059:../generate/sc_drivers/r_jcu/src/jcu_api.c ****  * Arguments    : .
1060:../generate/sc_drivers/r_jcu/src/jcu_api.c ****  * Return Value : .
1061:../generate/sc_drivers/r_jcu/src/jcu_api.c ****  *****************************************************************************/
1062:../generate/sc_drivers/r_jcu/src/jcu_api.c **** static jcu_errorcode_t R_JCU_SetPauseForImageInfo_ST 
1063:../generate/sc_drivers/r_jcu/src/jcu_api.c ****     ( const bool_t  in_IsPause )
1064:../generate/sc_drivers/r_jcu/src/jcu_api.c **** {
1065:../generate/sc_drivers/r_jcu/src/jcu_api.c ****     jcu_errorcode_t   e;
1066:../generate/sc_drivers/r_jcu/src/jcu_api.c ****     bool_t            was_enabled = false;
1067:../generate/sc_drivers/r_jcu/src/jcu_api.c ****     jcu_internal_information_t*
1068:../generate/sc_drivers/r_jcu/src/jcu_api.c ****         const  self = &gs_jcu_internal_information; 
1069:../generate/sc_drivers/r_jcu/src/jcu_api.c **** 
1070:../generate/sc_drivers/r_jcu/src/jcu_api.c **** 
1071:../generate/sc_drivers/r_jcu/src/jcu_api.c ****     #if  ! defined( JCU_RELEASE )
1072:../generate/sc_drivers/r_jcu/src/jcu_api.c ****         if (!(
1073:../generate/sc_drivers/r_jcu/src/jcu_api.c ****             (self->AsyncStatus.Status == JCU_STATUS_SELECTED)  ||
1074:../generate/sc_drivers/r_jcu/src/jcu_api.c ****             (self->AsyncStatus.Status == JCU_STATUS_READY) ))
1075:../generate/sc_drivers/r_jcu/src/jcu_api.c ****         {
1076:../generate/sc_drivers/r_jcu/src/jcu_api.c ****             e = JCU_ERROR_STATUS_16;
1077:../generate/sc_drivers/r_jcu/src/jcu_api.c ****             goto fin;
1078:../generate/sc_drivers/r_jcu/src/jcu_api.c ****         }  /* Error: Not called "R_JCU_SelectCodec" yet */
1079:../generate/sc_drivers/r_jcu/src/jcu_api.c **** 
1080:../generate/sc_drivers/r_jcu/src/jcu_api.c ****         /* Writing to the register is not effective before reset by "R_JCU_SelectCodec" */
1081:../generate/sc_drivers/r_jcu/src/jcu_api.c ****     #endif
1082:../generate/sc_drivers/r_jcu/src/jcu_api.c **** 
1083:../generate/sc_drivers/r_jcu/src/jcu_api.c **** 
1084:../generate/sc_drivers/r_jcu/src/jcu_api.c ****     was_enabled = R_JCU_DisableInterrupt();
1085:../generate/sc_drivers/r_jcu/src/jcu_api.c **** 
1086:../generate/sc_drivers/r_jcu/src/jcu_api.c ****     #if  ! defined( JCU_RELEASE )
1087:../generate/sc_drivers/r_jcu/src/jcu_api.c ****         if (!(
1088:../generate/sc_drivers/r_jcu/src/jcu_api.c ****             (self->AsyncStatus.Status == JCU_STATUS_SELECTED)  ||
1089:../generate/sc_drivers/r_jcu/src/jcu_api.c ****             (self->AsyncStatus.Status == JCU_STATUS_READY) ))
1090:../generate/sc_drivers/r_jcu/src/jcu_api.c ****         {
1091:../generate/sc_drivers/r_jcu/src/jcu_api.c ****             e = JCU_ERROR_STATUS_8;
1092:../generate/sc_drivers/r_jcu/src/jcu_api.c ****             goto fin;
1093:../generate/sc_drivers/r_jcu/src/jcu_api.c ****         }  /* Error: <State/> */
1094:../generate/sc_drivers/r_jcu/src/jcu_api.c ****         if (!(
1095:../generate/sc_drivers/r_jcu/src/jcu_api.c ****             self->Codec == JCU_STATUS_DECODE ))
1096:../generate/sc_drivers/r_jcu/src/jcu_api.c ****         {
1097:../generate/sc_drivers/r_jcu/src/jcu_api.c ****             e = JCU_ERROR_STATUS_9;
1098:../generate/sc_drivers/r_jcu/src/jcu_api.c ****             goto fin;
1099:../generate/sc_drivers/r_jcu/src/jcu_api.c ****         }  /* Error: <State/> */
1100:../generate/sc_drivers/r_jcu/src/jcu_api.c ****     #endif
1101:../generate/sc_drivers/r_jcu/src/jcu_api.c **** 
1102:../generate/sc_drivers/r_jcu/src/jcu_api.c ****     /* Register set */
1103:../generate/sc_drivers/r_jcu/src/jcu_api.c ****     JCU_SetRegisterForSetPause( in_IsPause, self->ErrorFilter );
1104:../generate/sc_drivers/r_jcu/src/jcu_api.c **** 
1105:../generate/sc_drivers/r_jcu/src/jcu_api.c ****     e = 0;
1106:../generate/sc_drivers/r_jcu/src/jcu_api.c **** fin:
1107:../generate/sc_drivers/r_jcu/src/jcu_api.c ****     if ( was_enabled )
1108:../generate/sc_drivers/r_jcu/src/jcu_api.c ****     {
1109:../generate/sc_drivers/r_jcu/src/jcu_api.c ****         R_JCU_EnableInterrupt();
1110:../generate/sc_drivers/r_jcu/src/jcu_api.c ****     }
1111:../generate/sc_drivers/r_jcu/src/jcu_api.c ****     R_ERROR_Set( e );
1112:../generate/sc_drivers/r_jcu/src/jcu_api.c **** 
1113:../generate/sc_drivers/r_jcu/src/jcu_api.c ****     /* Cast to an appropriate type */
1114:../generate/sc_drivers/r_jcu/src/jcu_api.c ****     return  (jcu_errorcode_t) e;
1115:../generate/sc_drivers/r_jcu/src/jcu_api.c **** } /* End of function R_JCU_SetPauseForImageInfo_ST */
1116:../generate/sc_drivers/r_jcu/src/jcu_api.c **** 
1117:../generate/sc_drivers/r_jcu/src/jcu_api.c **** 
1118:../generate/sc_drivers/r_jcu/src/jcu_api.c **** /***********************************************************************
1119:../generate/sc_drivers/r_jcu/src/jcu_api.c **** * Implement: R_JCU_GetImageInfo_ST
1120:../generate/sc_drivers/r_jcu/src/jcu_api.c **** ************************************************************************/
1121:../generate/sc_drivers/r_jcu/src/jcu_api.c **** /* ->SEC M1.1.1 API Function */
1122:../generate/sc_drivers/r_jcu/src/jcu_api.c **** /******************************************************************************
1123:../generate/sc_drivers/r_jcu/src/jcu_api.c ****  * Function Name: R_JCU_GetImageInfo_ST
1124:../generate/sc_drivers/r_jcu/src/jcu_api.c ****  * Description  : .
1125:../generate/sc_drivers/r_jcu/src/jcu_api.c ****  * Arguments    : .
1126:../generate/sc_drivers/r_jcu/src/jcu_api.c ****  * Return Value : .
1127:../generate/sc_drivers/r_jcu/src/jcu_api.c ****  *****************************************************************************/
1128:../generate/sc_drivers/r_jcu/src/jcu_api.c **** jcu_errorcode_t R_JCU_GetImageInfo_ST   
1129:../generate/sc_drivers/r_jcu/src/jcu_api.c ****     ( jcu_image_info_t* const  out_Buffer )
1130:../generate/sc_drivers/r_jcu/src/jcu_api.c **** 
1131:../generate/sc_drivers/r_jcu/src/jcu_api.c **** /* <-SEC M1.1.1 */
1132:../generate/sc_drivers/r_jcu/src/jcu_api.c **** {
1133:../generate/sc_drivers/r_jcu/src/jcu_api.c ****     jcu_errorcode_t   e;
1134:../generate/sc_drivers/r_jcu/src/jcu_api.c ****     bool_t            was_enabled; /* = false; */ /* QAC 3197 */
1135:../generate/sc_drivers/r_jcu/src/jcu_api.c ****     jcu_internal_information_t*
1136:../generate/sc_drivers/r_jcu/src/jcu_api.c ****             const  self = &gs_jcu_internal_information; 
1137:../generate/sc_drivers/r_jcu/src/jcu_api.c **** 
1138:../generate/sc_drivers/r_jcu/src/jcu_api.c **** 
1139:../generate/sc_drivers/r_jcu/src/jcu_api.c ****     was_enabled = R_JCU_DisableInterrupt();
1140:../generate/sc_drivers/r_jcu/src/jcu_api.c **** 
1141:../generate/sc_drivers/r_jcu/src/jcu_api.c ****     #if  ! defined( JCU_RELEASE )
1142:../generate/sc_drivers/r_jcu/src/jcu_api.c ****         if (!( self->AsyncStatus.Status == JCU_STATUS_READY ))
1143:../generate/sc_drivers/r_jcu/src/jcu_api.c ****         {
1144:../generate/sc_drivers/r_jcu/src/jcu_api.c ****             e = JCU_ERROR_STATUS_A;
1145:../generate/sc_drivers/r_jcu/src/jcu_api.c ****             goto fin;
1146:../generate/sc_drivers/r_jcu/src/jcu_api.c ****         }  /* Error: <State/> */
1147:../generate/sc_drivers/r_jcu/src/jcu_api.c **** 
1148:../generate/sc_drivers/r_jcu/src/jcu_api.c ****         if (!( self->Codec == JCU_STATUS_DECODE ))
1149:../generate/sc_drivers/r_jcu/src/jcu_api.c ****         {
1150:../generate/sc_drivers/r_jcu/src/jcu_api.c ****             e = JCU_ERROR_STATUS_B;
1151:../generate/sc_drivers/r_jcu/src/jcu_api.c ****             goto fin;
1152:../generate/sc_drivers/r_jcu/src/jcu_api.c ****         }  /* Error: <State/> */
1153:../generate/sc_drivers/r_jcu/src/jcu_api.c **** 
1154:../generate/sc_drivers/r_jcu/src/jcu_api.c ****         /* Cast to an appropriate type */
1155:../generate/sc_drivers/r_jcu/src/jcu_api.c ****         if (!( out_Buffer != NULL ))
1156:../generate/sc_drivers/r_jcu/src/jcu_api.c ****         {
1157:../generate/sc_drivers/r_jcu/src/jcu_api.c ****             e = JCU_ERROR_PARAM_8;
1158:../generate/sc_drivers/r_jcu/src/jcu_api.c ****             goto fin;
1159:../generate/sc_drivers/r_jcu/src/jcu_api.c ****         }  /* Error: <Parameter/> */
1160:../generate/sc_drivers/r_jcu/src/jcu_api.c **** 
1161:../generate/sc_drivers/r_jcu/src/jcu_api.c ****         e = JCU_ParaCheckGetImageInfo( out_Buffer );
1162:../generate/sc_drivers/r_jcu/src/jcu_api.c ****         if(e)
1163:../generate/sc_drivers/r_jcu/src/jcu_api.c ****         {
1164:../generate/sc_drivers/r_jcu/src/jcu_api.c ****             goto fin;
1165:../generate/sc_drivers/r_jcu/src/jcu_api.c ****         }
1166:../generate/sc_drivers/r_jcu/src/jcu_api.c ****     #endif
1167:../generate/sc_drivers/r_jcu/src/jcu_api.c **** 
1168:../generate/sc_drivers/r_jcu/src/jcu_api.c ****     /* Register set */
1169:../generate/sc_drivers/r_jcu/src/jcu_api.c ****     JCU_GetRegisterForGetImageInfo( out_Buffer );
1170:../generate/sc_drivers/r_jcu/src/jcu_api.c **** 
1171:../generate/sc_drivers/r_jcu/src/jcu_api.c ****     e = 0;
1172:../generate/sc_drivers/r_jcu/src/jcu_api.c **** fin:
1173:../generate/sc_drivers/r_jcu/src/jcu_api.c ****     if ( was_enabled )
1174:../generate/sc_drivers/r_jcu/src/jcu_api.c ****     {
1175:../generate/sc_drivers/r_jcu/src/jcu_api.c ****         R_JCU_EnableInterrupt();
1176:../generate/sc_drivers/r_jcu/src/jcu_api.c ****     }
1177:../generate/sc_drivers/r_jcu/src/jcu_api.c ****     R_ERROR_Set( e );
1178:../generate/sc_drivers/r_jcu/src/jcu_api.c **** 
1179:../generate/sc_drivers/r_jcu/src/jcu_api.c ****     /* Cast to an appropriate type */
1180:../generate/sc_drivers/r_jcu/src/jcu_api.c ****     return  (jcu_errorcode_t) e;
1181:../generate/sc_drivers/r_jcu/src/jcu_api.c **** } /* End of function R_JCU_GetImageInfo_ST */
1182:../generate/sc_drivers/r_jcu/src/jcu_api.c **** 
1183:../generate/sc_drivers/r_jcu/src/jcu_api.c **** 
1184:../generate/sc_drivers/r_jcu/src/jcu_api.c **** /***********************************************************************
1185:../generate/sc_drivers/r_jcu/src/jcu_api.c **** * Implement: R_JCU_SetErrorFilter_ST
1186:../generate/sc_drivers/r_jcu/src/jcu_api.c **** ************************************************************************/
1187:../generate/sc_drivers/r_jcu/src/jcu_api.c **** /******************************************************************************
1188:../generate/sc_drivers/r_jcu/src/jcu_api.c ****  * Function Name: R_JCU_SetErrorFilter_ST
1189:../generate/sc_drivers/r_jcu/src/jcu_api.c ****  * Description  : .
1190:../generate/sc_drivers/r_jcu/src/jcu_api.c ****  * Arguments    : .
1191:../generate/sc_drivers/r_jcu/src/jcu_api.c ****  * Return Value : .
1192:../generate/sc_drivers/r_jcu/src/jcu_api.c ****  *****************************************************************************/
1193:../generate/sc_drivers/r_jcu/src/jcu_api.c **** static jcu_errorcode_t  R_JCU_SetErrorFilter_ST 
1194:../generate/sc_drivers/r_jcu/src/jcu_api.c ****     ( jcu_int_detail_errors_t  in_Filter )
1195:../generate/sc_drivers/r_jcu/src/jcu_api.c **** {
  58              		.loc 1 1195 0
  59              		.cfi_startproc
  60              		@ args = 0, pretend = 0, frame = 0
  61              		@ frame_needed = 0, uses_anonymous_args = 0
  62              	.LVL3:
  63 0000 10402DE9 		push	{r4, lr}
  64              		.cfi_def_cfa_offset 8
  65              		.cfi_offset 4, -8
  66              		.cfi_offset 14, -4
  67              	.LVL4:
1196:../generate/sc_drivers/r_jcu/src/jcu_api.c ****     jcu_errorcode_t  e;
1197:../generate/sc_drivers/r_jcu/src/jcu_api.c **** 
1198:../generate/sc_drivers/r_jcu/src/jcu_api.c ****     jcu_internal_information_t*
1199:../generate/sc_drivers/r_jcu/src/jcu_api.c ****         const  self = &gs_jcu_internal_information; 
1200:../generate/sc_drivers/r_jcu/src/jcu_api.c **** 
1201:../generate/sc_drivers/r_jcu/src/jcu_api.c ****     #if  ! defined( JCU_RELEASE )
1202:../generate/sc_drivers/r_jcu/src/jcu_api.c ****         if (!(
1203:../generate/sc_drivers/r_jcu/src/jcu_api.c ****             (self->AsyncStatus.Status == JCU_STATUS_INIT)  ||
  68              		.loc 1 1203 0
  69 0004 003000E3 		movw	r3, #:lower16:.LANCHOR0
  70 0008 003040E3 		movt	r3, #:upper16:.LANCHOR0
  71 000c 0C20D3E5 		ldrb	r2, [r3, #12]	@ zero_extendqisi2
1202:../generate/sc_drivers/r_jcu/src/jcu_api.c ****             (self->AsyncStatus.Status == JCU_STATUS_INIT)  ||
  72              		.loc 1 1202 0
  73 0010 013042E2 		sub	r3, r2, #1
  74 0014 7330EFE6 		uxtb	r3, r3
  75 0018 080052E3 		cmp	r2, #8
  76 001c 01005313 		cmpne	r3, #1
  77 0020 0500009A 		bls	.L10
1204:../generate/sc_drivers/r_jcu/src/jcu_api.c ****             (self->AsyncStatus.Status == JCU_STATUS_SELECTED)  ||
1205:../generate/sc_drivers/r_jcu/src/jcu_api.c ****             (self->AsyncStatus.Status == JCU_STATUS_READY) ))
1206:../generate/sc_drivers/r_jcu/src/jcu_api.c ****         {
1207:../generate/sc_drivers/r_jcu/src/jcu_api.c ****             e = JCU_ERROR_STATUS_C;
  78              		.loc 1 1207 0
  79 0024 834FA0E3 		mov	r4, #524
  80 0028 454041E3 		movt	r4, 4165
  81              	.L6:
  82              	.LVL5:
1208:../generate/sc_drivers/r_jcu/src/jcu_api.c ****             goto fin;
1209:../generate/sc_drivers/r_jcu/src/jcu_api.c ****         }  /* Error: <State/> */
1210:../generate/sc_drivers/r_jcu/src/jcu_api.c ****     #endif
1211:../generate/sc_drivers/r_jcu/src/jcu_api.c **** 
1212:../generate/sc_drivers/r_jcu/src/jcu_api.c ****     /* Cast to an appropriate type */
1213:../generate/sc_drivers/r_jcu/src/jcu_api.c ****     if ( IS_ANY_BITS_SET( in_Filter, (bit_flags_fast32_t) ~JCU_INT_ERROR_ALL ) )
1214:../generate/sc_drivers/r_jcu/src/jcu_api.c ****     {
1215:../generate/sc_drivers/r_jcu/src/jcu_api.c ****         e = JCU_ERROR_PARAM_9;
1216:../generate/sc_drivers/r_jcu/src/jcu_api.c ****         goto fin;
1217:../generate/sc_drivers/r_jcu/src/jcu_api.c ****     }  /* Error: <Parameter/> */
1218:../generate/sc_drivers/r_jcu/src/jcu_api.c **** 
1219:../generate/sc_drivers/r_jcu/src/jcu_api.c ****     self->ErrorFilter = in_Filter;
1220:../generate/sc_drivers/r_jcu/src/jcu_api.c **** 
1221:../generate/sc_drivers/r_jcu/src/jcu_api.c ****     e = 0;
1222:../generate/sc_drivers/r_jcu/src/jcu_api.c **** fin:
1223:../generate/sc_drivers/r_jcu/src/jcu_api.c ****     {
1224:../generate/sc_drivers/r_jcu/src/jcu_api.c ****         R_ERROR_Set(e);
  83              		.loc 1 1224 0
  84 002c 0400A0E1 		mov	r0, r4
  85              	.LVL6:
  86 0030 FEFFFFEB 		bl	R_ERROR_Set
  87              	.LVL7:
1225:../generate/sc_drivers/r_jcu/src/jcu_api.c ****     }
1226:../generate/sc_drivers/r_jcu/src/jcu_api.c **** 
1227:../generate/sc_drivers/r_jcu/src/jcu_api.c ****     /* Cast to an appropriate type */
1228:../generate/sc_drivers/r_jcu/src/jcu_api.c ****     return  (jcu_errorcode_t) e;
1229:../generate/sc_drivers/r_jcu/src/jcu_api.c **** } /* End of function R_JCU_SetErrorFilter_ST */
  88              		.loc 1 1229 0
  89 0034 0400A0E1 		mov	r0, r4
  90 0038 1080BDE8 		pop	{r4, pc}
  91              	.LVL8:
  92              	.L10:
1213:../generate/sc_drivers/r_jcu/src/jcu_api.c ****     {
  93              		.loc 1 1213 0
  94 003c E030D0E3 		bics	r3, r0, #224
1215:../generate/sc_drivers/r_jcu/src/jcu_api.c ****         goto fin;
  95              		.loc 1 1215 0
  96 0040 09410013 		movwne	r4, #265
  97 0044 45414013 		movtne	r4, 325
  98 0048 F7FFFF1A 		bne	.L6
  99              	.L11:
1219:../generate/sc_drivers/r_jcu/src/jcu_api.c **** 
 100              		.loc 1 1219 0
 101 004c 003000E3 		movw	r3, #:lower16:.LANCHOR0
 102 0050 003040E3 		movt	r3, #:upper16:.LANCHOR0
 103 0054 080083E5 		str	r0, [r3, #8]
 104              	.LVL9:
1221:../generate/sc_drivers/r_jcu/src/jcu_api.c **** fin:
 105              		.loc 1 1221 0
 106 0058 0040A0E3 		mov	r4, #0
 107 005c F2FFFFEA 		b	.L6
 108              		.cfi_endproc
 109              	.LFE24:
 111              		.section	.text.R_JCU_SelectCodec_ST,"ax",%progbits
 112              		.align	2
 113              		.syntax unified
 114              		.arm
 115              		.fpu neon
 117              	R_JCU_SelectCodec_ST:
 118              	.LFB17:
 704:../generate/sc_drivers/r_jcu/src/jcu_api.c ****     errnum_t          e;
 119              		.loc 1 704 0
 120              		.cfi_startproc
 121              		@ args = 0, pretend = 0, frame = 0
 122              		@ frame_needed = 0, uses_anonymous_args = 0
 123              	.LVL10:
 124 0000 70402DE9 		push	{r4, r5, r6, lr}
 125              		.cfi_def_cfa_offset 16
 126              		.cfi_offset 4, -16
 127              		.cfi_offset 5, -12
 128              		.cfi_offset 6, -8
 129              		.cfi_offset 14, -4
 130 0004 0060A0E1 		mov	r6, r0
 131              	.LVL11:
 711:../generate/sc_drivers/r_jcu/src/jcu_api.c **** 
 132              		.loc 1 711 0
 133 0008 FEFFFFEB 		bl	R_JCU_DisableInterrupt
 134              	.LVL12:
 135 000c 0050A0E1 		mov	r5, r0
 136              	.LVL13:
 715:../generate/sc_drivers/r_jcu/src/jcu_api.c ****             (self->AsyncStatus.Status == JCU_STATUS_SELECTED)  ||
 137              		.loc 1 715 0
 138 0010 003000E3 		movw	r3, #:lower16:.LANCHOR0
 139 0014 003040E3 		movt	r3, #:upper16:.LANCHOR0
 140 0018 0C20D3E5 		ldrb	r2, [r3, #12]	@ zero_extendqisi2
 714:../generate/sc_drivers/r_jcu/src/jcu_api.c ****             (self->AsyncStatus.Status == JCU_STATUS_INIT)  ||
 141              		.loc 1 714 0
 142 001c 013042E2 		sub	r3, r2, #1
 143 0020 7330EFE6 		uxtb	r3, r3
 144 0024 080052E3 		cmp	r2, #8
 145 0028 01005313 		cmpne	r3, #1
 146 002c 0700009A 		bls	.L22
 719:../generate/sc_drivers/r_jcu/src/jcu_api.c ****             goto fin;
 147              		.loc 1 719 0
 148 0030 024200E3 		movw	r4, #514
 149 0034 454041E3 		movt	r4, 4165
 150              	.LVL14:
 151              	.L13:
 764:../generate/sc_drivers/r_jcu/src/jcu_api.c ****     {
 152              		.loc 1 764 0
 153 0038 000055E3 		cmp	r5, #0
 154 003c 2C00001A 		bne	.L23
 155              	.L17:
 768:../generate/sc_drivers/r_jcu/src/jcu_api.c **** 
 156              		.loc 1 768 0
 157 0040 0400A0E1 		mov	r0, r4
 158 0044 FEFFFFEB 		bl	R_ERROR_Set
 159              	.LVL15:
 772:../generate/sc_drivers/r_jcu/src/jcu_api.c **** 
 160              		.loc 1 772 0
 161 0048 0400A0E1 		mov	r0, r4
 162 004c 7080BDE8 		pop	{r4, r5, r6, pc}
 163              	.LVL16:
 164              	.L22:
 723:../generate/sc_drivers/r_jcu/src/jcu_api.c ****         if(e)
 165              		.loc 1 723 0
 166 0050 0600A0E1 		mov	r0, r6
 167              	.LVL17:
 168 0054 FEFFFFEB 		bl	JCU_ParaCheckSelectCodec
 169              	.LVL18:
 724:../generate/sc_drivers/r_jcu/src/jcu_api.c ****         {
 170              		.loc 1 724 0
 171 0058 004050E2 		subs	r4, r0, #0
 172 005c F5FFFF1A 		bne	.L13
 731:../generate/sc_drivers/r_jcu/src/jcu_api.c **** 
 173              		.loc 1 731 0
 174 0060 003000E3 		movw	r3, #:lower16:.LANCHOR0
 175 0064 003040E3 		movt	r3, #:upper16:.LANCHOR0
 176 0068 0020A0E3 		mov	r2, #0
 177 006c 042083E5 		str	r2, [r3, #4]
 734:../generate/sc_drivers/r_jcu/src/jcu_api.c ****     if ( codec == JCU_DECODE )
 178              		.loc 1 734 0
 179 0070 0600A0E1 		mov	r0, r6
 180              	.LVL19:
 181 0074 FEFFFFEB 		bl	JCU_SetRegisterForCodec
 182              	.LVL20:
 735:../generate/sc_drivers/r_jcu/src/jcu_api.c ****     {
 183              		.loc 1 735 0
 184 0078 010056E3 		cmp	r6, #1
 185 007c 0B00000A 		beq	.L24
 186              	.L14:
 741:../generate/sc_drivers/r_jcu/src/jcu_api.c ****     self->AsyncStatus.IsPaused = false;
 187              		.loc 1 741 0
 188 0080 003000E3 		movw	r3, #:lower16:.LANCHOR0
 189 0084 003040E3 		movt	r3, #:upper16:.LANCHOR0
 190 0088 0220A0E3 		mov	r2, #2
 191 008c 0C20C3E5 		strb	r2, [r3, #12]
 742:../generate/sc_drivers/r_jcu/src/jcu_api.c **** 
 192              		.loc 1 742 0
 193 0090 0020A0E3 		mov	r2, #0
 194 0094 142083E5 		str	r2, [r3, #20]
 745:../generate/sc_drivers/r_jcu/src/jcu_api.c ****     {
 195              		.loc 1 745 0
 196 0098 020056E1 		cmp	r6, r2
 197 009c 0900000A 		beq	.L15
 198 00a0 010056E3 		cmp	r6, #1
 199 00a4 0C00000A 		beq	.L16
 762:../generate/sc_drivers/r_jcu/src/jcu_api.c **** fin:
 200              		.loc 1 762 0
 201 00a8 0040A0E3 		mov	r4, #0
 202              	.LVL21:
 203 00ac E1FFFFEA 		b	.L13
 204              	.LVL22:
 205              	.L24:
 737:../generate/sc_drivers/r_jcu/src/jcu_api.c ****     }
 206              		.loc 1 737 0
 207 00b0 003000E3 		movw	r3, #:lower16:.LANCHOR0
 208 00b4 003040E3 		movt	r3, #:upper16:.LANCHOR0
 209 00b8 081093E5 		ldr	r1, [r3, #8]
 210 00bc 0000A0E3 		mov	r0, #0
 211 00c0 FEFFFFEB 		bl	JCU_SetRegisterForSetPause
 212              	.LVL23:
 213 00c4 EDFFFFEA 		b	.L14
 214              	.L15:
 748:../generate/sc_drivers/r_jcu/src/jcu_api.c ****         break;
 215              		.loc 1 748 0
 216 00c8 003000E3 		movw	r3, #:lower16:.LANCHOR0
 217 00cc 003040E3 		movt	r3, #:upper16:.LANCHOR0
 218 00d0 0040A0E3 		mov	r4, #0
 219              	.LVL24:
 220 00d4 0040C3E5 		strb	r4, [r3]
 749:../generate/sc_drivers/r_jcu/src/jcu_api.c ****         case JCU_DECODE:
 221              		.loc 1 749 0
 222 00d8 D6FFFFEA 		b	.L13
 223              	.LVL25:
 224              	.L16:
 751:../generate/sc_drivers/r_jcu/src/jcu_api.c ****         break;
 225              		.loc 1 751 0
 226 00dc 003000E3 		movw	r3, #:lower16:.LANCHOR0
 227 00e0 003040E3 		movt	r3, #:upper16:.LANCHOR0
 228 00e4 0120A0E3 		mov	r2, #1
 229 00e8 0020C3E5 		strb	r2, [r3]
 762:../generate/sc_drivers/r_jcu/src/jcu_api.c **** fin:
 230              		.loc 1 762 0
 231 00ec 0040A0E3 		mov	r4, #0
 232              	.LVL26:
 752:../generate/sc_drivers/r_jcu/src/jcu_api.c **** 
 233              		.loc 1 752 0
 234 00f0 D0FFFFEA 		b	.L13
 235              	.LVL27:
 236              	.L23:
 766:../generate/sc_drivers/r_jcu/src/jcu_api.c ****     }
 237              		.loc 1 766 0
 238 00f4 FEFFFFEB 		bl	R_JCU_EnableInterrupt
 239              	.LVL28:
 240 00f8 D0FFFFEA 		b	.L17
 241              		.cfi_endproc
 242              	.LFE17:
 244              		.section	.text.R_JCU_SetPauseForImageInfo_ST,"ax",%progbits
 245              		.align	2
 246              		.syntax unified
 247              		.arm
 248              		.fpu neon
 250              	R_JCU_SetPauseForImageInfo_ST:
 251              	.LFB22:
1064:../generate/sc_drivers/r_jcu/src/jcu_api.c ****     jcu_errorcode_t   e;
 252              		.loc 1 1064 0
 253              		.cfi_startproc
 254              		@ args = 0, pretend = 0, frame = 0
 255              		@ frame_needed = 0, uses_anonymous_args = 0
 256              	.LVL29:
 257 0000 70402DE9 		push	{r4, r5, r6, lr}
 258              		.cfi_def_cfa_offset 16
 259              		.cfi_offset 4, -16
 260              		.cfi_offset 5, -12
 261              		.cfi_offset 6, -8
 262              		.cfi_offset 14, -4
 263              	.LVL30:
1073:../generate/sc_drivers/r_jcu/src/jcu_api.c ****             (self->AsyncStatus.Status == JCU_STATUS_READY) ))
 264              		.loc 1 1073 0
 265 0004 003000E3 		movw	r3, #:lower16:.LANCHOR0
 266 0008 003040E3 		movt	r3, #:upper16:.LANCHOR0
 267 000c 0C30D3E5 		ldrb	r3, [r3, #12]	@ zero_extendqisi2
1072:../generate/sc_drivers/r_jcu/src/jcu_api.c ****             (self->AsyncStatus.Status == JCU_STATUS_SELECTED)  ||
 268              		.loc 1 1072 0
 269 0010 020053E3 		cmp	r3, #2
 270 0014 08005313 		cmpne	r3, #8
 271 0018 0800000A 		beq	.L32
1066:../generate/sc_drivers/r_jcu/src/jcu_api.c ****     jcu_internal_information_t*
 272              		.loc 1 1066 0
 273 001c 0050A0E3 		mov	r5, #0
1076:../generate/sc_drivers/r_jcu/src/jcu_api.c ****             goto fin;
 274              		.loc 1 1076 0
 275 0020 164200E3 		movw	r4, #534
 276 0024 454041E3 		movt	r4, 4165
 277              	.LVL31:
 278              	.L26:
1107:../generate/sc_drivers/r_jcu/src/jcu_api.c ****     {
 279              		.loc 1 1107 0
 280 0028 000055E3 		cmp	r5, #0
 281 002c 1C00001A 		bne	.L33
 282              	.L27:
1111:../generate/sc_drivers/r_jcu/src/jcu_api.c **** 
 283              		.loc 1 1111 0
 284 0030 0400A0E1 		mov	r0, r4
 285 0034 FEFFFFEB 		bl	R_ERROR_Set
 286              	.LVL32:
1115:../generate/sc_drivers/r_jcu/src/jcu_api.c **** 
 287              		.loc 1 1115 0
 288 0038 0400A0E1 		mov	r0, r4
 289 003c 7080BDE8 		pop	{r4, r5, r6, pc}
 290              	.LVL33:
 291              	.L32:
 292 0040 0040A0E1 		mov	r4, r0
1084:../generate/sc_drivers/r_jcu/src/jcu_api.c **** 
 293              		.loc 1 1084 0
 294 0044 FEFFFFEB 		bl	R_JCU_DisableInterrupt
 295              	.LVL34:
 296 0048 0050A0E1 		mov	r5, r0
 297              	.LVL35:
1088:../generate/sc_drivers/r_jcu/src/jcu_api.c ****             (self->AsyncStatus.Status == JCU_STATUS_READY) ))
 298              		.loc 1 1088 0
 299 004c 003000E3 		movw	r3, #:lower16:.LANCHOR0
 300 0050 003040E3 		movt	r3, #:upper16:.LANCHOR0
 301 0054 0C30D3E5 		ldrb	r3, [r3, #12]	@ zero_extendqisi2
1087:../generate/sc_drivers/r_jcu/src/jcu_api.c ****             (self->AsyncStatus.Status == JCU_STATUS_SELECTED)  ||
 302              		.loc 1 1087 0
 303 0058 020053E3 		cmp	r3, #2
 304 005c 08005313 		cmpne	r3, #8
1091:../generate/sc_drivers/r_jcu/src/jcu_api.c ****             goto fin;
 305              		.loc 1 1091 0
 306 0060 824FA013 		movne	r4, #520
 307              	.LVL36:
 308 0064 45404113 		movtne	r4, 4165
 309 0068 EEFFFF1A 		bne	.L26
 310              	.LVL37:
 311              	.L34:
1095:../generate/sc_drivers/r_jcu/src/jcu_api.c ****         {
 312              		.loc 1 1095 0
 313 006c 003000E3 		movw	r3, #:lower16:.LANCHOR0
 314 0070 003040E3 		movt	r3, #:upper16:.LANCHOR0
 315 0074 D030D3E1 		ldrsb	r3, [r3]
1094:../generate/sc_drivers/r_jcu/src/jcu_api.c ****             self->Codec == JCU_STATUS_DECODE ))
 316              		.loc 1 1094 0
 317 0078 010053E3 		cmp	r3, #1
1097:../generate/sc_drivers/r_jcu/src/jcu_api.c ****             goto fin;
 318              		.loc 1 1097 0
 319 007c 09420013 		movwne	r4, #521
 320              	.LVL38:
 321 0080 45404113 		movtne	r4, 4165
 322 0084 E7FFFF1A 		bne	.L26
 323              	.LVL39:
 324              	.L35:
1103:../generate/sc_drivers/r_jcu/src/jcu_api.c **** 
 325              		.loc 1 1103 0
 326 0088 003000E3 		movw	r3, #:lower16:.LANCHOR0
 327 008c 003040E3 		movt	r3, #:upper16:.LANCHOR0
 328 0090 081093E5 		ldr	r1, [r3, #8]
 329 0094 0400A0E1 		mov	r0, r4
 330              	.LVL40:
 331 0098 FEFFFFEB 		bl	JCU_SetRegisterForSetPause
 332              	.LVL41:
1105:../generate/sc_drivers/r_jcu/src/jcu_api.c **** fin:
 333              		.loc 1 1105 0
 334 009c 0040A0E3 		mov	r4, #0
 335              	.LVL42:
 336 00a0 E0FFFFEA 		b	.L26
 337              	.LVL43:
 338              	.L33:
1109:../generate/sc_drivers/r_jcu/src/jcu_api.c ****     }
 339              		.loc 1 1109 0
 340 00a4 FEFFFFEB 		bl	R_JCU_EnableInterrupt
 341              	.LVL44:
 342 00a8 E0FFFFEA 		b	.L27
 343              		.cfi_endproc
 344              	.LFE22:
 346              		.section	.text.R_JCU_StartAsync_ST,"ax",%progbits
 347              		.align	2
 348              		.syntax unified
 349              		.arm
 350              		.fpu neon
 352              	R_JCU_StartAsync_ST:
 353              	.LFB18:
 789:../generate/sc_drivers/r_jcu/src/jcu_api.c ****     errnum_t          e;
 354              		.loc 1 789 0
 355              		.cfi_startproc
 356              		@ args = 0, pretend = 0, frame = 0
 357              		@ frame_needed = 0, uses_anonymous_args = 0
 358              	.LVL45:
 359 0000 F0412DE9 		push	{r4, r5, r6, r7, r8, lr}
 360              		.cfi_def_cfa_offset 24
 361              		.cfi_offset 4, -24
 362              		.cfi_offset 5, -20
 363              		.cfi_offset 6, -16
 364              		.cfi_offset 7, -12
 365              		.cfi_offset 8, -8
 366              		.cfi_offset 14, -4
 367 0004 0060A0E1 		mov	r6, r0
 368 0008 0170A0E1 		mov	r7, r1
 369              	.LVL46:
 796:../generate/sc_drivers/r_jcu/src/jcu_api.c **** 
 370              		.loc 1 796 0
 371 000c FEFFFFEB 		bl	R_JCU_DisableInterrupt
 372              	.LVL47:
 373 0010 0050A0E1 		mov	r5, r0
 374              	.LVL48:
 799:../generate/sc_drivers/r_jcu/src/jcu_api.c ****             { e = JCU_ERROR_STATUS_3;  goto fin; }  /* Error: <State/> */
 375              		.loc 1 799 0
 376 0014 003000E3 		movw	r3, #:lower16:.LANCHOR0
 377 0018 003040E3 		movt	r3, #:upper16:.LANCHOR0
 378 001c 0C30D3E5 		ldrb	r3, [r3, #12]	@ zero_extendqisi2
 379 0020 080053E3 		cmp	r3, #8
 380 0024 0700000A 		beq	.L42
 800:../generate/sc_drivers/r_jcu/src/jcu_api.c **** 
 381              		.loc 1 800 0
 382 0028 034200E3 		movw	r4, #515
 383 002c 454041E3 		movt	r4, 4165
 384              	.LVL49:
 385              	.L37:
 822:../generate/sc_drivers/r_jcu/src/jcu_api.c ****     {
 386              		.loc 1 822 0
 387 0030 000055E3 		cmp	r5, #0
 388 0034 1600001A 		bne	.L43
 389              	.L38:
 826:../generate/sc_drivers/r_jcu/src/jcu_api.c **** 
 390              		.loc 1 826 0
 391 0038 0400A0E1 		mov	r0, r4
 392 003c FEFFFFEB 		bl	R_ERROR_Set
 393              	.LVL50:
 830:../generate/sc_drivers/r_jcu/src/jcu_api.c **** 
 394              		.loc 1 830 0
 395 0040 0400A0E1 		mov	r0, r4
 396 0044 F081BDE8 		pop	{r4, r5, r6, r7, r8, pc}
 397              	.LVL51:
 398              	.L42:
 803:../generate/sc_drivers/r_jcu/src/jcu_api.c ****             { e = JCU_ERROR_PARAM_2;  goto fin; }  /* Error: <Parameter/> */
 399              		.loc 1 803 0
 400 0048 000056E3 		cmp	r6, #0
 401 004c 0D00000A 		beq	.L40
 806:../generate/sc_drivers/r_jcu/src/jcu_api.c ****         if(e)
 402              		.loc 1 806 0
 403 0050 FEFFFFEB 		bl	JCU_ParaCheckStart
 404              	.LVL52:
 807:../generate/sc_drivers/r_jcu/src/jcu_api.c ****         {
 405              		.loc 1 807 0
 406 0054 004050E2 		subs	r4, r0, #0
 407 0058 F4FFFF1A 		bne	.L37
 813:../generate/sc_drivers/r_jcu/src/jcu_api.c ****     self->AsyncStatus.OnFinishedArgument = in_OnFinishedArgument;
 408              		.loc 1 813 0
 409 005c 003000E3 		movw	r3, #:lower16:.LANCHOR0
 410 0060 003040E3 		movt	r3, #:upper16:.LANCHOR0
 411 0064 246083E5 		str	r6, [r3, #36]
 814:../generate/sc_drivers/r_jcu/src/jcu_api.c ****     self->AsyncStatus.ReturnValue = 0;
 412              		.loc 1 814 0
 413 0068 287083E5 		str	r7, [r3, #40]
 815:../generate/sc_drivers/r_jcu/src/jcu_api.c **** 
 414              		.loc 1 815 0
 415 006c 0040A0E3 		mov	r4, #0
 416 0070 344083E5 		str	r4, [r3, #52]
 817:../generate/sc_drivers/r_jcu/src/jcu_api.c ****     JCU_SetRegisterForStart( self->ErrorFilter );
 417              		.loc 1 817 0
 418 0074 1020A0E3 		mov	r2, #16
 419 0078 0C20C3E5 		strb	r2, [r3, #12]
 818:../generate/sc_drivers/r_jcu/src/jcu_api.c **** 
 420              		.loc 1 818 0
 421 007c 080093E5 		ldr	r0, [r3, #8]
 422              	.LVL53:
 423 0080 FEFFFFEB 		bl	JCU_SetRegisterForStart
 424              	.LVL54:
 425 0084 E9FFFFEA 		b	.L37
 426              	.LVL55:
 427              	.L40:
 804:../generate/sc_drivers/r_jcu/src/jcu_api.c **** 
 428              		.loc 1 804 0
 429 0088 024100E3 		movw	r4, #258
 430 008c 454140E3 		movt	r4, 325
 431 0090 E6FFFFEA 		b	.L37
 432              	.LVL56:
 433              	.L43:
 824:../generate/sc_drivers/r_jcu/src/jcu_api.c ****     }
 434              		.loc 1 824 0
 435 0094 FEFFFFEB 		bl	R_JCU_EnableInterrupt
 436              	.LVL57:
 437 0098 E6FFFFEA 		b	.L38
 438              		.cfi_endproc
 439              	.LFE18:
 441              		.section	.text.R_JCU_ContinueAsync_ST,"ax",%progbits
 442              		.align	2
 443              		.syntax unified
 444              		.arm
 445              		.fpu neon
 447              	R_JCU_ContinueAsync_ST:
 448              	.LFB20:
 883:../generate/sc_drivers/r_jcu/src/jcu_api.c ****     errnum_t          e;
 449              		.loc 1 883 0
 450              		.cfi_startproc
 451              		@ args = 0, pretend = 0, frame = 0
 452              		@ frame_needed = 0, uses_anonymous_args = 0
 453              	.LVL58:
 454 0000 F0412DE9 		push	{r4, r5, r6, r7, r8, lr}
 455              		.cfi_def_cfa_offset 24
 456              		.cfi_offset 4, -24
 457              		.cfi_offset 5, -20
 458              		.cfi_offset 6, -16
 459              		.cfi_offset 7, -12
 460              		.cfi_offset 8, -8
 461              		.cfi_offset 14, -4
 462 0004 0060A0E1 		mov	r6, r0
 463 0008 0140A0E1 		mov	r4, r1
 464 000c 0270A0E1 		mov	r7, r2
 465              	.LVL59:
 892:../generate/sc_drivers/r_jcu/src/jcu_api.c **** 
 466              		.loc 1 892 0
 467 0010 FEFFFFEB 		bl	R_JCU_DisableInterrupt
 468              	.LVL60:
 469 0014 0050A0E1 		mov	r5, r0
 470              	.LVL61:
 895:../generate/sc_drivers/r_jcu/src/jcu_api.c ****             { e = JCU_ERROR_STATUS_4; goto fin; }  /* Error: <State/> */
 471              		.loc 1 895 0
 472 0018 003000E3 		movw	r3, #:lower16:.LANCHOR0
 473 001c 003040E3 		movt	r3, #:upper16:.LANCHOR0
 474 0020 0C30D3E5 		ldrb	r3, [r3, #12]	@ zero_extendqisi2
 475 0024 080053E3 		cmp	r3, #8
 476 0028 0700000A 		beq	.L59
 896:../generate/sc_drivers/r_jcu/src/jcu_api.c **** 
 477              		.loc 1 896 0
 478 002c 814FA0E3 		mov	r4, #516
 479              	.LVL62:
 480 0030 454041E3 		movt	r4, 4165
 481              	.LVL63:
 482              	.L45:
 963:../generate/sc_drivers/r_jcu/src/jcu_api.c ****     {
 483              		.loc 1 963 0
 484 0034 000055E3 		cmp	r5, #0
 485 0038 3F00001A 		bne	.L60
 486              	.L50:
 967:../generate/sc_drivers/r_jcu/src/jcu_api.c **** 
 487              		.loc 1 967 0
 488 003c 0400A0E1 		mov	r0, r4
 489 0040 FEFFFFEB 		bl	R_ERROR_Set
 490              	.LVL64:
 971:../generate/sc_drivers/r_jcu/src/jcu_api.c **** 
 491              		.loc 1 971 0
 492 0044 0400A0E1 		mov	r0, r4
 493 0048 F081BDE8 		pop	{r4, r5, r6, r7, r8, pc}
 494              	.LVL65:
 495              	.L59:
 898:../generate/sc_drivers/r_jcu/src/jcu_api.c ****             { e = JCU_ERROR_STATUS_5; goto fin; }  /* Error: <State/> */
 496              		.loc 1 898 0
 497 004c 003000E3 		movw	r3, #:lower16:.LANCHOR0
 498 0050 003040E3 		movt	r3, #:upper16:.LANCHOR0
 499 0054 143093E5 		ldr	r3, [r3, #20]
 500 0058 010053E3 		cmp	r3, #1
 899:../generate/sc_drivers/r_jcu/src/jcu_api.c **** 
 501              		.loc 1 899 0
 502 005c 05420013 		movwne	r4, #517
 503              	.LVL66:
 504 0060 45404113 		movtne	r4, 4165
 505 0064 F2FFFF1A 		bne	.L45
 506              	.LVL67:
 507              	.L61:
 902:../generate/sc_drivers/r_jcu/src/jcu_api.c ****             { e = JCU_ERROR_PARAM_3; goto fin; }  /* Error: <Parameter/> */
 508              		.loc 1 902 0
 509 0068 000054E3 		cmp	r4, #0
 510 006c 2F00000A 		beq	.L53
 907:../generate/sc_drivers/r_jcu/src/jcu_api.c ****     {
 511              		.loc 1 907 0
 512 0070 000056E3 		cmp	r6, #0
 513 0074 0600000A 		beq	.L47
 514 0078 010056E3 		cmp	r6, #1
 515 007c 0F00000A 		beq	.L54
 920:../generate/sc_drivers/r_jcu/src/jcu_api.c ****             {
 516              		.loc 1 920 0
 517 0080 020056E3 		cmp	r6, #2
 518 0084 0B00000A 		beq	.L62
 922:../generate/sc_drivers/r_jcu/src/jcu_api.c ****             }  /* Error: <Parameter/> */
 519              		.loc 1 922 0
 520 0088 414FA0E3 		mov	r4, #260
 521              	.LVL68:
 522 008c 454140E3 		movt	r4, 325
 523 0090 E7FFFFEA 		b	.L45
 524              	.LVL69:
 525              	.L47:
 912:../generate/sc_drivers/r_jcu/src/jcu_api.c ****             break;
 526              		.loc 1 912 0
 527 0094 222CA0E3 		mov	r2, #8704
 528              	.L48:
 529              	.LVL70:
 929:../generate/sc_drivers/r_jcu/src/jcu_api.c ****     {
 530              		.loc 1 929 0
 531 0098 003000E3 		movw	r3, #:lower16:.LANCHOR0
 532 009c 003040E3 		movt	r3, #:upper16:.LANCHOR0
 533 00a0 103093E5 		ldr	r3, [r3, #16]
 534 00a4 030012E1 		tst	r2, r3
 535 00a8 0600001A 		bne	.L63
 931:../generate/sc_drivers/r_jcu/src/jcu_api.c ****         goto fin;
 536              		.loc 1 931 0
 537 00ac 054100E3 		movw	r4, #261
 538              	.LVL71:
 539 00b0 454140E3 		movt	r4, 325
 540 00b4 DEFFFFEA 		b	.L45
 541              	.LVL72:
 542              	.L62:
 926:../generate/sc_drivers/r_jcu/src/jcu_api.c ****             break;
 543              		.loc 1 926 0
 544 00b8 0820A0E3 		mov	r2, #8
 545 00bc F5FFFFEA 		b	.L48
 546              	.L54:
 917:../generate/sc_drivers/r_jcu/src/jcu_api.c ****             break;
 547              		.loc 1 917 0
 548 00c0 112CA0E3 		mov	r2, #4352
 549 00c4 F3FFFFEA 		b	.L48
 550              	.LVL73:
 551              	.L63:
 934:../generate/sc_drivers/r_jcu/src/jcu_api.c ****     self->AsyncStatus.ReturnValue = 0;
 552              		.loc 1 934 0
 553 00c8 0230C3E1 		bic	r3, r3, r2
 554 00cc 002000E3 		movw	r2, #:lower16:.LANCHOR0
 555              	.LVL74:
 556 00d0 002040E3 		movt	r2, #:upper16:.LANCHOR0
 557 00d4 103082E5 		str	r3, [r2, #16]
 935:../generate/sc_drivers/r_jcu/src/jcu_api.c **** 
 558              		.loc 1 935 0
 559 00d8 0010A0E3 		mov	r1, #0
 560 00dc 341082E5 		str	r1, [r2, #52]
 938:../generate/sc_drivers/r_jcu/src/jcu_api.c ****     {
 561              		.loc 1 938 0
 562 00e0 010053E1 		cmp	r3, r1
 563 00e4 0700001A 		bne	.L49
 941:../generate/sc_drivers/r_jcu/src/jcu_api.c ****         self->AsyncStatus.IsPaused = false;
 564              		.loc 1 941 0
 565 00e8 0230A0E1 		mov	r3, r2
 566 00ec 1020A0E3 		mov	r2, #16
 567 00f0 0C20C3E5 		strb	r2, [r3, #12]
 942:../generate/sc_drivers/r_jcu/src/jcu_api.c **** 
 568              		.loc 1 942 0
 569 00f4 0140A0E1 		mov	r4, r1
 570              	.LVL75:
 571 00f8 141083E5 		str	r1, [r3, #20]
 945:../generate/sc_drivers/r_jcu/src/jcu_api.c ****     }
 572              		.loc 1 945 0
 573 00fc 0600A0E1 		mov	r0, r6
 574              	.LVL76:
 575 0100 FEFFFFEB 		bl	JCU_SetRegisterForContinue
 576              	.LVL77:
 577 0104 CAFFFFEA 		b	.L45
 578              	.LVL78:
 579              	.L49:
 952:../generate/sc_drivers/r_jcu/src/jcu_api.c **** 
 580              		.loc 1 952 0
 581 0108 0600A0E1 		mov	r0, r6
 582              	.LVL79:
 583 010c FEFFFFEB 		bl	JCU_SetRegisterForContinue
 584              	.LVL80:
 955:../generate/sc_drivers/r_jcu/src/jcu_api.c **** 
 585              		.loc 1 955 0
 586 0110 003000E3 		movw	r3, #:lower16:.LANCHOR0
 587 0114 003040E3 		movt	r3, #:upper16:.LANCHOR0
 588 0118 0820A0E3 		mov	r2, #8
 589 011c 0C20C3E5 		strb	r2, [r3, #12]
 958:../generate/sc_drivers/r_jcu/src/jcu_api.c ****     }
 590              		.loc 1 958 0
 591 0120 0700A0E1 		mov	r0, r7
 592 0124 34FF2FE1 		blx	r4
 593              	.LVL81:
 961:../generate/sc_drivers/r_jcu/src/jcu_api.c **** fin:
 594              		.loc 1 961 0
 595 0128 0040A0E3 		mov	r4, #0
 596              	.LVL82:
 597 012c C0FFFFEA 		b	.L45
 598              	.LVL83:
 599              	.L53:
 903:../generate/sc_drivers/r_jcu/src/jcu_api.c ****     #endif
 600              		.loc 1 903 0
 601 0130 034100E3 		movw	r4, #259
 602              	.LVL84:
 603 0134 454140E3 		movt	r4, 325
 604 0138 BDFFFFEA 		b	.L45
 605              	.LVL85:
 606              	.L60:
 965:../generate/sc_drivers/r_jcu/src/jcu_api.c ****     }
 607              		.loc 1 965 0
 608 013c FEFFFFEB 		bl	R_JCU_EnableInterrupt
 609              	.LVL86:
 610 0140 BDFFFFEA 		b	.L50
 611              		.cfi_endproc
 612              	.LFE20:
 614              		.section	.text.R_JCU_SetDecodeParam_ST,"ax",%progbits
 615              		.align	2
 616              		.syntax unified
 617              		.arm
 618              		.fpu neon
 620              	R_JCU_SetDecodeParam_ST:
 621              	.LFB21:
 989:../generate/sc_drivers/r_jcu/src/jcu_api.c ****     jcu_errorcode_t   e;
 622              		.loc 1 989 0
 623              		.cfi_startproc
 624              		@ args = 0, pretend = 0, frame = 0
 625              		@ frame_needed = 0, uses_anonymous_args = 0
 626              	.LVL87:
 627 0000 F0412DE9 		push	{r4, r5, r6, r7, r8, lr}
 628              		.cfi_def_cfa_offset 24
 629              		.cfi_offset 4, -24
 630              		.cfi_offset 5, -20
 631              		.cfi_offset 6, -16
 632              		.cfi_offset 7, -12
 633              		.cfi_offset 8, -8
 634              		.cfi_offset 14, -4
 635 0004 0060A0E1 		mov	r6, r0
 636 0008 0170A0E1 		mov	r7, r1
 637              	.LVL88:
 996:../generate/sc_drivers/r_jcu/src/jcu_api.c **** 
 638              		.loc 1 996 0
 639 000c FEFFFFEB 		bl	R_JCU_DisableInterrupt
 640              	.LVL89:
 641 0010 0050A0E1 		mov	r5, r0
 642              	.LVL90:
1000:../generate/sc_drivers/r_jcu/src/jcu_api.c ****             (self->AsyncStatus.Status == JCU_STATUS_READY) ))
 643              		.loc 1 1000 0
 644 0014 003000E3 		movw	r3, #:lower16:.LANCHOR0
 645 0018 003040E3 		movt	r3, #:upper16:.LANCHOR0
 646 001c 0C30D3E5 		ldrb	r3, [r3, #12]	@ zero_extendqisi2
 999:../generate/sc_drivers/r_jcu/src/jcu_api.c ****             (self->AsyncStatus.Status == JCU_STATUS_SELECTED)  ||
 647              		.loc 1 999 0
 648 0020 020053E3 		cmp	r3, #2
 649 0024 08005313 		cmpne	r3, #8
 650 0028 0700000A 		beq	.L72
1003:../generate/sc_drivers/r_jcu/src/jcu_api.c ****             goto fin;
 651              		.loc 1 1003 0
 652 002c 064200E3 		movw	r4, #518
 653 0030 454041E3 		movt	r4, 4165
 654              	.LVL91:
 655              	.L65:
1042:../generate/sc_drivers/r_jcu/src/jcu_api.c ****     {
 656              		.loc 1 1042 0
 657 0034 000055E3 		cmp	r5, #0
 658 0038 2200001A 		bne	.L73
 659              	.L66:
1046:../generate/sc_drivers/r_jcu/src/jcu_api.c **** 
 660              		.loc 1 1046 0
 661 003c 0400A0E1 		mov	r0, r4
 662 0040 FEFFFFEB 		bl	R_ERROR_Set
 663              	.LVL92:
1050:../generate/sc_drivers/r_jcu/src/jcu_api.c **** 
 664              		.loc 1 1050 0
 665 0044 0400A0E1 		mov	r0, r4
 666 0048 F081BDE8 		pop	{r4, r5, r6, r7, r8, pc}
 667              	.LVL93:
 668              	.L72:
1007:../generate/sc_drivers/r_jcu/src/jcu_api.c ****         {
 669              		.loc 1 1007 0
 670 004c 003000E3 		movw	r3, #:lower16:.LANCHOR0
 671 0050 003040E3 		movt	r3, #:upper16:.LANCHOR0
 672 0054 D030D3E1 		ldrsb	r3, [r3]
1006:../generate/sc_drivers/r_jcu/src/jcu_api.c ****             self->Codec == JCU_STATUS_DECODE ))
 673              		.loc 1 1006 0
 674 0058 010053E3 		cmp	r3, #1
1009:../generate/sc_drivers/r_jcu/src/jcu_api.c ****             goto fin;
 675              		.loc 1 1009 0
 676 005c 07420013 		movwne	r4, #519
 677 0060 45404113 		movtne	r4, 4165
 678 0064 F2FFFF1A 		bne	.L65
 679              	.L74:
1014:../generate/sc_drivers/r_jcu/src/jcu_api.c ****         {
 680              		.loc 1 1014 0
 681 0068 000056E3 		cmp	r6, #0
 682 006c 0F00000A 		beq	.L69
1021:../generate/sc_drivers/r_jcu/src/jcu_api.c ****         {
 683              		.loc 1 1021 0
 684 0070 000057E3 		cmp	r7, #0
 685 0074 1000000A 		beq	.L70
1027:../generate/sc_drivers/r_jcu/src/jcu_api.c ****         if(e)
 686              		.loc 1 1027 0
 687 0078 0710A0E1 		mov	r1, r7
 688 007c 0600A0E1 		mov	r0, r6
 689              	.LVL94:
 690 0080 FEFFFFEB 		bl	JCU_ParaCheckSetDecodeParam
 691              	.LVL95:
1028:../generate/sc_drivers/r_jcu/src/jcu_api.c ****         {
 692              		.loc 1 1028 0
 693 0084 004050E2 		subs	r4, r0, #0
 694 0088 E9FFFF1A 		bne	.L65
1035:../generate/sc_drivers/r_jcu/src/jcu_api.c **** 
 695              		.loc 1 1035 0
 696 008c 0710A0E1 		mov	r1, r7
 697 0090 0600A0E1 		mov	r0, r6
 698              	.LVL96:
 699 0094 FEFFFFEB 		bl	JCU_SetRegisterForSetDecodePrm
 700              	.LVL97:
1038:../generate/sc_drivers/r_jcu/src/jcu_api.c **** 
 701              		.loc 1 1038 0
 702 0098 003000E3 		movw	r3, #:lower16:.LANCHOR0
 703 009c 003040E3 		movt	r3, #:upper16:.LANCHOR0
 704 00a0 0820A0E3 		mov	r2, #8
 705 00a4 0C20C3E5 		strb	r2, [r3, #12]
 706              	.LVL98:
1040:../generate/sc_drivers/r_jcu/src/jcu_api.c **** fin:
 707              		.loc 1 1040 0
 708 00a8 0040A0E3 		mov	r4, #0
 709 00ac E0FFFFEA 		b	.L65
 710              	.LVL99:
 711              	.L69:
1016:../generate/sc_drivers/r_jcu/src/jcu_api.c ****             goto fin;
 712              		.loc 1 1016 0
 713 00b0 064100E3 		movw	r4, #262
 714 00b4 454140E3 		movt	r4, 325
 715 00b8 DDFFFFEA 		b	.L65
 716              	.L70:
1023:../generate/sc_drivers/r_jcu/src/jcu_api.c ****             goto fin;
 717              		.loc 1 1023 0
 718 00bc 074100E3 		movw	r4, #263
 719 00c0 454140E3 		movt	r4, 325
 720 00c4 DAFFFFEA 		b	.L65
 721              	.LVL100:
 722              	.L73:
1044:../generate/sc_drivers/r_jcu/src/jcu_api.c ****     }
 723              		.loc 1 1044 0
 724 00c8 FEFFFFEB 		bl	R_JCU_EnableInterrupt
 725              	.LVL101:
 726 00cc DAFFFFEA 		b	.L66
 727              		.cfi_endproc
 728              	.LFE21:
 730              		.section	.text.R_JCU_GetImageInfo_ST,"ax",%progbits
 731              		.align	2
 732              		.syntax unified
 733              		.arm
 734              		.fpu neon
 736              	R_JCU_GetImageInfo_ST:
 737              	.LFB23:
1132:../generate/sc_drivers/r_jcu/src/jcu_api.c ****     jcu_errorcode_t   e;
 738              		.loc 1 1132 0
 739              		.cfi_startproc
 740              		@ args = 0, pretend = 0, frame = 0
 741              		@ frame_needed = 0, uses_anonymous_args = 0
 742              	.LVL102:
 743 0000 70402DE9 		push	{r4, r5, r6, lr}
 744              		.cfi_def_cfa_offset 16
 745              		.cfi_offset 4, -16
 746              		.cfi_offset 5, -12
 747              		.cfi_offset 6, -8
 748              		.cfi_offset 14, -4
 749 0004 0060A0E1 		mov	r6, r0
 750              	.LVL103:
1139:../generate/sc_drivers/r_jcu/src/jcu_api.c **** 
 751              		.loc 1 1139 0
 752 0008 FEFFFFEB 		bl	R_JCU_DisableInterrupt
 753              	.LVL104:
 754 000c 0050A0E1 		mov	r5, r0
 755              	.LVL105:
1142:../generate/sc_drivers/r_jcu/src/jcu_api.c ****         {
 756              		.loc 1 1142 0
 757 0010 003000E3 		movw	r3, #:lower16:.LANCHOR0
 758 0014 003040E3 		movt	r3, #:upper16:.LANCHOR0
 759 0018 0C30D3E5 		ldrb	r3, [r3, #12]	@ zero_extendqisi2
 760 001c 080053E3 		cmp	r3, #8
 761 0020 0700000A 		beq	.L82
1144:../generate/sc_drivers/r_jcu/src/jcu_api.c ****             goto fin;
 762              		.loc 1 1144 0
 763 0024 0A4200E3 		movw	r4, #522
 764 0028 454041E3 		movt	r4, 4165
 765              	.LVL106:
 766              	.L76:
1173:../generate/sc_drivers/r_jcu/src/jcu_api.c ****     {
 767              		.loc 1 1173 0
 768 002c 000055E3 		cmp	r5, #0
 769 0030 1700001A 		bne	.L83
 770              	.L77:
1177:../generate/sc_drivers/r_jcu/src/jcu_api.c **** 
 771              		.loc 1 1177 0
 772 0034 0400A0E1 		mov	r0, r4
 773 0038 FEFFFFEB 		bl	R_ERROR_Set
 774              	.LVL107:
1181:../generate/sc_drivers/r_jcu/src/jcu_api.c **** 
 775              		.loc 1 1181 0
 776 003c 0400A0E1 		mov	r0, r4
 777 0040 7080BDE8 		pop	{r4, r5, r6, pc}
 778              	.LVL108:
 779              	.L82:
1148:../generate/sc_drivers/r_jcu/src/jcu_api.c ****         {
 780              		.loc 1 1148 0
 781 0044 003000E3 		movw	r3, #:lower16:.LANCHOR0
 782 0048 003040E3 		movt	r3, #:upper16:.LANCHOR0
 783 004c D030D3E1 		ldrsb	r3, [r3]
 784 0050 010053E3 		cmp	r3, #1
1150:../generate/sc_drivers/r_jcu/src/jcu_api.c ****             goto fin;
 785              		.loc 1 1150 0
 786 0054 0B420013 		movwne	r4, #523
 787 0058 45404113 		movtne	r4, 4165
 788 005c F2FFFF1A 		bne	.L76
 789              	.L84:
1155:../generate/sc_drivers/r_jcu/src/jcu_api.c ****         {
 790              		.loc 1 1155 0
 791 0060 000056E3 		cmp	r6, #0
 792 0064 0700000A 		beq	.L80
1161:../generate/sc_drivers/r_jcu/src/jcu_api.c ****         if(e)
 793              		.loc 1 1161 0
 794 0068 0600A0E1 		mov	r0, r6
 795              	.LVL109:
 796 006c FEFFFFEB 		bl	JCU_ParaCheckGetImageInfo
 797              	.LVL110:
1162:../generate/sc_drivers/r_jcu/src/jcu_api.c ****         {
 798              		.loc 1 1162 0
 799 0070 004050E2 		subs	r4, r0, #0
 800 0074 ECFFFF1A 		bne	.L76
1169:../generate/sc_drivers/r_jcu/src/jcu_api.c **** 
 801              		.loc 1 1169 0
 802 0078 0600A0E1 		mov	r0, r6
 803              	.LVL111:
 804 007c FEFFFFEB 		bl	JCU_GetRegisterForGetImageInfo
 805              	.LVL112:
1171:../generate/sc_drivers/r_jcu/src/jcu_api.c **** fin:
 806              		.loc 1 1171 0
 807 0080 0040A0E3 		mov	r4, #0
 808 0084 E8FFFFEA 		b	.L76
 809              	.LVL113:
 810              	.L80:
1157:../generate/sc_drivers/r_jcu/src/jcu_api.c ****             goto fin;
 811              		.loc 1 1157 0
 812 0088 424FA0E3 		mov	r4, #264
 813 008c 454140E3 		movt	r4, 325
 814 0090 E5FFFFEA 		b	.L76
 815              	.LVL114:
 816              	.L83:
1175:../generate/sc_drivers/r_jcu/src/jcu_api.c ****     }
 817              		.loc 1 1175 0
 818 0094 FEFFFFEB 		bl	R_JCU_EnableInterrupt
 819              	.LVL115:
 820 0098 E5FFFFEA 		b	.L77
 821              		.cfi_endproc
 822              	.LFE23:
 824              		.section	.text.R_JCU_SetQuantizationTable_ST,"ax",%progbits
 825              		.align	2
 826              		.syntax unified
 827              		.arm
 828              		.fpu neon
 830              	R_JCU_SetQuantizationTable_ST:
 831              	.LFB25:
1230:../generate/sc_drivers/r_jcu/src/jcu_api.c **** 
1231:../generate/sc_drivers/r_jcu/src/jcu_api.c **** 
1232:../generate/sc_drivers/r_jcu/src/jcu_api.c **** /***********************************************************************
1233:../generate/sc_drivers/r_jcu/src/jcu_api.c **** * Implement: R_JCU_SetQuantizationTable_ST
1234:../generate/sc_drivers/r_jcu/src/jcu_api.c **** ************************************************************************/
1235:../generate/sc_drivers/r_jcu/src/jcu_api.c **** /* ->SEC M1.1.1 API Function */
1236:../generate/sc_drivers/r_jcu/src/jcu_api.c **** /******************************************************************************
1237:../generate/sc_drivers/r_jcu/src/jcu_api.c ****  * Function Name: R_JCU_SetQuantizationTable_ST
1238:../generate/sc_drivers/r_jcu/src/jcu_api.c ****  * Description  : .
1239:../generate/sc_drivers/r_jcu/src/jcu_api.c ****  * Arguments    : .
1240:../generate/sc_drivers/r_jcu/src/jcu_api.c ****  * Return Value : .
1241:../generate/sc_drivers/r_jcu/src/jcu_api.c ****  *****************************************************************************/
1242:../generate/sc_drivers/r_jcu/src/jcu_api.c **** static jcu_errorcode_t  R_JCU_SetQuantizationTable_ST( 
1243:../generate/sc_drivers/r_jcu/src/jcu_api.c ****     const jcu_table_no_t  in_TableNum,  const uint8_t* const  in_Table )
1244:../generate/sc_drivers/r_jcu/src/jcu_api.c **** 
1245:../generate/sc_drivers/r_jcu/src/jcu_api.c **** /* <-SEC M1.1.1 */
1246:../generate/sc_drivers/r_jcu/src/jcu_api.c **** {
 832              		.loc 1 1246 0
 833              		.cfi_startproc
 834              		@ args = 0, pretend = 0, frame = 0
 835              		@ frame_needed = 0, uses_anonymous_args = 0
 836              	.LVL116:
 837 0000 F0412DE9 		push	{r4, r5, r6, r7, r8, lr}
 838              		.cfi_def_cfa_offset 24
 839              		.cfi_offset 4, -24
 840              		.cfi_offset 5, -20
 841              		.cfi_offset 6, -16
 842              		.cfi_offset 7, -12
 843              		.cfi_offset 8, -8
 844              		.cfi_offset 14, -4
 845 0004 0070A0E1 		mov	r7, r0
 846 0008 0160A0E1 		mov	r6, r1
 847              	.LVL117:
1247:../generate/sc_drivers/r_jcu/src/jcu_api.c ****     jcu_errorcode_t   e;
1248:../generate/sc_drivers/r_jcu/src/jcu_api.c ****     bool_t            was_enabled = false;
1249:../generate/sc_drivers/r_jcu/src/jcu_api.c ****     jcu_internal_information_t*
1250:../generate/sc_drivers/r_jcu/src/jcu_api.c ****         const  self = &gs_jcu_internal_information; 
1251:../generate/sc_drivers/r_jcu/src/jcu_api.c **** 
1252:../generate/sc_drivers/r_jcu/src/jcu_api.c ****     #if  ! defined( JCU_RELEASE )
1253:../generate/sc_drivers/r_jcu/src/jcu_api.c ****         e = JCU_ParaCheckSetQuantizationTbl( in_TableNum );
 848              		.loc 1 1253 0
 849 000c FEFFFFEB 		bl	JCU_ParaCheckSetQuantizationTbl
 850              	.LVL118:
1254:../generate/sc_drivers/r_jcu/src/jcu_api.c ****             if (e != JCU_ERROR_OK)
 851              		.loc 1 1254 0
 852 0010 004050E2 		subs	r4, r0, #0
 853 0014 0600000A 		beq	.L93
1248:../generate/sc_drivers/r_jcu/src/jcu_api.c ****     jcu_internal_information_t*
 854              		.loc 1 1248 0
 855 0018 0050A0E3 		mov	r5, #0
 856              	.LVL119:
 857              	.L86:
1255:../generate/sc_drivers/r_jcu/src/jcu_api.c ****             {
1256:../generate/sc_drivers/r_jcu/src/jcu_api.c ****                 goto fin;
1257:../generate/sc_drivers/r_jcu/src/jcu_api.c ****             }
1258:../generate/sc_drivers/r_jcu/src/jcu_api.c ****     #endif
1259:../generate/sc_drivers/r_jcu/src/jcu_api.c **** 
1260:../generate/sc_drivers/r_jcu/src/jcu_api.c ****     was_enabled = R_JCU_DisableInterrupt();
1261:../generate/sc_drivers/r_jcu/src/jcu_api.c **** 
1262:../generate/sc_drivers/r_jcu/src/jcu_api.c ****     #if  ! defined( JCU_RELEASE )
1263:../generate/sc_drivers/r_jcu/src/jcu_api.c ****         if (!(
1264:../generate/sc_drivers/r_jcu/src/jcu_api.c ****             (self->AsyncStatus.Status == JCU_STATUS_SELECTED)  ||
1265:../generate/sc_drivers/r_jcu/src/jcu_api.c ****             (self->AsyncStatus.Status == JCU_STATUS_READY) ))
1266:../generate/sc_drivers/r_jcu/src/jcu_api.c ****         {
1267:../generate/sc_drivers/r_jcu/src/jcu_api.c ****             e = JCU_ERROR_STATUS_D;
1268:../generate/sc_drivers/r_jcu/src/jcu_api.c ****             goto fin;
1269:../generate/sc_drivers/r_jcu/src/jcu_api.c ****         }  /* Error: <State/> */
1270:../generate/sc_drivers/r_jcu/src/jcu_api.c ****         if (!(
1271:../generate/sc_drivers/r_jcu/src/jcu_api.c ****             self->Codec == JCU_STATUS_ENCODE ))
1272:../generate/sc_drivers/r_jcu/src/jcu_api.c ****         {
1273:../generate/sc_drivers/r_jcu/src/jcu_api.c ****             e = JCU_ERROR_STATUS_E;
1274:../generate/sc_drivers/r_jcu/src/jcu_api.c ****             goto fin;
1275:../generate/sc_drivers/r_jcu/src/jcu_api.c ****         }  /* Error: <State/> */
1276:../generate/sc_drivers/r_jcu/src/jcu_api.c **** 
1277:../generate/sc_drivers/r_jcu/src/jcu_api.c ****         /* Cast to an appropriate type */
1278:../generate/sc_drivers/r_jcu/src/jcu_api.c ****         if (!( in_Table != NULL ))
1279:../generate/sc_drivers/r_jcu/src/jcu_api.c ****         {
1280:../generate/sc_drivers/r_jcu/src/jcu_api.c ****             e = JCU_ERROR_PARAM_A;
1281:../generate/sc_drivers/r_jcu/src/jcu_api.c ****             goto fin;
1282:../generate/sc_drivers/r_jcu/src/jcu_api.c ****         }  /* Error: <Parameter/> */
1283:../generate/sc_drivers/r_jcu/src/jcu_api.c ****     #endif
1284:../generate/sc_drivers/r_jcu/src/jcu_api.c **** 
1285:../generate/sc_drivers/r_jcu/src/jcu_api.c ****     /* Register set */
1286:../generate/sc_drivers/r_jcu/src/jcu_api.c ****     JCU_SetRegisterForSetQtTable( in_TableNum,  in_Table );
1287:../generate/sc_drivers/r_jcu/src/jcu_api.c **** 
1288:../generate/sc_drivers/r_jcu/src/jcu_api.c ****     e = 0;
1289:../generate/sc_drivers/r_jcu/src/jcu_api.c **** fin:
1290:../generate/sc_drivers/r_jcu/src/jcu_api.c ****     if ( was_enabled )
 858              		.loc 1 1290 0
 859 001c 000055E3 		cmp	r5, #0
 860 0020 1E00001A 		bne	.L94
 861              	.L87:
1291:../generate/sc_drivers/r_jcu/src/jcu_api.c ****     {
1292:../generate/sc_drivers/r_jcu/src/jcu_api.c ****         R_JCU_EnableInterrupt();
1293:../generate/sc_drivers/r_jcu/src/jcu_api.c ****     }
1294:../generate/sc_drivers/r_jcu/src/jcu_api.c ****     R_ERROR_Set( e );
 862              		.loc 1 1294 0
 863 0024 0400A0E1 		mov	r0, r4
 864 0028 FEFFFFEB 		bl	R_ERROR_Set
 865              	.LVL120:
1295:../generate/sc_drivers/r_jcu/src/jcu_api.c **** 
1296:../generate/sc_drivers/r_jcu/src/jcu_api.c ****     /* Cast to an appropriate type */
1297:../generate/sc_drivers/r_jcu/src/jcu_api.c ****     return  (jcu_errorcode_t) e;
1298:../generate/sc_drivers/r_jcu/src/jcu_api.c **** } /* End of function R_JCU_SetQuantizationTable_ST */
 866              		.loc 1 1298 0
 867 002c 0400A0E1 		mov	r0, r4
 868 0030 F081BDE8 		pop	{r4, r5, r6, r7, r8, pc}
 869              	.LVL121:
 870              	.L93:
1260:../generate/sc_drivers/r_jcu/src/jcu_api.c **** 
 871              		.loc 1 1260 0
 872 0034 FEFFFFEB 		bl	R_JCU_DisableInterrupt
 873              	.LVL122:
 874 0038 0050A0E1 		mov	r5, r0
 875              	.LVL123:
1264:../generate/sc_drivers/r_jcu/src/jcu_api.c ****             (self->AsyncStatus.Status == JCU_STATUS_READY) ))
 876              		.loc 1 1264 0
 877 003c 003000E3 		movw	r3, #:lower16:.LANCHOR0
 878 0040 003040E3 		movt	r3, #:upper16:.LANCHOR0
 879 0044 0C30D3E5 		ldrb	r3, [r3, #12]	@ zero_extendqisi2
1263:../generate/sc_drivers/r_jcu/src/jcu_api.c ****             (self->AsyncStatus.Status == JCU_STATUS_SELECTED)  ||
 880              		.loc 1 1263 0
 881 0048 020053E3 		cmp	r3, #2
 882 004c 08005313 		cmpne	r3, #8
1267:../generate/sc_drivers/r_jcu/src/jcu_api.c ****             goto fin;
 883              		.loc 1 1267 0
 884 0050 0D420013 		movwne	r4, #525
 885              	.LVL124:
 886 0054 45404113 		movtne	r4, 4165
 887 0058 EFFFFF1A 		bne	.L86
 888              	.LVL125:
 889              	.L95:
1271:../generate/sc_drivers/r_jcu/src/jcu_api.c ****         {
 890              		.loc 1 1271 0
 891 005c 003000E3 		movw	r3, #:lower16:.LANCHOR0
 892 0060 003040E3 		movt	r3, #:upper16:.LANCHOR0
 893 0064 D030D3E1 		ldrsb	r3, [r3]
1270:../generate/sc_drivers/r_jcu/src/jcu_api.c ****             self->Codec == JCU_STATUS_ENCODE ))
 894              		.loc 1 1270 0
 895 0068 000053E3 		cmp	r3, #0
1273:../generate/sc_drivers/r_jcu/src/jcu_api.c ****             goto fin;
 896              		.loc 1 1273 0
 897 006c 0E420013 		movwne	r4, #526
 898              	.LVL126:
 899 0070 45404113 		movtne	r4, 4165
 900 0074 E8FFFF1A 		bne	.L86
 901              	.LVL127:
 902              	.L96:
1278:../generate/sc_drivers/r_jcu/src/jcu_api.c ****         {
 903              		.loc 1 1278 0
 904 0078 000056E3 		cmp	r6, #0
 905 007c 0400000A 		beq	.L91
1286:../generate/sc_drivers/r_jcu/src/jcu_api.c **** 
 906              		.loc 1 1286 0
 907 0080 0610A0E1 		mov	r1, r6
 908 0084 0700A0E1 		mov	r0, r7
 909              	.LVL128:
 910 0088 FEFFFFEB 		bl	JCU_SetRegisterForSetQtTable
 911              	.LVL129:
1288:../generate/sc_drivers/r_jcu/src/jcu_api.c **** fin:
 912              		.loc 1 1288 0
 913 008c 0040A0E3 		mov	r4, #0
 914 0090 E1FFFFEA 		b	.L86
 915              	.LVL130:
 916              	.L91:
1280:../generate/sc_drivers/r_jcu/src/jcu_api.c ****             goto fin;
 917              		.loc 1 1280 0
 918 0094 0A4100E3 		movw	r4, #266
 919              	.LVL131:
 920 0098 454140E3 		movt	r4, 325
 921 009c DEFFFFEA 		b	.L86
 922              	.LVL132:
 923              	.L94:
1292:../generate/sc_drivers/r_jcu/src/jcu_api.c ****     }
 924              		.loc 1 1292 0
 925 00a0 FEFFFFEB 		bl	R_JCU_EnableInterrupt
 926              	.LVL133:
 927 00a4 DEFFFFEA 		b	.L87
 928              		.cfi_endproc
 929              	.LFE25:
 931              		.section	.text.R_JCU_SetHuffmanTable_ST,"ax",%progbits
 932              		.align	2
 933              		.syntax unified
 934              		.arm
 935              		.fpu neon
 937              	R_JCU_SetHuffmanTable_ST:
 938              	.LFB26:
1299:../generate/sc_drivers/r_jcu/src/jcu_api.c **** 
1300:../generate/sc_drivers/r_jcu/src/jcu_api.c **** 
1301:../generate/sc_drivers/r_jcu/src/jcu_api.c **** /***********************************************************************
1302:../generate/sc_drivers/r_jcu/src/jcu_api.c **** * Implement: R_JCU_SetHuffmanTable_ST
1303:../generate/sc_drivers/r_jcu/src/jcu_api.c **** ************************************************************************/
1304:../generate/sc_drivers/r_jcu/src/jcu_api.c **** /* ->SEC M1.1.1 API Function */
1305:../generate/sc_drivers/r_jcu/src/jcu_api.c **** /******************************************************************************
1306:../generate/sc_drivers/r_jcu/src/jcu_api.c ****  * Function Name: R_JCU_SetHuffmanTable_ST
1307:../generate/sc_drivers/r_jcu/src/jcu_api.c ****  * Description  : .
1308:../generate/sc_drivers/r_jcu/src/jcu_api.c ****  * Arguments    : .
1309:../generate/sc_drivers/r_jcu/src/jcu_api.c ****  * Return Value : .
1310:../generate/sc_drivers/r_jcu/src/jcu_api.c ****  *****************************************************************************/
1311:../generate/sc_drivers/r_jcu/src/jcu_api.c **** static jcu_errorcode_t  R_JCU_SetHuffmanTable_ST 
1312:../generate/sc_drivers/r_jcu/src/jcu_api.c ****     ( const jcu_table_no_t  in_TableNum,  const jcu_huff_t  in_Type, const uint8_t* const  in_Table
1313:../generate/sc_drivers/r_jcu/src/jcu_api.c **** 
1314:../generate/sc_drivers/r_jcu/src/jcu_api.c **** /* <-SEC M1.1.1 */
1315:../generate/sc_drivers/r_jcu/src/jcu_api.c **** {
 939              		.loc 1 1315 0
 940              		.cfi_startproc
 941              		@ args = 0, pretend = 0, frame = 0
 942              		@ frame_needed = 0, uses_anonymous_args = 0
 943              	.LVL134:
 944 0000 F0412DE9 		push	{r4, r5, r6, r7, r8, lr}
 945              		.cfi_def_cfa_offset 24
 946              		.cfi_offset 4, -24
 947              		.cfi_offset 5, -20
 948              		.cfi_offset 6, -16
 949              		.cfi_offset 7, -12
 950              		.cfi_offset 8, -8
 951              		.cfi_offset 14, -4
 952 0004 0070A0E1 		mov	r7, r0
 953 0008 0180A0E1 		mov	r8, r1
 954 000c 0260A0E1 		mov	r6, r2
 955              	.LVL135:
1316:../generate/sc_drivers/r_jcu/src/jcu_api.c ****     jcu_errorcode_t   e;
1317:../generate/sc_drivers/r_jcu/src/jcu_api.c ****     bool_t            was_enabled = false;
1318:../generate/sc_drivers/r_jcu/src/jcu_api.c ****     jcu_internal_information_t*
1319:../generate/sc_drivers/r_jcu/src/jcu_api.c ****         const  self = &gs_jcu_internal_information; 
1320:../generate/sc_drivers/r_jcu/src/jcu_api.c **** 
1321:../generate/sc_drivers/r_jcu/src/jcu_api.c ****     #if  ! defined( JCU_RELEASE )
1322:../generate/sc_drivers/r_jcu/src/jcu_api.c ****         e= JCU_ParaCheckSetHuffmanTable( in_TableNum,  in_Type );
 956              		.loc 1 1322 0
 957 0010 FEFFFFEB 		bl	JCU_ParaCheckSetHuffmanTable
 958              	.LVL136:
1323:../generate/sc_drivers/r_jcu/src/jcu_api.c ****         if(e)
 959              		.loc 1 1323 0
 960 0014 004050E2 		subs	r4, r0, #0
 961 0018 0600000A 		beq	.L105
1317:../generate/sc_drivers/r_jcu/src/jcu_api.c ****     jcu_internal_information_t*
 962              		.loc 1 1317 0
 963 001c 0050A0E3 		mov	r5, #0
 964              	.LVL137:
 965              	.L98:
1324:../generate/sc_drivers/r_jcu/src/jcu_api.c ****         {
1325:../generate/sc_drivers/r_jcu/src/jcu_api.c ****             goto fin;
1326:../generate/sc_drivers/r_jcu/src/jcu_api.c ****         }
1327:../generate/sc_drivers/r_jcu/src/jcu_api.c ****     #endif
1328:../generate/sc_drivers/r_jcu/src/jcu_api.c **** 
1329:../generate/sc_drivers/r_jcu/src/jcu_api.c **** 
1330:../generate/sc_drivers/r_jcu/src/jcu_api.c ****     was_enabled = R_JCU_DisableInterrupt();
1331:../generate/sc_drivers/r_jcu/src/jcu_api.c **** 
1332:../generate/sc_drivers/r_jcu/src/jcu_api.c ****     #if  ! defined( JCU_RELEASE )
1333:../generate/sc_drivers/r_jcu/src/jcu_api.c ****         if (!(
1334:../generate/sc_drivers/r_jcu/src/jcu_api.c ****             (self->AsyncStatus.Status == JCU_STATUS_SELECTED)  ||
1335:../generate/sc_drivers/r_jcu/src/jcu_api.c ****             (self->AsyncStatus.Status == JCU_STATUS_READY) ))
1336:../generate/sc_drivers/r_jcu/src/jcu_api.c ****         {
1337:../generate/sc_drivers/r_jcu/src/jcu_api.c ****             e = JCU_ERROR_STATUS_F;
1338:../generate/sc_drivers/r_jcu/src/jcu_api.c ****             goto fin;
1339:../generate/sc_drivers/r_jcu/src/jcu_api.c ****         }  /* Error: <State/> */
1340:../generate/sc_drivers/r_jcu/src/jcu_api.c ****         if (!(
1341:../generate/sc_drivers/r_jcu/src/jcu_api.c ****             self->Codec == JCU_STATUS_ENCODE ))
1342:../generate/sc_drivers/r_jcu/src/jcu_api.c ****         {
1343:../generate/sc_drivers/r_jcu/src/jcu_api.c ****             e = JCU_ERROR_STATUS_10;
1344:../generate/sc_drivers/r_jcu/src/jcu_api.c ****             goto fin;
1345:../generate/sc_drivers/r_jcu/src/jcu_api.c ****         }  /* Error: <State/> */
1346:../generate/sc_drivers/r_jcu/src/jcu_api.c **** 
1347:../generate/sc_drivers/r_jcu/src/jcu_api.c ****         /* Cast to an appropriate type */
1348:../generate/sc_drivers/r_jcu/src/jcu_api.c ****         if (!( in_Table != NULL ))
1349:../generate/sc_drivers/r_jcu/src/jcu_api.c ****         {
1350:../generate/sc_drivers/r_jcu/src/jcu_api.c ****             e = JCU_ERROR_PARAM_B;
1351:../generate/sc_drivers/r_jcu/src/jcu_api.c ****             goto fin;
1352:../generate/sc_drivers/r_jcu/src/jcu_api.c ****         }  /* Error: <Parameter/> */
1353:../generate/sc_drivers/r_jcu/src/jcu_api.c ****     #endif
1354:../generate/sc_drivers/r_jcu/src/jcu_api.c **** 
1355:../generate/sc_drivers/r_jcu/src/jcu_api.c **** 
1356:../generate/sc_drivers/r_jcu/src/jcu_api.c ****     /* Register set */
1357:../generate/sc_drivers/r_jcu/src/jcu_api.c ****     JCU_SetRegisterForSetHuffTbl( in_TableNum,  in_Type,  in_Table );
1358:../generate/sc_drivers/r_jcu/src/jcu_api.c **** 
1359:../generate/sc_drivers/r_jcu/src/jcu_api.c ****     e = JCU_ERROR_OK;
1360:../generate/sc_drivers/r_jcu/src/jcu_api.c **** fin:
1361:../generate/sc_drivers/r_jcu/src/jcu_api.c ****     if ( was_enabled )
 966              		.loc 1 1361 0
 967 0020 000055E3 		cmp	r5, #0
 968 0024 1F00001A 		bne	.L106
 969              	.L99:
1362:../generate/sc_drivers/r_jcu/src/jcu_api.c ****     {
1363:../generate/sc_drivers/r_jcu/src/jcu_api.c ****         R_JCU_EnableInterrupt();
1364:../generate/sc_drivers/r_jcu/src/jcu_api.c ****     }
1365:../generate/sc_drivers/r_jcu/src/jcu_api.c ****     R_ERROR_Set( e );
 970              		.loc 1 1365 0
 971 0028 0400A0E1 		mov	r0, r4
 972 002c FEFFFFEB 		bl	R_ERROR_Set
 973              	.LVL138:
1366:../generate/sc_drivers/r_jcu/src/jcu_api.c **** 
1367:../generate/sc_drivers/r_jcu/src/jcu_api.c ****     /* Cast to an appropriate type */
1368:../generate/sc_drivers/r_jcu/src/jcu_api.c ****     return  (jcu_errorcode_t) e;
1369:../generate/sc_drivers/r_jcu/src/jcu_api.c **** } /* End of function R_JCU_SetHuffmanTable_ST */
 974              		.loc 1 1369 0
 975 0030 0400A0E1 		mov	r0, r4
 976 0034 F081BDE8 		pop	{r4, r5, r6, r7, r8, pc}
 977              	.LVL139:
 978              	.L105:
1330:../generate/sc_drivers/r_jcu/src/jcu_api.c **** 
 979              		.loc 1 1330 0
 980 0038 FEFFFFEB 		bl	R_JCU_DisableInterrupt
 981              	.LVL140:
 982 003c 0050A0E1 		mov	r5, r0
 983              	.LVL141:
1334:../generate/sc_drivers/r_jcu/src/jcu_api.c ****             (self->AsyncStatus.Status == JCU_STATUS_READY) ))
 984              		.loc 1 1334 0
 985 0040 003000E3 		movw	r3, #:lower16:.LANCHOR0
 986 0044 003040E3 		movt	r3, #:upper16:.LANCHOR0
 987 0048 0C30D3E5 		ldrb	r3, [r3, #12]	@ zero_extendqisi2
1333:../generate/sc_drivers/r_jcu/src/jcu_api.c ****             (self->AsyncStatus.Status == JCU_STATUS_SELECTED)  ||
 988              		.loc 1 1333 0
 989 004c 020053E3 		cmp	r3, #2
 990 0050 08005313 		cmpne	r3, #8
1337:../generate/sc_drivers/r_jcu/src/jcu_api.c ****             goto fin;
 991              		.loc 1 1337 0
 992 0054 0F420013 		movwne	r4, #527
 993              	.LVL142:
 994 0058 45404113 		movtne	r4, 4165
 995 005c EFFFFF1A 		bne	.L98
 996              	.LVL143:
 997              	.L107:
1341:../generate/sc_drivers/r_jcu/src/jcu_api.c ****         {
 998              		.loc 1 1341 0
 999 0060 003000E3 		movw	r3, #:lower16:.LANCHOR0
 1000 0064 003040E3 		movt	r3, #:upper16:.LANCHOR0
 1001 0068 D030D3E1 		ldrsb	r3, [r3]
1340:../generate/sc_drivers/r_jcu/src/jcu_api.c ****             self->Codec == JCU_STATUS_ENCODE ))
 1002              		.loc 1 1340 0
 1003 006c 000053E3 		cmp	r3, #0
1343:../generate/sc_drivers/r_jcu/src/jcu_api.c ****             goto fin;
 1004              		.loc 1 1343 0
 1005 0070 214EA013 		movne	r4, #528
 1006              	.LVL144:
 1007 0074 45404113 		movtne	r4, 4165
 1008 0078 E8FFFF1A 		bne	.L98
 1009              	.LVL145:
 1010              	.L108:
1348:../generate/sc_drivers/r_jcu/src/jcu_api.c ****         {
 1011              		.loc 1 1348 0
 1012 007c 000056E3 		cmp	r6, #0
 1013 0080 0500000A 		beq	.L103
1357:../generate/sc_drivers/r_jcu/src/jcu_api.c **** 
 1014              		.loc 1 1357 0
 1015 0084 0620A0E1 		mov	r2, r6
 1016 0088 0810A0E1 		mov	r1, r8
 1017 008c 0700A0E1 		mov	r0, r7
 1018              	.LVL146:
 1019 0090 FEFFFFEB 		bl	JCU_SetRegisterForSetHuffTbl
 1020              	.LVL147:
1359:../generate/sc_drivers/r_jcu/src/jcu_api.c **** fin:
 1021              		.loc 1 1359 0
 1022 0094 0040A0E3 		mov	r4, #0
 1023 0098 E0FFFFEA 		b	.L98
 1024              	.LVL148:
 1025              	.L103:
1350:../generate/sc_drivers/r_jcu/src/jcu_api.c ****             goto fin;
 1026              		.loc 1 1350 0
 1027 009c 0B4100E3 		movw	r4, #267
 1028              	.LVL149:
 1029 00a0 454140E3 		movt	r4, 325
 1030 00a4 DDFFFFEA 		b	.L98
 1031              	.LVL150:
 1032              	.L106:
1363:../generate/sc_drivers/r_jcu/src/jcu_api.c ****     }
 1033              		.loc 1 1363 0
 1034 00a8 FEFFFFEB 		bl	R_JCU_EnableInterrupt
 1035              	.LVL151:
 1036 00ac DDFFFFEA 		b	.L99
 1037              		.cfi_endproc
 1038              	.LFE26:
 1040              		.section	.text.R_JCU_SetEncodeParam_ST,"ax",%progbits
 1041              		.align	2
 1042              		.syntax unified
 1043              		.arm
 1044              		.fpu neon
 1046              	R_JCU_SetEncodeParam_ST:
 1047              	.LFB27:
1370:../generate/sc_drivers/r_jcu/src/jcu_api.c **** 
1371:../generate/sc_drivers/r_jcu/src/jcu_api.c **** 
1372:../generate/sc_drivers/r_jcu/src/jcu_api.c **** /***********************************************************************
1373:../generate/sc_drivers/r_jcu/src/jcu_api.c **** * Implement: R_JCU_SetEncodeParam_ST
1374:../generate/sc_drivers/r_jcu/src/jcu_api.c **** ************************************************************************/
1375:../generate/sc_drivers/r_jcu/src/jcu_api.c **** /* ->SEC M1.1.1 API Function */
1376:../generate/sc_drivers/r_jcu/src/jcu_api.c **** /******************************************************************************
1377:../generate/sc_drivers/r_jcu/src/jcu_api.c ****  * Function Name: R_JCU_SetEncodeParam_ST
1378:../generate/sc_drivers/r_jcu/src/jcu_api.c ****  * Description  : .
1379:../generate/sc_drivers/r_jcu/src/jcu_api.c ****  * Arguments    : .
1380:../generate/sc_drivers/r_jcu/src/jcu_api.c ****  * Return Value : .
1381:../generate/sc_drivers/r_jcu/src/jcu_api.c ****  *****************************************************************************/
1382:../generate/sc_drivers/r_jcu/src/jcu_api.c **** static jcu_errorcode_t  R_JCU_SetEncodeParam_ST 
1383:../generate/sc_drivers/r_jcu/src/jcu_api.c ****     ( const jcu_encode_param_t* const  in_Encode, const jcu_buffer_param_t* const  in_Buffer )
1384:../generate/sc_drivers/r_jcu/src/jcu_api.c **** 
1385:../generate/sc_drivers/r_jcu/src/jcu_api.c **** /* <-SEC M1.1.1 */
1386:../generate/sc_drivers/r_jcu/src/jcu_api.c **** {
 1048              		.loc 1 1386 0
 1049              		.cfi_startproc
 1050              		@ args = 0, pretend = 0, frame = 0
 1051              		@ frame_needed = 0, uses_anonymous_args = 0
 1052              	.LVL152:
 1053 0000 F0412DE9 		push	{r4, r5, r6, r7, r8, lr}
 1054              		.cfi_def_cfa_offset 24
 1055              		.cfi_offset 4, -24
 1056              		.cfi_offset 5, -20
 1057              		.cfi_offset 6, -16
 1058              		.cfi_offset 7, -12
 1059              		.cfi_offset 8, -8
 1060              		.cfi_offset 14, -4
 1061 0004 0060A0E1 		mov	r6, r0
 1062 0008 0170A0E1 		mov	r7, r1
 1063              	.LVL153:
1387:../generate/sc_drivers/r_jcu/src/jcu_api.c ****     jcu_errorcode_t   e;
1388:../generate/sc_drivers/r_jcu/src/jcu_api.c ****     bool_t            was_enabled; /* = false; */ /* QAC 3197 */
1389:../generate/sc_drivers/r_jcu/src/jcu_api.c ****     jcu_internal_information_t*
1390:../generate/sc_drivers/r_jcu/src/jcu_api.c ****         const  self = &gs_jcu_internal_information; 
1391:../generate/sc_drivers/r_jcu/src/jcu_api.c **** 
1392:../generate/sc_drivers/r_jcu/src/jcu_api.c **** 
1393:../generate/sc_drivers/r_jcu/src/jcu_api.c ****     was_enabled = R_JCU_DisableInterrupt();
 1064              		.loc 1 1393 0
 1065 000c FEFFFFEB 		bl	R_JCU_DisableInterrupt
 1066              	.LVL154:
 1067 0010 0050A0E1 		mov	r5, r0
 1068              	.LVL155:
1394:../generate/sc_drivers/r_jcu/src/jcu_api.c **** 
1395:../generate/sc_drivers/r_jcu/src/jcu_api.c ****     #if  ! defined( JCU_RELEASE )
1396:../generate/sc_drivers/r_jcu/src/jcu_api.c ****         if (!(
1397:../generate/sc_drivers/r_jcu/src/jcu_api.c ****             (self->AsyncStatus.Status == JCU_STATUS_SELECTED)  ||
 1069              		.loc 1 1397 0
 1070 0014 003000E3 		movw	r3, #:lower16:.LANCHOR0
 1071 0018 003040E3 		movt	r3, #:upper16:.LANCHOR0
 1072 001c 0C30D3E5 		ldrb	r3, [r3, #12]	@ zero_extendqisi2
1396:../generate/sc_drivers/r_jcu/src/jcu_api.c ****             (self->AsyncStatus.Status == JCU_STATUS_SELECTED)  ||
 1073              		.loc 1 1396 0
 1074 0020 020053E3 		cmp	r3, #2
 1075 0024 08005313 		cmpne	r3, #8
 1076 0028 0700000A 		beq	.L117
1398:../generate/sc_drivers/r_jcu/src/jcu_api.c ****             (self->AsyncStatus.Status == JCU_STATUS_READY) ))
1399:../generate/sc_drivers/r_jcu/src/jcu_api.c ****         {
1400:../generate/sc_drivers/r_jcu/src/jcu_api.c ****             e = JCU_ERROR_STATUS_11;
 1077              		.loc 1 1400 0
 1078 002c 114200E3 		movw	r4, #529
 1079 0030 454041E3 		movt	r4, 4165
 1080              	.LVL156:
 1081              	.L110:
1401:../generate/sc_drivers/r_jcu/src/jcu_api.c ****             goto fin;
1402:../generate/sc_drivers/r_jcu/src/jcu_api.c ****         }  /* Error: <State/> */
1403:../generate/sc_drivers/r_jcu/src/jcu_api.c ****         if (!(
1404:../generate/sc_drivers/r_jcu/src/jcu_api.c ****             self->Codec == JCU_STATUS_ENCODE ))
1405:../generate/sc_drivers/r_jcu/src/jcu_api.c ****         {
1406:../generate/sc_drivers/r_jcu/src/jcu_api.c ****             e = JCU_ERROR_STATUS_12;
1407:../generate/sc_drivers/r_jcu/src/jcu_api.c ****             goto fin;
1408:../generate/sc_drivers/r_jcu/src/jcu_api.c ****         }  /* Error: <State/> */
1409:../generate/sc_drivers/r_jcu/src/jcu_api.c **** 
1410:../generate/sc_drivers/r_jcu/src/jcu_api.c ****         /* Cast to an appropriate type */
1411:../generate/sc_drivers/r_jcu/src/jcu_api.c ****         if (!( in_Encode != NULL ))
1412:../generate/sc_drivers/r_jcu/src/jcu_api.c ****         {
1413:../generate/sc_drivers/r_jcu/src/jcu_api.c ****             e = JCU_ERROR_PARAM_C;
1414:../generate/sc_drivers/r_jcu/src/jcu_api.c ****             goto fin;
1415:../generate/sc_drivers/r_jcu/src/jcu_api.c ****         }  /* Error: <Parameter/> */
1416:../generate/sc_drivers/r_jcu/src/jcu_api.c **** 
1417:../generate/sc_drivers/r_jcu/src/jcu_api.c ****         /* Cast to an appropriate type */
1418:../generate/sc_drivers/r_jcu/src/jcu_api.c ****         if (!( in_Buffer != NULL ))
1419:../generate/sc_drivers/r_jcu/src/jcu_api.c ****         {
1420:../generate/sc_drivers/r_jcu/src/jcu_api.c ****             e = JCU_ERROR_PARAM_D;
1421:../generate/sc_drivers/r_jcu/src/jcu_api.c ****             goto fin;
1422:../generate/sc_drivers/r_jcu/src/jcu_api.c ****         }  /* Error: <Parameter/> */
1423:../generate/sc_drivers/r_jcu/src/jcu_api.c **** 
1424:../generate/sc_drivers/r_jcu/src/jcu_api.c ****         e= JCU_ParaCheckEncodeParam( in_Encode,  in_Buffer );
1425:../generate/sc_drivers/r_jcu/src/jcu_api.c ****         if(e)
1426:../generate/sc_drivers/r_jcu/src/jcu_api.c ****         {
1427:../generate/sc_drivers/r_jcu/src/jcu_api.c ****             goto fin;
1428:../generate/sc_drivers/r_jcu/src/jcu_api.c ****         }
1429:../generate/sc_drivers/r_jcu/src/jcu_api.c ****     #endif /* ! defined( JCU_RELEASE ) */
1430:../generate/sc_drivers/r_jcu/src/jcu_api.c **** 
1431:../generate/sc_drivers/r_jcu/src/jcu_api.c ****     /* Register set */
1432:../generate/sc_drivers/r_jcu/src/jcu_api.c ****     JCU_SetRegisterForSetEncodePrm( in_Encode,  in_Buffer );
1433:../generate/sc_drivers/r_jcu/src/jcu_api.c **** 
1434:../generate/sc_drivers/r_jcu/src/jcu_api.c ****     /* Set the updated status */
1435:../generate/sc_drivers/r_jcu/src/jcu_api.c ****     self->AsyncStatus.Status = JCU_STATUS_READY;
1436:../generate/sc_drivers/r_jcu/src/jcu_api.c **** 
1437:../generate/sc_drivers/r_jcu/src/jcu_api.c ****     e = 0;
1438:../generate/sc_drivers/r_jcu/src/jcu_api.c **** fin:
1439:../generate/sc_drivers/r_jcu/src/jcu_api.c ****     if ( was_enabled )
 1082              		.loc 1 1439 0
 1083 0034 000055E3 		cmp	r5, #0
 1084 0038 2200001A 		bne	.L118
 1085              	.L111:
1440:../generate/sc_drivers/r_jcu/src/jcu_api.c ****     {
1441:../generate/sc_drivers/r_jcu/src/jcu_api.c ****         R_JCU_EnableInterrupt();
1442:../generate/sc_drivers/r_jcu/src/jcu_api.c ****     }
1443:../generate/sc_drivers/r_jcu/src/jcu_api.c ****     R_ERROR_Set( e );
 1086              		.loc 1 1443 0
 1087 003c 0400A0E1 		mov	r0, r4
 1088 0040 FEFFFFEB 		bl	R_ERROR_Set
 1089              	.LVL157:
1444:../generate/sc_drivers/r_jcu/src/jcu_api.c **** 
1445:../generate/sc_drivers/r_jcu/src/jcu_api.c ****     /* Cast to an appropriate type */
1446:../generate/sc_drivers/r_jcu/src/jcu_api.c ****     return  (jcu_errorcode_t) e;
1447:../generate/sc_drivers/r_jcu/src/jcu_api.c **** } /* End of function R_JCU_SetEncodeParam_ST */
 1090              		.loc 1 1447 0
 1091 0044 0400A0E1 		mov	r0, r4
 1092 0048 F081BDE8 		pop	{r4, r5, r6, r7, r8, pc}
 1093              	.LVL158:
 1094              	.L117:
1404:../generate/sc_drivers/r_jcu/src/jcu_api.c ****         {
 1095              		.loc 1 1404 0
 1096 004c 003000E3 		movw	r3, #:lower16:.LANCHOR0
 1097 0050 003040E3 		movt	r3, #:upper16:.LANCHOR0
 1098 0054 D030D3E1 		ldrsb	r3, [r3]
1403:../generate/sc_drivers/r_jcu/src/jcu_api.c ****             self->Codec == JCU_STATUS_ENCODE ))
 1099              		.loc 1 1403 0
 1100 0058 000053E3 		cmp	r3, #0
1406:../generate/sc_drivers/r_jcu/src/jcu_api.c ****             goto fin;
 1101              		.loc 1 1406 0
 1102 005c 12420013 		movwne	r4, #530
 1103 0060 45404113 		movtne	r4, 4165
 1104 0064 F2FFFF1A 		bne	.L110
 1105              	.L119:
1411:../generate/sc_drivers/r_jcu/src/jcu_api.c ****         {
 1106              		.loc 1 1411 0
 1107 0068 000056E3 		cmp	r6, #0
 1108 006c 0F00000A 		beq	.L114
1418:../generate/sc_drivers/r_jcu/src/jcu_api.c ****         {
 1109              		.loc 1 1418 0
 1110 0070 000057E3 		cmp	r7, #0
 1111 0074 1000000A 		beq	.L115
1424:../generate/sc_drivers/r_jcu/src/jcu_api.c ****         if(e)
 1112              		.loc 1 1424 0
 1113 0078 0710A0E1 		mov	r1, r7
 1114 007c 0600A0E1 		mov	r0, r6
 1115              	.LVL159:
 1116 0080 FEFFFFEB 		bl	JCU_ParaCheckEncodeParam
 1117              	.LVL160:
1425:../generate/sc_drivers/r_jcu/src/jcu_api.c ****         {
 1118              		.loc 1 1425 0
 1119 0084 004050E2 		subs	r4, r0, #0
 1120 0088 E9FFFF1A 		bne	.L110
1432:../generate/sc_drivers/r_jcu/src/jcu_api.c **** 
 1121              		.loc 1 1432 0
 1122 008c 0710A0E1 		mov	r1, r7
 1123 0090 0600A0E1 		mov	r0, r6
 1124              	.LVL161:
 1125 0094 FEFFFFEB 		bl	JCU_SetRegisterForSetEncodePrm
 1126              	.LVL162:
1435:../generate/sc_drivers/r_jcu/src/jcu_api.c **** 
 1127              		.loc 1 1435 0
 1128 0098 003000E3 		movw	r3, #:lower16:.LANCHOR0
 1129 009c 003040E3 		movt	r3, #:upper16:.LANCHOR0
 1130 00a0 0820A0E3 		mov	r2, #8
 1131 00a4 0C20C3E5 		strb	r2, [r3, #12]
 1132              	.LVL163:
1437:../generate/sc_drivers/r_jcu/src/jcu_api.c **** fin:
 1133              		.loc 1 1437 0
 1134 00a8 0040A0E3 		mov	r4, #0
 1135 00ac E0FFFFEA 		b	.L110
 1136              	.LVL164:
 1137              	.L114:
1413:../generate/sc_drivers/r_jcu/src/jcu_api.c ****             goto fin;
 1138              		.loc 1 1413 0
 1139 00b0 434FA0E3 		mov	r4, #268
 1140 00b4 454140E3 		movt	r4, 325
 1141 00b8 DDFFFFEA 		b	.L110
 1142              	.L115:
1420:../generate/sc_drivers/r_jcu/src/jcu_api.c ****             goto fin;
 1143              		.loc 1 1420 0
 1144 00bc 0D4100E3 		movw	r4, #269
 1145 00c0 454140E3 		movt	r4, 325
 1146 00c4 DAFFFFEA 		b	.L110
 1147              	.LVL165:
 1148              	.L118:
1441:../generate/sc_drivers/r_jcu/src/jcu_api.c ****     }
 1149              		.loc 1 1441 0
 1150 00c8 FEFFFFEB 		bl	R_JCU_EnableInterrupt
 1151              	.LVL166:
 1152 00cc DAFFFFEA 		b	.L111
 1153              		.cfi_endproc
 1154              	.LFE27:
 1156              		.section	.text.R_JCU_GetEncodedSize_ST,"ax",%progbits
 1157              		.align	2
 1158              		.syntax unified
 1159              		.arm
 1160              		.fpu neon
 1162              	R_JCU_GetEncodedSize_ST:
 1163              	.LFB28:
1448:../generate/sc_drivers/r_jcu/src/jcu_api.c **** 
1449:../generate/sc_drivers/r_jcu/src/jcu_api.c **** 
1450:../generate/sc_drivers/r_jcu/src/jcu_api.c **** /***********************************************************************
1451:../generate/sc_drivers/r_jcu/src/jcu_api.c **** * Implement: R_JCU_GetEncodedSize_ST
1452:../generate/sc_drivers/r_jcu/src/jcu_api.c **** ************************************************************************/
1453:../generate/sc_drivers/r_jcu/src/jcu_api.c **** /* ->SEC M1.1.1 API Function */
1454:../generate/sc_drivers/r_jcu/src/jcu_api.c **** /******************************************************************************
1455:../generate/sc_drivers/r_jcu/src/jcu_api.c ****  * Function Name: R_JCU_GetEncodedSize_ST
1456:../generate/sc_drivers/r_jcu/src/jcu_api.c ****  * Description  : .
1457:../generate/sc_drivers/r_jcu/src/jcu_api.c ****  * Arguments    : .
1458:../generate/sc_drivers/r_jcu/src/jcu_api.c ****  * Return Value : .
1459:../generate/sc_drivers/r_jcu/src/jcu_api.c ****  *****************************************************************************/
1460:../generate/sc_drivers/r_jcu/src/jcu_api.c **** static jcu_errorcode_t  R_JCU_GetEncodedSize_ST( size_t* const  out_Size ) 
1461:../generate/sc_drivers/r_jcu/src/jcu_api.c **** 
1462:../generate/sc_drivers/r_jcu/src/jcu_api.c **** /* <-SEC M1.1.1 */
1463:../generate/sc_drivers/r_jcu/src/jcu_api.c **** {
 1164              		.loc 1 1463 0
 1165              		.cfi_startproc
 1166              		@ args = 0, pretend = 0, frame = 0
 1167              		@ frame_needed = 0, uses_anonymous_args = 0
 1168              	.LVL167:
 1169 0000 10402DE9 		push	{r4, lr}
 1170              		.cfi_def_cfa_offset 8
 1171              		.cfi_offset 4, -8
 1172              		.cfi_offset 14, -4
 1173              	.LVL168:
 1174              	.LBB2:
1464:../generate/sc_drivers/r_jcu/src/jcu_api.c ****     jcu_errorcode_t   e;
1465:../generate/sc_drivers/r_jcu/src/jcu_api.c **** 
1466:../generate/sc_drivers/r_jcu/src/jcu_api.c ****     #if  ! defined( JCU_RELEASE )
1467:../generate/sc_drivers/r_jcu/src/jcu_api.c ****     {
1468:../generate/sc_drivers/r_jcu/src/jcu_api.c ****         jcu_internal_information_t*
1469:../generate/sc_drivers/r_jcu/src/jcu_api.c ****             const  self = &gs_jcu_internal_information; 
1470:../generate/sc_drivers/r_jcu/src/jcu_api.c **** 
1471:../generate/sc_drivers/r_jcu/src/jcu_api.c ****         if (!( self->AsyncStatus.Status == JCU_STATUS_READY ))
 1175              		.loc 1 1471 0
 1176 0004 003000E3 		movw	r3, #:lower16:.LANCHOR0
 1177 0008 003040E3 		movt	r3, #:upper16:.LANCHOR0
 1178 000c 0C30D3E5 		ldrb	r3, [r3, #12]	@ zero_extendqisi2
 1179 0010 080053E3 		cmp	r3, #8
 1180 0014 0500000A 		beq	.L124
1472:../generate/sc_drivers/r_jcu/src/jcu_api.c ****         {
1473:../generate/sc_drivers/r_jcu/src/jcu_api.c ****             e = JCU_ERROR_STATUS_13;
 1181              		.loc 1 1473 0
 1182 0018 134200E3 		movw	r4, #531
 1183 001c 454041E3 		movt	r4, 4165
 1184              	.LVL169:
 1185              	.L121:
 1186              	.LBE2:
1474:../generate/sc_drivers/r_jcu/src/jcu_api.c ****             goto fin;
1475:../generate/sc_drivers/r_jcu/src/jcu_api.c ****         }  /* Error: <State/> */
1476:../generate/sc_drivers/r_jcu/src/jcu_api.c ****     }
1477:../generate/sc_drivers/r_jcu/src/jcu_api.c ****     #endif
1478:../generate/sc_drivers/r_jcu/src/jcu_api.c **** 
1479:../generate/sc_drivers/r_jcu/src/jcu_api.c **** 
1480:../generate/sc_drivers/r_jcu/src/jcu_api.c ****     JCU_GetEncodedSize(out_Size);
1481:../generate/sc_drivers/r_jcu/src/jcu_api.c **** 
1482:../generate/sc_drivers/r_jcu/src/jcu_api.c **** 
1483:../generate/sc_drivers/r_jcu/src/jcu_api.c ****     e = 0;
1484:../generate/sc_drivers/r_jcu/src/jcu_api.c **** #if  ! defined( JCU_RELEASE )
1485:../generate/sc_drivers/r_jcu/src/jcu_api.c **** fin:
1486:../generate/sc_drivers/r_jcu/src/jcu_api.c **** #endif
1487:../generate/sc_drivers/r_jcu/src/jcu_api.c ****     {
1488:../generate/sc_drivers/r_jcu/src/jcu_api.c ****         R_ERROR_Set(e);
 1187              		.loc 1 1488 0
 1188 0020 0400A0E1 		mov	r0, r4
 1189 0024 FEFFFFEB 		bl	R_ERROR_Set
 1190              	.LVL170:
1489:../generate/sc_drivers/r_jcu/src/jcu_api.c ****     }
1490:../generate/sc_drivers/r_jcu/src/jcu_api.c **** 
1491:../generate/sc_drivers/r_jcu/src/jcu_api.c ****     /* Cast to an appropriate type */
1492:../generate/sc_drivers/r_jcu/src/jcu_api.c ****     return  (jcu_errorcode_t) e;
1493:../generate/sc_drivers/r_jcu/src/jcu_api.c **** } /* End of function R_JCU_GetEncodedSize_ST */
 1191              		.loc 1 1493 0
 1192 0028 0400A0E1 		mov	r0, r4
 1193 002c 1080BDE8 		pop	{r4, pc}
 1194              	.LVL171:
 1195              	.L124:
1480:../generate/sc_drivers/r_jcu/src/jcu_api.c **** 
 1196              		.loc 1 1480 0
 1197 0030 FEFFFFEB 		bl	JCU_GetEncodedSize
 1198              	.LVL172:
1483:../generate/sc_drivers/r_jcu/src/jcu_api.c **** #if  ! defined( JCU_RELEASE )
 1199              		.loc 1 1483 0
 1200 0034 0040A0E3 		mov	r4, #0
 1201 0038 F8FFFFEA 		b	.L121
 1202              		.cfi_endproc
 1203              	.LFE28:
 1205              		.section	.text.R_JCU_SelectCodec,"ax",%progbits
 1206              		.align	2
 1207              		.global	R_JCU_SelectCodec
 1208              		.syntax unified
 1209              		.arm
 1210              		.fpu neon
 1212              	R_JCU_SelectCodec:
 1213              	.LFB2:
 169:../generate/sc_drivers/r_jcu/src/jcu_api.c ****     #if  ! JCU_MULTI_THREAD
 1214              		.loc 1 169 0
 1215              		.cfi_startproc
 1216              		@ args = 0, pretend = 0, frame = 0
 1217              		@ frame_needed = 0, uses_anonymous_args = 0
 1218              	.LVL173:
 1219 0000 10402DE9 		push	{r4, lr}
 1220              		.cfi_def_cfa_offset 8
 1221              		.cfi_offset 4, -8
 1222              		.cfi_offset 14, -4
 171:../generate/sc_drivers/r_jcu/src/jcu_api.c ****     #else
 1223              		.loc 1 171 0
 1224 0004 FEFFFFEB 		bl	R_JCU_SelectCodec_ST
 1225              	.LVL174:
 175:../generate/sc_drivers/r_jcu/src/jcu_api.c **** 
 1226              		.loc 1 175 0
 1227 0008 1080BDE8 		pop	{r4, pc}
 1228              		.cfi_endproc
 1229              	.LFE2:
 1231              		.section	.text.R_JCU_StartAsync,"ax",%progbits
 1232              		.align	2
 1233              		.global	R_JCU_StartAsync
 1234              		.syntax unified
 1235              		.arm
 1236              		.fpu neon
 1238              	R_JCU_StartAsync:
 1239              	.LFB3:
 201:../generate/sc_drivers/r_jcu/src/jcu_api.c ****     #if  ! JCU_MULTI_THREAD
 1240              		.loc 1 201 0
 1241              		.cfi_startproc
 1242              		@ args = 0, pretend = 0, frame = 0
 1243              		@ frame_needed = 0, uses_anonymous_args = 0
 1244              	.LVL175:
 1245 0000 10402DE9 		push	{r4, lr}
 1246              		.cfi_def_cfa_offset 8
 1247              		.cfi_offset 4, -8
 1248              		.cfi_offset 14, -4
 203:../generate/sc_drivers/r_jcu/src/jcu_api.c ****     #else
 1249              		.loc 1 203 0
 1250 0004 FEFFFFEB 		bl	R_JCU_StartAsync_ST
 1251              	.LVL176:
 207:../generate/sc_drivers/r_jcu/src/jcu_api.c **** 
 1252              		.loc 1 207 0
 1253 0008 1080BDE8 		pop	{r4, pc}
 1254              		.cfi_endproc
 1255              	.LFE3:
 1257              		.section	.text.R_JCU_GetAsyncError,"ax",%progbits
 1258              		.align	2
 1259              		.global	R_JCU_GetAsyncError
 1260              		.syntax unified
 1261              		.arm
 1262              		.fpu neon
 1264              	R_JCU_GetAsyncError:
 1265              	.LFB4:
 221:../generate/sc_drivers/r_jcu/src/jcu_api.c ****     #if  ! JCU_MULTI_THREAD
 1266              		.loc 1 221 0
 1267              		.cfi_startproc
 1268              		@ args = 0, pretend = 0, frame = 0
 1269              		@ frame_needed = 0, uses_anonymous_args = 0
 1270 0000 10402DE9 		push	{r4, lr}
 1271              		.cfi_def_cfa_offset 8
 1272              		.cfi_offset 4, -8
 1273              		.cfi_offset 14, -4
 223:../generate/sc_drivers/r_jcu/src/jcu_api.c ****     #else
 1274              		.loc 1 223 0
 1275 0004 FEFFFFEB 		bl	R_JCU_GetAsyncError_ST
 1276              	.LVL177:
 227:../generate/sc_drivers/r_jcu/src/jcu_api.c **** 
 1277              		.loc 1 227 0
 1278 0008 1080BDE8 		pop	{r4, pc}
 1279              		.cfi_endproc
 1280              	.LFE4:
 1282              		.section	.text.R_JCU_ContinueAsync,"ax",%progbits
 1283              		.align	2
 1284              		.global	R_JCU_ContinueAsync
 1285              		.syntax unified
 1286              		.arm
 1287              		.fpu neon
 1289              	R_JCU_ContinueAsync:
 1290              	.LFB5:
 251:../generate/sc_drivers/r_jcu/src/jcu_api.c ****     #if  ! JCU_MULTI_THREAD
 1291              		.loc 1 251 0
 1292              		.cfi_startproc
 1293              		@ args = 0, pretend = 0, frame = 0
 1294              		@ frame_needed = 0, uses_anonymous_args = 0
 1295              	.LVL178:
 1296 0000 10402DE9 		push	{r4, lr}
 1297              		.cfi_def_cfa_offset 8
 1298              		.cfi_offset 4, -8
 1299              		.cfi_offset 14, -4
 253:../generate/sc_drivers/r_jcu/src/jcu_api.c ****     #else
 1300              		.loc 1 253 0
 1301 0004 FEFFFFEB 		bl	R_JCU_ContinueAsync_ST
 1302              	.LVL179:
 257:../generate/sc_drivers/r_jcu/src/jcu_api.c **** 
 1303              		.loc 1 257 0
 1304 0008 1080BDE8 		pop	{r4, pc}
 1305              		.cfi_endproc
 1306              	.LFE5:
 1308              		.section	.text.R_JCU_SetDecodeParam,"ax",%progbits
 1309              		.align	2
 1310              		.global	R_JCU_SetDecodeParam
 1311              		.syntax unified
 1312              		.arm
 1313              		.fpu neon
 1315              	R_JCU_SetDecodeParam:
 1316              	.LFB6:
 279:../generate/sc_drivers/r_jcu/src/jcu_api.c ****     #if  ! JCU_MULTI_THREAD
 1317              		.loc 1 279 0
 1318              		.cfi_startproc
 1319              		@ args = 0, pretend = 0, frame = 0
 1320              		@ frame_needed = 0, uses_anonymous_args = 0
 1321              	.LVL180:
 1322 0000 10402DE9 		push	{r4, lr}
 1323              		.cfi_def_cfa_offset 8
 1324              		.cfi_offset 4, -8
 1325              		.cfi_offset 14, -4
 281:../generate/sc_drivers/r_jcu/src/jcu_api.c ****     #else
 1326              		.loc 1 281 0
 1327 0004 FEFFFFEB 		bl	R_JCU_SetDecodeParam_ST
 1328              	.LVL181:
 285:../generate/sc_drivers/r_jcu/src/jcu_api.c **** 
 1329              		.loc 1 285 0
 1330 0008 1080BDE8 		pop	{r4, pc}
 1331              		.cfi_endproc
 1332              	.LFE6:
 1334              		.section	.text.R_JCU_SetPauseForImageInfo,"ax",%progbits
 1335              		.align	2
 1336              		.global	R_JCU_SetPauseForImageInfo
 1337              		.syntax unified
 1338              		.arm
 1339              		.fpu neon
 1341              	R_JCU_SetPauseForImageInfo:
 1342              	.LFB7:
 303:../generate/sc_drivers/r_jcu/src/jcu_api.c ****     #if  ! JCU_MULTI_THREAD
 1343              		.loc 1 303 0
 1344              		.cfi_startproc
 1345              		@ args = 0, pretend = 0, frame = 0
 1346              		@ frame_needed = 0, uses_anonymous_args = 0
 1347              	.LVL182:
 1348 0000 10402DE9 		push	{r4, lr}
 1349              		.cfi_def_cfa_offset 8
 1350              		.cfi_offset 4, -8
 1351              		.cfi_offset 14, -4
 305:../generate/sc_drivers/r_jcu/src/jcu_api.c ****     #else
 1352              		.loc 1 305 0
 1353 0004 FEFFFFEB 		bl	R_JCU_SetPauseForImageInfo_ST
 1354              	.LVL183:
 309:../generate/sc_drivers/r_jcu/src/jcu_api.c **** 
 1355              		.loc 1 309 0
 1356 0008 1080BDE8 		pop	{r4, pc}
 1357              		.cfi_endproc
 1358              	.LFE7:
 1360              		.section	.text.R_JCU_GetImageInfo,"ax",%progbits
 1361              		.align	2
 1362              		.global	R_JCU_GetImageInfo
 1363              		.syntax unified
 1364              		.arm
 1365              		.fpu neon
 1367              	R_JCU_GetImageInfo:
 1368              	.LFB8:
 329:../generate/sc_drivers/r_jcu/src/jcu_api.c ****     #if  ! JCU_MULTI_THREAD
 1369              		.loc 1 329 0
 1370              		.cfi_startproc
 1371              		@ args = 0, pretend = 0, frame = 0
 1372              		@ frame_needed = 0, uses_anonymous_args = 0
 1373              	.LVL184:
 1374 0000 10402DE9 		push	{r4, lr}
 1375              		.cfi_def_cfa_offset 8
 1376              		.cfi_offset 4, -8
 1377              		.cfi_offset 14, -4
 331:../generate/sc_drivers/r_jcu/src/jcu_api.c ****     #else
 1378              		.loc 1 331 0
 1379 0004 FEFFFFEB 		bl	R_JCU_GetImageInfo_ST
 1380              	.LVL185:
 335:../generate/sc_drivers/r_jcu/src/jcu_api.c **** 
 1381              		.loc 1 335 0
 1382 0008 1080BDE8 		pop	{r4, pc}
 1383              		.cfi_endproc
 1384              	.LFE8:
 1386              		.section	.text.R_JCU_SetErrorFilter,"ax",%progbits
 1387              		.align	2
 1388              		.global	R_JCU_SetErrorFilter
 1389              		.syntax unified
 1390              		.arm
 1391              		.fpu neon
 1393              	R_JCU_SetErrorFilter:
 1394              	.LFB9:
 353:../generate/sc_drivers/r_jcu/src/jcu_api.c ****     #if  ! JCU_MULTI_THREAD
 1395              		.loc 1 353 0
 1396              		.cfi_startproc
 1397              		@ args = 0, pretend = 0, frame = 0
 1398              		@ frame_needed = 0, uses_anonymous_args = 0
 1399              	.LVL186:
 1400 0000 10402DE9 		push	{r4, lr}
 1401              		.cfi_def_cfa_offset 8
 1402              		.cfi_offset 4, -8
 1403              		.cfi_offset 14, -4
 355:../generate/sc_drivers/r_jcu/src/jcu_api.c ****     #else
 1404              		.loc 1 355 0
 1405 0004 FEFFFFEB 		bl	R_JCU_SetErrorFilter_ST
 1406              	.LVL187:
 359:../generate/sc_drivers/r_jcu/src/jcu_api.c **** 
 1407              		.loc 1 359 0
 1408 0008 1080BDE8 		pop	{r4, pc}
 1409              		.cfi_endproc
 1410              	.LFE9:
 1412              		.section	.text.R_JCU_SetQuantizationTable,"ax",%progbits
 1413              		.align	2
 1414              		.global	R_JCU_SetQuantizationTable
 1415              		.syntax unified
 1416              		.arm
 1417              		.fpu neon
 1419              	R_JCU_SetQuantizationTable:
 1420              	.LFB10:
 383:../generate/sc_drivers/r_jcu/src/jcu_api.c ****     #if  ! JCU_MULTI_THREAD
 1421              		.loc 1 383 0
 1422              		.cfi_startproc
 1423              		@ args = 0, pretend = 0, frame = 0
 1424              		@ frame_needed = 0, uses_anonymous_args = 0
 1425              	.LVL188:
 1426 0000 10402DE9 		push	{r4, lr}
 1427              		.cfi_def_cfa_offset 8
 1428              		.cfi_offset 4, -8
 1429              		.cfi_offset 14, -4
 385:../generate/sc_drivers/r_jcu/src/jcu_api.c ****     #else
 1430              		.loc 1 385 0
 1431 0004 FEFFFFEB 		bl	R_JCU_SetQuantizationTable_ST
 1432              	.LVL189:
 389:../generate/sc_drivers/r_jcu/src/jcu_api.c **** 
 1433              		.loc 1 389 0
 1434 0008 1080BDE8 		pop	{r4, pc}
 1435              		.cfi_endproc
 1436              	.LFE10:
 1438              		.section	.text.R_JCU_SetHuffmanTable,"ax",%progbits
 1439              		.align	2
 1440              		.global	R_JCU_SetHuffmanTable
 1441              		.syntax unified
 1442              		.arm
 1443              		.fpu neon
 1445              	R_JCU_SetHuffmanTable:
 1446              	.LFB11:
 412:../generate/sc_drivers/r_jcu/src/jcu_api.c ****     #if  ! JCU_MULTI_THREAD
 1447              		.loc 1 412 0
 1448              		.cfi_startproc
 1449              		@ args = 0, pretend = 0, frame = 0
 1450              		@ frame_needed = 0, uses_anonymous_args = 0
 1451              	.LVL190:
 1452 0000 10402DE9 		push	{r4, lr}
 1453              		.cfi_def_cfa_offset 8
 1454              		.cfi_offset 4, -8
 1455              		.cfi_offset 14, -4
 414:../generate/sc_drivers/r_jcu/src/jcu_api.c ****     #else
 1456              		.loc 1 414 0
 1457 0004 FEFFFFEB 		bl	R_JCU_SetHuffmanTable_ST
 1458              	.LVL191:
 418:../generate/sc_drivers/r_jcu/src/jcu_api.c **** 
 1459              		.loc 1 418 0
 1460 0008 1080BDE8 		pop	{r4, pc}
 1461              		.cfi_endproc
 1462              	.LFE11:
 1464              		.section	.text.R_JCU_SetEncodeParam,"ax",%progbits
 1465              		.align	2
 1466              		.global	R_JCU_SetEncodeParam
 1467              		.syntax unified
 1468              		.arm
 1469              		.fpu neon
 1471              	R_JCU_SetEncodeParam:
 1472              	.LFB12:
 437:../generate/sc_drivers/r_jcu/src/jcu_api.c ****     #if  ! JCU_MULTI_THREAD
 1473              		.loc 1 437 0
 1474              		.cfi_startproc
 1475              		@ args = 0, pretend = 0, frame = 0
 1476              		@ frame_needed = 0, uses_anonymous_args = 0
 1477              	.LVL192:
 1478 0000 10402DE9 		push	{r4, lr}
 1479              		.cfi_def_cfa_offset 8
 1480              		.cfi_offset 4, -8
 1481              		.cfi_offset 14, -4
 439:../generate/sc_drivers/r_jcu/src/jcu_api.c ****     #else
 1482              		.loc 1 439 0
 1483 0004 FEFFFFEB 		bl	R_JCU_SetEncodeParam_ST
 1484              	.LVL193:
 443:../generate/sc_drivers/r_jcu/src/jcu_api.c **** 
 1485              		.loc 1 443 0
 1486 0008 1080BDE8 		pop	{r4, pc}
 1487              		.cfi_endproc
 1488              	.LFE12:
 1490              		.section	.text.R_JCU_GetEncodedSize,"ax",%progbits
 1491              		.align	2
 1492              		.global	R_JCU_GetEncodedSize
 1493              		.syntax unified
 1494              		.arm
 1495              		.fpu neon
 1497              	R_JCU_GetEncodedSize:
 1498              	.LFB13:
 461:../generate/sc_drivers/r_jcu/src/jcu_api.c ****     #if  ! JCU_MULTI_THREAD
 1499              		.loc 1 461 0
 1500              		.cfi_startproc
 1501              		@ args = 0, pretend = 0, frame = 0
 1502              		@ frame_needed = 0, uses_anonymous_args = 0
 1503              	.LVL194:
 1504 0000 10402DE9 		push	{r4, lr}
 1505              		.cfi_def_cfa_offset 8
 1506              		.cfi_offset 4, -8
 1507              		.cfi_offset 14, -4
 463:../generate/sc_drivers/r_jcu/src/jcu_api.c ****     #else
 1508              		.loc 1 463 0
 1509 0004 FEFFFFEB 		bl	R_JCU_GetEncodedSize_ST
 1510              	.LVL195:
 467:../generate/sc_drivers/r_jcu/src/jcu_api.c **** 
 1511              		.loc 1 467 0
 1512 0008 1080BDE8 		pop	{r4, pc}
 1513              		.cfi_endproc
 1514              	.LFE13:
 1516              		.section	.text.R_JCU_FinalizeStep2_Sub,"ax",%progbits
 1517              		.align	2
 1518              		.global	R_JCU_FinalizeStep2_Sub
 1519              		.syntax unified
 1520              		.arm
 1521              		.fpu neon
 1523              	R_JCU_FinalizeStep2_Sub:
 1524              	.LFB16:
 662:../generate/sc_drivers/r_jcu/src/jcu_api.c ****     errnum_t  e;
 1525              		.loc 1 662 0
 1526              		.cfi_startproc
 1527              		@ args = 0, pretend = 0, frame = 0
 1528              		@ frame_needed = 0, uses_anonymous_args = 0
 1529 0000 10402DE9 		push	{r4, lr}
 1530              		.cfi_def_cfa_offset 8
 1531              		.cfi_offset 4, -8
 1532              		.cfi_offset 14, -4
 1533              	.LVL196:
 669:../generate/sc_drivers/r_jcu/src/jcu_api.c ****     self->AsyncStatus.Status = JCU_STATUS_UNDEF;
 1534              		.loc 1 669 0
 1535 0004 003000E3 		movw	r3, #:lower16:.LANCHOR0
 1536 0008 003040E3 		movt	r3, #:upper16:.LANCHOR0
 1537 000c 0020A0E3 		mov	r2, #0
 1538 0010 382083E5 		str	r2, [r3, #56]
 670:../generate/sc_drivers/r_jcu/src/jcu_api.c **** 
 1539              		.loc 1 670 0
 1540 0014 0C20C3E5 		strb	r2, [r3, #12]
 674:../generate/sc_drivers/r_jcu/src/jcu_api.c ****     if(e)
 1541              		.loc 1 674 0
 1542 0018 FEFFFFEB 		bl	R_JCU_OnFinalize
 1543              	.LVL197:
 675:../generate/sc_drivers/r_jcu/src/jcu_api.c ****     {
 1544              		.loc 1 675 0
 1545 001c 004050E2 		subs	r4, r0, #0
 680:../generate/sc_drivers/r_jcu/src/jcu_api.c **** fin:
 1546              		.loc 1 680 0
 1547 0020 0040A003 		moveq	r4, #0
 1548              	.L150:
 1549              	.LVL198:
 683:../generate/sc_drivers/r_jcu/src/jcu_api.c ****     }
 1550              		.loc 1 683 0
 1551 0024 0400A0E1 		mov	r0, r4
 1552 0028 FEFFFFEB 		bl	R_ERROR_Set
 1553              	.LVL199:
 688:../generate/sc_drivers/r_jcu/src/jcu_api.c **** 
 1554              		.loc 1 688 0
 1555 002c 0400A0E1 		mov	r0, r4
 1556 0030 1080BDE8 		pop	{r4, pc}
 1557              		.cfi_endproc
 1558              	.LFE16:
 1560              		.section	.text.R_JCU_TerminateAsync_ST,"ax",%progbits
 1561              		.align	2
 1562              		.syntax unified
 1563              		.arm
 1564              		.fpu neon
 1566              	R_JCU_TerminateAsync_ST:
 1567              	.LFB15:
 575:../generate/sc_drivers/r_jcu/src/jcu_api.c ****     errnum_t  e;
 1568              		.loc 1 575 0
 1569              		.cfi_startproc
 1570              		@ args = 0, pretend = 0, frame = 0
 1571              		@ frame_needed = 0, uses_anonymous_args = 0
 1572              	.LVL200:
 1573 0000 F0412DE9 		push	{r4, r5, r6, r7, r8, lr}
 1574              		.cfi_def_cfa_offset 24
 1575              		.cfi_offset 4, -24
 1576              		.cfi_offset 5, -20
 1577              		.cfi_offset 6, -16
 1578              		.cfi_offset 7, -12
 1579              		.cfi_offset 8, -8
 1580              		.cfi_offset 14, -4
 1581 0004 0180A0E1 		mov	r8, r1
 1582              	.LVL201:
 586:../generate/sc_drivers/r_jcu/src/jcu_api.c ****         {
 1583              		.loc 1 586 0
 1584 0008 007050E2 		subs	r7, r0, #0
 1585 000c 3000000A 		beq	.L160
 592:../generate/sc_drivers/r_jcu/src/jcu_api.c **** 
 1586              		.loc 1 592 0
 1587 0010 003000E3 		movw	r3, #:lower16:.LANCHOR0
 1588 0014 003040E3 		movt	r3, #:upper16:.LANCHOR0
 1589 0018 0020A0E3 		mov	r2, #0
 1590 001c 342083E5 		str	r2, [r3, #52]
 596:../generate/sc_drivers/r_jcu/src/jcu_api.c ****         (self->AsyncStatus.OnFinalized != self->AsyncStatus.OnFinished)  ||
 1591              		.loc 1 596 0
 1592 0020 302093E5 		ldr	r2, [r3, #48]
 1593 0024 283093E5 		ldr	r3, [r3, #40]
 595:../generate/sc_drivers/r_jcu/src/jcu_api.c ****         (self->AsyncStatus.OnFinalizedArgument != self->AsyncStatus.OnFinishedArgument)  ||
 1594              		.loc 1 595 0
 1595 0028 030052E1 		cmp	r2, r3
 1596 002c 0C00000A 		beq	.L163
 1597              	.LVL202:
 1598              	.L155:
 608:../generate/sc_drivers/r_jcu/src/jcu_api.c **** 
 1599              		.loc 1 608 0
 1600 0030 FEFFFFEB 		bl	R_JCU_DisableInterrupt
 1601              	.LVL203:
 1602 0034 0060A0E1 		mov	r6, r0
 1603              	.LVL204:
 611:../generate/sc_drivers/r_jcu/src/jcu_api.c ****     {
 1604              		.loc 1 611 0
 1605 0038 003000E3 		movw	r3, #:lower16:.LANCHOR0
 1606 003c 003040E3 		movt	r3, #:upper16:.LANCHOR0
 1607 0040 0C30D3E5 		ldrb	r3, [r3, #12]	@ zero_extendqisi2
 1608 0044 000053E3 		cmp	r3, #0
 1609 0048 1200000A 		beq	.L164
 615:../generate/sc_drivers/r_jcu/src/jcu_api.c ****     {
 1610              		.loc 1 615 0
 1611 004c 100053E3 		cmp	r3, #16
 1612 0050 1500000A 		beq	.L165
 628:../generate/sc_drivers/r_jcu/src/jcu_api.c ****         is_callback = true;
 1613              		.loc 1 628 0
 1614 0054 FEFFFFEB 		bl	R_JCU_FinalizeStep2_Sub
 1615              	.LVL205:
 629:../generate/sc_drivers/r_jcu/src/jcu_api.c ****     }
 1616              		.loc 1 629 0
 1617 0058 0150A0E3 		mov	r5, #1
 636:../generate/sc_drivers/r_jcu/src/jcu_api.c **** fin:
 1618              		.loc 1 636 0
 1619 005c 0040A0E3 		mov	r4, #0
 1620 0060 1F0000EA 		b	.L154
 1621              	.LVL206:
 1622              	.L163:
 597:../generate/sc_drivers/r_jcu/src/jcu_api.c **** 
 1623              		.loc 1 597 0
 1624 0064 003000E3 		movw	r3, #:lower16:.LANCHOR0
 1625 0068 003040E3 		movt	r3, #:upper16:.LANCHOR0
 1626 006c 2C1093E5 		ldr	r1, [r3, #44]
 1627              	.LVL207:
 1628 0070 243093E5 		ldr	r3, [r3, #36]
 596:../generate/sc_drivers/r_jcu/src/jcu_api.c ****         (self->AsyncStatus.OnFinalized != self->AsyncStatus.OnFinished)  ||
 1629              		.loc 1 596 0
 1630 0074 030051E1 		cmp	r1, r3
 1631 0078 ECFFFF1A 		bne	.L155
 595:../generate/sc_drivers/r_jcu/src/jcu_api.c ****         (self->AsyncStatus.OnFinalizedArgument != self->AsyncStatus.OnFinishedArgument)  ||
 1632              		.loc 1 595 0
 1633 007c 000052E3 		cmp	r2, #0
 1634 0080 EAFFFF0A 		beq	.L155
 578:../generate/sc_drivers/r_jcu/src/jcu_api.c ****     jcu_internal_information_t*
 1635              		.loc 1 578 0
 1636 0084 0050A0E3 		mov	r5, #0
 577:../generate/sc_drivers/r_jcu/src/jcu_api.c ****     bool_t    is_callback = false;
 1637              		.loc 1 577 0
 1638 0088 0560A0E1 		mov	r6, r5
 602:../generate/sc_drivers/r_jcu/src/jcu_api.c **** 
 1639              		.loc 1 602 0
 1640 008c 364100E3 		movw	r4, #310
 1641 0090 454140E3 		movt	r4, 325
 1642 0094 120000EA 		b	.L154
 1643              	.LVL208:
 1644              	.L164:
 613:../generate/sc_drivers/r_jcu/src/jcu_api.c ****     }
 1645              		.loc 1 613 0
 1646 0098 0800A0E1 		mov	r0, r8
 1647              	.LVL209:
 1648 009c 37FF2FE1 		blx	r7
 1649              	.LVL210:
 578:../generate/sc_drivers/r_jcu/src/jcu_api.c ****     jcu_internal_information_t*
 1650              		.loc 1 578 0
 1651 00a0 0050A0E3 		mov	r5, #0
 636:../generate/sc_drivers/r_jcu/src/jcu_api.c **** fin:
 1652              		.loc 1 636 0
 1653 00a4 0540A0E1 		mov	r4, r5
 1654 00a8 0D0000EA 		b	.L154
 1655              	.LVL211:
 1656              	.L165:
 617:../generate/sc_drivers/r_jcu/src/jcu_api.c ****         self->AsyncStatus.OnFinalizedArgument = in_OnFinalizedArgument;
 1657              		.loc 1 617 0
 1658 00ac 003000E3 		movw	r3, #:lower16:.LANCHOR0
 1659 00b0 003040E3 		movt	r3, #:upper16:.LANCHOR0
 1660 00b4 2C7083E5 		str	r7, [r3, #44]
 618:../generate/sc_drivers/r_jcu/src/jcu_api.c **** 
 1661              		.loc 1 618 0
 1662 00b8 308083E5 		str	r8, [r3, #48]
 620:../generate/sc_drivers/r_jcu/src/jcu_api.c **** 
 1663              		.loc 1 620 0
 1664 00bc 382093E5 		ldr	r2, [r3, #56]
 1665 00c0 102082E3 		orr	r2, r2, #16
 1666 00c4 382083E5 		str	r2, [r3, #56]
 578:../generate/sc_drivers/r_jcu/src/jcu_api.c ****     jcu_internal_information_t*
 1667              		.loc 1 578 0
 1668 00c8 0050A0E3 		mov	r5, #0
 636:../generate/sc_drivers/r_jcu/src/jcu_api.c **** fin:
 1669              		.loc 1 636 0
 1670 00cc 0540A0E1 		mov	r4, r5
 1671 00d0 030000EA 		b	.L154
 1672              	.LVL212:
 1673              	.L160:
 578:../generate/sc_drivers/r_jcu/src/jcu_api.c ****     jcu_internal_information_t*
 1674              		.loc 1 578 0
 1675 00d4 0050A0E3 		mov	r5, #0
 577:../generate/sc_drivers/r_jcu/src/jcu_api.c ****     bool_t    is_callback = false;
 1676              		.loc 1 577 0
 1677 00d8 0560A0E1 		mov	r6, r5
 588:../generate/sc_drivers/r_jcu/src/jcu_api.c ****         }  /* Error: <Parameter/> */
 1678              		.loc 1 588 0
 1679 00dc 014100E3 		movw	r4, #257
 1680 00e0 454140E3 		movt	r4, 325
 1681              	.LVL213:
 1682              	.L154:
 638:../generate/sc_drivers/r_jcu/src/jcu_api.c ****     {
 1683              		.loc 1 638 0
 1684 00e4 000056E3 		cmp	r6, #0
 1685 00e8 0500001A 		bne	.L166
 1686              	.L158:
 642:../generate/sc_drivers/r_jcu/src/jcu_api.c ****     if ( is_callback )
 1687              		.loc 1 642 0
 1688 00ec 0400A0E1 		mov	r0, r4
 1689 00f0 FEFFFFEB 		bl	R_ERROR_Set
 1690              	.LVL214:
 643:../generate/sc_drivers/r_jcu/src/jcu_api.c ****         { in_OnFinalized( in_OnFinalizedArgument ); }
 1691              		.loc 1 643 0
 1692 00f4 000055E3 		cmp	r5, #0
 1693 00f8 0300001A 		bne	.L167
 1694              	.L153:
 648:../generate/sc_drivers/r_jcu/src/jcu_api.c **** 
 1695              		.loc 1 648 0
 1696 00fc 0400A0E1 		mov	r0, r4
 1697 0100 F081BDE8 		pop	{r4, r5, r6, r7, r8, pc}
 1698              	.L166:
 640:../generate/sc_drivers/r_jcu/src/jcu_api.c ****     }
 1699              		.loc 1 640 0
 1700 0104 FEFFFFEB 		bl	R_JCU_EnableInterrupt
 1701              	.LVL215:
 1702 0108 F7FFFFEA 		b	.L158
 1703              	.L167:
 644:../generate/sc_drivers/r_jcu/src/jcu_api.c **** 
 1704              		.loc 1 644 0
 1705 010c 0800A0E1 		mov	r0, r8
 1706 0110 37FF2FE1 		blx	r7
 1707              	.LVL216:
 647:../generate/sc_drivers/r_jcu/src/jcu_api.c **** } /* End of function R_JCU_TerminateAsync_ST */
 1708              		.loc 1 647 0
 1709 0114 F8FFFFEA 		b	.L153
 1710              		.cfi_endproc
 1711              	.LFE15:
 1713              		.section	.text.R_JCU_TerminateAsync,"ax",%progbits
 1714              		.align	2
 1715              		.global	R_JCU_TerminateAsync
 1716              		.syntax unified
 1717              		.arm
 1718              		.fpu neon
 1720              	R_JCU_TerminateAsync:
 1721              	.LFB1:
 144:../generate/sc_drivers/r_jcu/src/jcu_api.c ****     #if  ! JCU_MULTI_THREAD
 1722              		.loc 1 144 0
 1723              		.cfi_startproc
 1724              		@ args = 0, pretend = 0, frame = 0
 1725              		@ frame_needed = 0, uses_anonymous_args = 0
 1726              	.LVL217:
 1727 0000 10402DE9 		push	{r4, lr}
 1728              		.cfi_def_cfa_offset 8
 1729              		.cfi_offset 4, -8
 1730              		.cfi_offset 14, -4
 146:../generate/sc_drivers/r_jcu/src/jcu_api.c ****     #else
 1731              		.loc 1 146 0
 1732 0004 FEFFFFEB 		bl	R_JCU_TerminateAsync_ST
 1733              	.LVL218:
 150:../generate/sc_drivers/r_jcu/src/jcu_api.c **** 
 1734              		.loc 1 150 0
 1735 0008 1080BDE8 		pop	{r4, pc}
 1736              		.cfi_endproc
 1737              	.LFE1:
 1739              		.section	.text.R_JCU_Initialize_ST,"ax",%progbits
 1740              		.align	2
 1741              		.syntax unified
 1742              		.arm
 1743              		.fpu neon
 1745              	R_JCU_Initialize_ST:
 1746              	.LFB14:
 484:../generate/sc_drivers/r_jcu/src/jcu_api.c ****     errnum_t          e;
 1747              		.loc 1 484 0
 1748              		.cfi_startproc
 1749              		@ args = 0, pretend = 0, frame = 8
 1750              		@ frame_needed = 0, uses_anonymous_args = 0
 1751              	.LVL219:
 1752 0000 10402DE9 		push	{r4, lr}
 1753              		.cfi_def_cfa_offset 8
 1754              		.cfi_offset 4, -8
 1755              		.cfi_offset 14, -4
 1756 0004 08D04DE2 		sub	sp, sp, #8
 1757              		.cfi_def_cfa_offset 16
 1758              	.LVL220:
 492:../generate/sc_drivers/r_jcu/src/jcu_api.c ****     {
 1759              		.loc 1 492 0
 1760 0008 003000E3 		movw	r3, #:lower16:.LANCHOR0
 1761 000c 003040E3 		movt	r3, #:upper16:.LANCHOR0
 1762 0010 0C30D3E5 		ldrb	r3, [r3, #12]	@ zero_extendqisi2
 1763 0014 000053E3 		cmp	r3, #0
 1764 0018 0800000A 		beq	.L176
 494:../generate/sc_drivers/r_jcu/src/jcu_api.c ****         goto fin;  /* Error: Already initialized. */
 1765              		.loc 1 494 0
 1766 001c 014200E3 		movw	r4, #513
 1767 0020 454041E3 		movt	r4, 4165
 1768              	.LVL221:
 1769              	.L171:
 544:../generate/sc_drivers/r_jcu/src/jcu_api.c ****     {
 1770              		.loc 1 544 0
 1771 0024 000054E3 		cmp	r4, #0
 1772 0028 2400001A 		bne	.L177
 1773              	.L172:
 554:../generate/sc_drivers/r_jcu/src/jcu_api.c **** 
 1774              		.loc 1 554 0
 1775 002c 0400A0E1 		mov	r0, r4
 1776 0030 FEFFFFEB 		bl	R_ERROR_Set
 1777              	.LVL222:
 558:../generate/sc_drivers/r_jcu/src/jcu_api.c **** 
 1778              		.loc 1 558 0
 1779 0034 0400A0E1 		mov	r0, r4
 1780 0038 08D08DE2 		add	sp, sp, #8
 1781              		.cfi_remember_state
 1782              		.cfi_def_cfa_offset 8
 1783              		@ sp needed
 1784 003c 1080BDE8 		pop	{r4, pc}
 1785              	.LVL223:
 1786              	.L176:
 1787              		.cfi_restore_state
 499:../generate/sc_drivers/r_jcu/src/jcu_api.c **** 
 1788              		.loc 1 499 0
 1789 0040 003000E3 		movw	r3, #:lower16:.LANCHOR0
 1790 0044 003040E3 		movt	r3, #:upper16:.LANCHOR0
 1791 0048 002000E3 		movw	r2, #:lower16:R_JCU_OnInterrupted
 1792 004c 002040E3 		movt	r2, #:upper16:R_JCU_OnInterrupted
 1793 0050 1C2083E5 		str	r2, [r3, #28]
 502:../generate/sc_drivers/r_jcu/src/jcu_api.c **** 
 1794              		.loc 1 502 0
 1795 0054 0020A0E3 		mov	r2, #0
 1796 0058 202083E5 		str	r2, [r3, #32]
 505:../generate/sc_drivers/r_jcu/src/jcu_api.c **** 
 1797              		.loc 1 505 0
 1798 005c 242083E5 		str	r2, [r3, #36]
 508:../generate/sc_drivers/r_jcu/src/jcu_api.c **** 
 1799              		.loc 1 508 0
 1800 0060 282083E5 		str	r2, [r3, #40]
 511:../generate/sc_drivers/r_jcu/src/jcu_api.c **** 
 1801              		.loc 1 511 0
 1802 0064 2C2083E5 		str	r2, [r3, #44]
 514:../generate/sc_drivers/r_jcu/src/jcu_api.c ****     self->AsyncStatus.InterruptFlags = 0u;
 1803              		.loc 1 514 0
 1804 0068 302083E5 		str	r2, [r3, #48]
 515:../generate/sc_drivers/r_jcu/src/jcu_api.c ****     self->AsyncStatus.CancelFlags = 0u;
 1805              		.loc 1 515 0
 1806 006c 182083E5 		str	r2, [r3, #24]
 516:../generate/sc_drivers/r_jcu/src/jcu_api.c ****     self->AsyncStatus.IsPaused = false;
 1807              		.loc 1 516 0
 1808 0070 382083E5 		str	r2, [r3, #56]
 517:../generate/sc_drivers/r_jcu/src/jcu_api.c ****     self->AsyncStatus.SubStatusFlags = 0u;
 1809              		.loc 1 517 0
 1810 0074 142083E5 		str	r2, [r3, #20]
 518:../generate/sc_drivers/r_jcu/src/jcu_api.c ****     self->IsCountMode = false;
 1811              		.loc 1 518 0
 1812 0078 102083E5 		str	r2, [r3, #16]
 519:../generate/sc_drivers/r_jcu/src/jcu_api.c ****     self->ErrorFilter = JCU_INT_ERROR_ALL;
 1813              		.loc 1 519 0
 1814 007c 042083E5 		str	r2, [r3, #4]
 520:../generate/sc_drivers/r_jcu/src/jcu_api.c **** 
 1815              		.loc 1 520 0
 1816 0080 E020A0E3 		mov	r2, #224
 1817 0084 082083E5 		str	r2, [r3, #8]
 523:../generate/sc_drivers/r_jcu/src/jcu_api.c ****     if(e)
 1818              		.loc 1 523 0
 1819 0088 FEFFFFEB 		bl	R_JCU_OnInitialize
 1820              	.LVL224:
 524:../generate/sc_drivers/r_jcu/src/jcu_api.c ****     {
 1821              		.loc 1 524 0
 1822 008c 004050E2 		subs	r4, r0, #0
 1823 0090 E3FFFF1A 		bne	.L171
 530:../generate/sc_drivers/r_jcu/src/jcu_api.c ****     if(e)
 1824              		.loc 1 530 0
 1825 0094 FEFFFFEB 		bl	JCU_SetRegisterForInitialize
 1826              	.LVL225:
 531:../generate/sc_drivers/r_jcu/src/jcu_api.c ****     {
 1827              		.loc 1 531 0
 1828 0098 004050E2 		subs	r4, r0, #0
 1829 009c E0FFFF1A 		bne	.L171
 537:../generate/sc_drivers/r_jcu/src/jcu_api.c **** 
 1830              		.loc 1 537 0
 1831 00a0 003000E3 		movw	r3, #:lower16:.LANCHOR0
 1832 00a4 003040E3 		movt	r3, #:upper16:.LANCHOR0
 1833 00a8 0120A0E3 		mov	r2, #1
 1834 00ac 0C20C3E5 		strb	r2, [r3, #12]
 540:../generate/sc_drivers/r_jcu/src/jcu_api.c **** 
 1835              		.loc 1 540 0
 1836 00b0 0020E0E3 		mvn	r2, #0
 1837 00b4 0020C3E5 		strb	r2, [r3]
 1838              	.LVL226:
 542:../generate/sc_drivers/r_jcu/src/jcu_api.c **** fin:
 1839              		.loc 1 542 0
 1840 00b8 0040A0E3 		mov	r4, #0
 1841 00bc D8FFFFEA 		b	.L171
 1842              	.LVL227:
 1843              	.L177:
 1844              	.LBB3:
 547:../generate/sc_drivers/r_jcu/src/jcu_api.c **** 
 1845              		.loc 1 547 0
 1846 00c0 08108DE2 		add	r1, sp, #8
 1847 00c4 0030A0E3 		mov	r3, #0
 1848 00c8 043021E5 		str	r3, [r1, #-4]!
 550:../generate/sc_drivers/r_jcu/src/jcu_api.c ****         while ( ! is_event )
 1849              		.loc 1 550 0
 1850 00cc 000000E3 		movw	r0, #:lower16:R_CO_SetTrue
 1851 00d0 000040E3 		movt	r0, #:upper16:R_CO_SetTrue
 1852 00d4 FEFFFFEB 		bl	R_JCU_TerminateAsync
 1853              	.LVL228:
 1854              	.L173:
 551:../generate/sc_drivers/r_jcu/src/jcu_api.c ****             { /* Pooling */ ;}
 1855              		.loc 1 551 0 discriminator 1
 1856 00d8 04309DE5 		ldr	r3, [sp, #4]
 1857 00dc 000053E3 		cmp	r3, #0
 1858 00e0 FCFFFF0A 		beq	.L173
 1859 00e4 D0FFFFEA 		b	.L172
 1860              	.LBE3:
 1861              		.cfi_endproc
 1862              	.LFE14:
 1864              		.section	.text.R_JCU_Initialize,"ax",%progbits
 1865              		.align	2
 1866              		.global	R_JCU_Initialize
 1867              		.syntax unified
 1868              		.arm
 1869              		.fpu neon
 1871              	R_JCU_Initialize:
 1872              	.LFB0:
 108:../generate/sc_drivers/r_jcu/src/jcu_api.c ****     #if  ! JCU_MULTI_THREAD
 1873              		.loc 1 108 0
 1874              		.cfi_startproc
 1875              		@ args = 0, pretend = 0, frame = 0
 1876              		@ frame_needed = 0, uses_anonymous_args = 0
 1877              	.LVL229:
 1878 0000 10402DE9 		push	{r4, lr}
 1879              		.cfi_def_cfa_offset 8
 1880              		.cfi_offset 4, -8
 1881              		.cfi_offset 14, -4
 110:../generate/sc_drivers/r_jcu/src/jcu_api.c ****     #else
 1882              		.loc 1 110 0
 1883 0004 FEFFFFEB 		bl	R_JCU_Initialize_ST
 1884              	.LVL230:
 114:../generate/sc_drivers/r_jcu/src/jcu_api.c **** 
 1885              		.loc 1 114 0
 1886 0008 1080BDE8 		pop	{r4, pc}
 1887              		.cfi_endproc
 1888              	.LFE0:
 1890              		.section	.text.R_JCU_GetInternalInformation,"ax",%progbits
 1891              		.align	2
 1892              		.global	R_JCU_GetInternalInformation
 1893              		.syntax unified
 1894              		.arm
 1895              		.fpu neon
 1897              	R_JCU_GetInternalInformation:
 1898              	.LFB29:
1494:../generate/sc_drivers/r_jcu/src/jcu_api.c **** 
1495:../generate/sc_drivers/r_jcu/src/jcu_api.c **** 
1496:../generate/sc_drivers/r_jcu/src/jcu_api.c **** /***********************************************************************
1497:../generate/sc_drivers/r_jcu/src/jcu_api.c **** * Function Name: R_JCU_GetInternalInformation
1498:../generate/sc_drivers/r_jcu/src/jcu_api.c **** *    R_JCU_GetInternalInformation (for internal)
1499:../generate/sc_drivers/r_jcu/src/jcu_api.c **** *
1500:../generate/sc_drivers/r_jcu/src/jcu_api.c **** * Arguments:
1501:../generate/sc_drivers/r_jcu/src/jcu_api.c **** *    None
1502:../generate/sc_drivers/r_jcu/src/jcu_api.c **** *
1503:../generate/sc_drivers/r_jcu/src/jcu_api.c **** * Return Value:
1504:../generate/sc_drivers/r_jcu/src/jcu_api.c **** *    <jcu_internal_information_t> type.
1505:../generate/sc_drivers/r_jcu/src/jcu_api.c **** ************************************************************************/
1506:../generate/sc_drivers/r_jcu/src/jcu_api.c **** jcu_internal_information_t*  R_JCU_GetInternalInformation(void) 
1507:../generate/sc_drivers/r_jcu/src/jcu_api.c **** {
 1899              		.loc 1 1507 0
 1900              		.cfi_startproc
 1901              		@ args = 0, pretend = 0, frame = 0
 1902              		@ frame_needed = 0, uses_anonymous_args = 0
 1903              		@ link register save eliminated.
1508:../generate/sc_drivers/r_jcu/src/jcu_api.c ****     return  &gs_jcu_internal_information;
1509:../generate/sc_drivers/r_jcu/src/jcu_api.c **** } /* End of function R_JCU_GetInternalInformation */
 1904              		.loc 1 1509 0
 1905 0000 000000E3 		movw	r0, #:lower16:.LANCHOR0
 1906 0004 000040E3 		movt	r0, #:upper16:.LANCHOR0
 1907 0008 1EFF2FE1 		bx	lr
 1908              		.cfi_endproc
 1909              	.LFE29:
 1911              		.section	.text.R_JCU_OnInterrupted,"ax",%progbits
 1912              		.align	2
 1913              		.syntax unified
 1914              		.arm
 1915              		.fpu neon
 1917              	R_JCU_OnInterrupted:
 1918              	.LFB31:
1510:../generate/sc_drivers/r_jcu/src/jcu_api.c **** 
1511:../generate/sc_drivers/r_jcu/src/jcu_api.c **** 
1512:../generate/sc_drivers/r_jcu/src/jcu_api.c **** /***********************************************************************
1513:../generate/sc_drivers/r_jcu/src/jcu_api.c **** * Function Name: R_JCU_OnInterrupting
1514:../generate/sc_drivers/r_jcu/src/jcu_api.c **** *    Inerrupt service routine (ISR)
1515:../generate/sc_drivers/r_jcu/src/jcu_api.c **** *
1516:../generate/sc_drivers/r_jcu/src/jcu_api.c **** * Return Value:
1517:../generate/sc_drivers/r_jcu/src/jcu_api.c **** *    Error code. 0=No error. <jcu_errorcode_t> type.
1518:../generate/sc_drivers/r_jcu/src/jcu_api.c **** *
1519:../generate/sc_drivers/r_jcu/src/jcu_api.c **** * Description:
1520:../generate/sc_drivers/r_jcu/src/jcu_api.c **** *    All JCU interrupt callback functions registered by R_JCU_OnInitialize
1521:../generate/sc_drivers/r_jcu/src/jcu_api.c **** *    function must call this ISR.
1522:../generate/sc_drivers/r_jcu/src/jcu_api.c **** ************************************************************************/
1523:../generate/sc_drivers/r_jcu/src/jcu_api.c **** errnum_t  R_JCU_OnInterrupting() 
1524:../generate/sc_drivers/r_jcu/src/jcu_api.c **** {
1525:../generate/sc_drivers/r_jcu/src/jcu_api.c ****     errnum_t  e;
1526:../generate/sc_drivers/r_jcu/src/jcu_api.c **** 
1527:../generate/sc_drivers/r_jcu/src/jcu_api.c ****     jcu_internal_information_t*
1528:../generate/sc_drivers/r_jcu/src/jcu_api.c ****         const  self = R_JCU_GetInternalInformation(); 
1529:../generate/sc_drivers/r_jcu/src/jcu_api.c **** 
1530:../generate/sc_drivers/r_jcu/src/jcu_api.c ****     #if  ! defined( JCU_RELEASE )
1531:../generate/sc_drivers/r_jcu/src/jcu_api.c **** 
1532:../generate/sc_drivers/r_jcu/src/jcu_api.c ****         /* Cast to an appropriate type */
1533:../generate/sc_drivers/r_jcu/src/jcu_api.c ****         if ( self == NULL )
1534:../generate/sc_drivers/r_jcu/src/jcu_api.c ****         {
1535:../generate/sc_drivers/r_jcu/src/jcu_api.c ****             e=JCU_ERROR_PARAM_26; goto fin;
1536:../generate/sc_drivers/r_jcu/src/jcu_api.c ****         } /* Error: <Parameter/> */
1537:../generate/sc_drivers/r_jcu/src/jcu_api.c ****     #endif
1538:../generate/sc_drivers/r_jcu/src/jcu_api.c **** 
1539:../generate/sc_drivers/r_jcu/src/jcu_api.c ****     e=0;
1540:../generate/sc_drivers/r_jcu/src/jcu_api.c **** 
1541:../generate/sc_drivers/r_jcu/src/jcu_api.c ****     self->AsyncStatus.Status = JCU_STATUS_INTERRUPTING;
1542:../generate/sc_drivers/r_jcu/src/jcu_api.c **** 
1543:../generate/sc_drivers/r_jcu/src/jcu_api.c ****     JCU_OnInterrupting( &self->AsyncStatus.InterruptFlags );
1544:../generate/sc_drivers/r_jcu/src/jcu_api.c **** 
1545:../generate/sc_drivers/r_jcu/src/jcu_api.c **** 
1546:../generate/sc_drivers/r_jcu/src/jcu_api.c ****     /* Set state */
1547:../generate/sc_drivers/r_jcu/src/jcu_api.c ****     self->AsyncStatus.Status = JCU_STATUS_INTERRUPTED;
1548:../generate/sc_drivers/r_jcu/src/jcu_api.c **** 
1549:../generate/sc_drivers/r_jcu/src/jcu_api.c ****     /* Call callback function */
1550:../generate/sc_drivers/r_jcu/src/jcu_api.c ****     self->AsyncStatus.OnInterrupted( self->AsyncStatus.OnInterruptedArgument );
1551:../generate/sc_drivers/r_jcu/src/jcu_api.c **** 
1552:../generate/sc_drivers/r_jcu/src/jcu_api.c **** fin:
1553:../generate/sc_drivers/r_jcu/src/jcu_api.c ****     {
1554:../generate/sc_drivers/r_jcu/src/jcu_api.c ****         return e;
1555:../generate/sc_drivers/r_jcu/src/jcu_api.c ****     }
1556:../generate/sc_drivers/r_jcu/src/jcu_api.c **** } /* End of function R_JCU_OnInterrupting */
1557:../generate/sc_drivers/r_jcu/src/jcu_api.c **** 
1558:../generate/sc_drivers/r_jcu/src/jcu_api.c **** 
1559:../generate/sc_drivers/r_jcu/src/jcu_api.c **** /***********************************************************************
1560:../generate/sc_drivers/r_jcu/src/jcu_api.c **** * Function Name: R_JCU_OnInterrupted
1561:../generate/sc_drivers/r_jcu/src/jcu_api.c **** *    Bottom half operations on interrupting (for internal)
1562:../generate/sc_drivers/r_jcu/src/jcu_api.c **** *
1563:../generate/sc_drivers/r_jcu/src/jcu_api.c **** * Return Value:
1564:../generate/sc_drivers/r_jcu/src/jcu_api.c **** *    Error code, 0=No error
1565:../generate/sc_drivers/r_jcu/src/jcu_api.c **** ************************************************************************/
1566:../generate/sc_drivers/r_jcu/src/jcu_api.c **** static errnum_t  R_JCU_OnInterrupted(void) 
1567:../generate/sc_drivers/r_jcu/src/jcu_api.c **** {
 1919              		.loc 1 1567 0
 1920              		.cfi_startproc
 1921              		@ args = 0, pretend = 0, frame = 8
 1922              		@ frame_needed = 0, uses_anonymous_args = 0
 1923 0000 F0412DE9 		push	{r4, r5, r6, r7, r8, lr}
 1924              		.cfi_def_cfa_offset 24
 1925              		.cfi_offset 4, -24
 1926              		.cfi_offset 5, -20
 1927              		.cfi_offset 6, -16
 1928              		.cfi_offset 7, -12
 1929              		.cfi_offset 8, -8
 1930              		.cfi_offset 14, -4
 1931 0004 08D04DE2 		sub	sp, sp, #8
 1932              		.cfi_def_cfa_offset 32
 1933              	.LVL231:
1568:../generate/sc_drivers/r_jcu/src/jcu_api.c ****     enum { num_8_bit = 8 }; 
1569:../generate/sc_drivers/r_jcu/src/jcu_api.c ****     bit_flags32_t const  sub_status_bits = 
1570:../generate/sc_drivers/r_jcu/src/jcu_api.c ****         ( JCU_JINTS0_INS3 ) |                                           /* Cast to an appropriate t
1571:../generate/sc_drivers/r_jcu/src/jcu_api.c ****         ( JCU_JINTS1_JINF   << ((sizeof( JCU.JINTS0 )) * num_8_bit) ) | /* Cast to an appropriate t
1572:../generate/sc_drivers/r_jcu/src/jcu_api.c ****         ( JCU_JINTS1_DOUTLF << ((sizeof( JCU.JINTS0 )) * num_8_bit) ) | /* Cast to an appropriate t
1573:../generate/sc_drivers/r_jcu/src/jcu_api.c ****         ( JCU_JINTS1_DINLF  << ((sizeof( JCU.JINTS0 )) * num_8_bit) ) | /* Cast to an appropriate t
1574:../generate/sc_drivers/r_jcu/src/jcu_api.c ****         ( JCU_JINTS1_JOUTF  << ((sizeof( JCU.JINTS0 )) * num_8_bit) );  /* Cast to an appropriate t
1575:../generate/sc_drivers/r_jcu/src/jcu_api.c **** 
1576:../generate/sc_drivers/r_jcu/src/jcu_api.c ****     errnum_t  e;
1577:../generate/sc_drivers/r_jcu/src/jcu_api.c ****     errnum_t  ee;
1578:../generate/sc_drivers/r_jcu/src/jcu_api.c ****     uint32_t  interrupt_flags;
1579:../generate/sc_drivers/r_jcu/src/jcu_api.c ****     bool_t    was_enabled = false;
1580:../generate/sc_drivers/r_jcu/src/jcu_api.c ****     bool_t    is_end;
1581:../generate/sc_drivers/r_jcu/src/jcu_api.c ****     bool_t    or; 
1582:../generate/sc_drivers/r_jcu/src/jcu_api.c ****     bool_t    is_callback_1 = false;
1583:../generate/sc_drivers/r_jcu/src/jcu_api.c ****     bool_t    is_callback_2 = false;
1584:../generate/sc_drivers/r_jcu/src/jcu_api.c **** 
1585:../generate/sc_drivers/r_jcu/src/jcu_api.c ****     jcu_internal_information_t*
1586:../generate/sc_drivers/r_jcu/src/jcu_api.c ****         const  self = R_JCU_GetInternalInformation(); 
 1934              		.loc 1 1586 0
 1935 0008 FEFFFFEB 		bl	R_JCU_GetInternalInformation
 1936              	.LVL232:
1587:../generate/sc_drivers/r_jcu/src/jcu_api.c **** 
1588:../generate/sc_drivers/r_jcu/src/jcu_api.c ****     #if  ! defined( JCU_RELEASE )
1589:../generate/sc_drivers/r_jcu/src/jcu_api.c **** 
1590:../generate/sc_drivers/r_jcu/src/jcu_api.c ****         /* Cast to an appropriate type */
1591:../generate/sc_drivers/r_jcu/src/jcu_api.c ****         if ( self == NULL )
 1937              		.loc 1 1591 0
 1938 000c 005050E2 		subs	r5, r0, #0
 1939 0010 4100000A 		beq	.L193
 1940              	.LVL233:
1592:../generate/sc_drivers/r_jcu/src/jcu_api.c ****         {
1593:../generate/sc_drivers/r_jcu/src/jcu_api.c ****             e=JCU_ERROR_PARAM_27; goto fin;
1594:../generate/sc_drivers/r_jcu/src/jcu_api.c ****         } /* Error: <Parameter/> */
1595:../generate/sc_drivers/r_jcu/src/jcu_api.c ****     #endif
1596:../generate/sc_drivers/r_jcu/src/jcu_api.c **** 
1597:../generate/sc_drivers/r_jcu/src/jcu_api.c ****     e=0;
1598:../generate/sc_drivers/r_jcu/src/jcu_api.c **** 
1599:../generate/sc_drivers/r_jcu/src/jcu_api.c ****     was_enabled = R_JCU_DisableInterrupt();
 1941              		.loc 1 1599 0
 1942 0014 FEFFFFEB 		bl	R_JCU_DisableInterrupt
 1943              	.LVL234:
 1944 0018 0080A0E1 		mov	r8, r0
 1945              	.LVL235:
1600:../generate/sc_drivers/r_jcu/src/jcu_api.c **** 
1601:../generate/sc_drivers/r_jcu/src/jcu_api.c ****     if (!( self->AsyncStatus.Status != JCU_STATUS_UNDEF ))
 1946              		.loc 1 1601 0
 1947 001c 0C30D5E5 		ldrb	r3, [r5, #12]	@ zero_extendqisi2
 1948 0020 000053E3 		cmp	r3, #0
1583:../generate/sc_drivers/r_jcu/src/jcu_api.c **** 
 1949              		.loc 1 1583 0
 1950 0024 0060A003 		moveq	r6, #0
1582:../generate/sc_drivers/r_jcu/src/jcu_api.c ****     bool_t    is_callback_2 = false;
 1951              		.loc 1 1582 0
 1952 0028 0670A001 		moveq	r7, r6
1602:../generate/sc_drivers/r_jcu/src/jcu_api.c ****     {
1603:../generate/sc_drivers/r_jcu/src/jcu_api.c ****         e=E_STATE; goto fin;
 1953              		.loc 1 1603 0
 1954 002c 0142A003 		moveq	r4, #268435456
 1955 0030 3E00000A 		beq	.L182
 1956              	.L201:
1604:../generate/sc_drivers/r_jcu/src/jcu_api.c ****     }  /* Error: <State/> */
1605:../generate/sc_drivers/r_jcu/src/jcu_api.c **** 
1606:../generate/sc_drivers/r_jcu/src/jcu_api.c ****     {
1607:../generate/sc_drivers/r_jcu/src/jcu_api.c ****         interrupt_flags = self->AsyncStatus.InterruptFlags;
 1957              		.loc 1 1607 0
 1958 0034 183095E5 		ldr	r3, [r5, #24]
 1959              	.LVL236:
1608:../generate/sc_drivers/r_jcu/src/jcu_api.c ****         self->AsyncStatus.InterruptFlags = 0u;
 1960              		.loc 1 1608 0
 1961 0038 0020A0E3 		mov	r2, #0
 1962 003c 182085E5 		str	r2, [r5, #24]
1609:../generate/sc_drivers/r_jcu/src/jcu_api.c ****     } /* This code must do in I-Lock area. */
1610:../generate/sc_drivers/r_jcu/src/jcu_api.c **** 
1611:../generate/sc_drivers/r_jcu/src/jcu_api.c ****     /* Cast to an appropriate type */
1612:../generate/sc_drivers/r_jcu/src/jcu_api.c ****     if ( IS_ANY_BITS_SET( interrupt_flags,
 1963              		.loc 1 1612 0
 1964 0040 110B13E3 		tst	r3, #17408
 1965 0044 0900000A 		beq	.L183
1613:../generate/sc_drivers/r_jcu/src/jcu_api.c ****             ( JCU_JINTS1_DBTF | JCU_JINTS1_CBTF ) << ((sizeof( JCU.JINTS0 )) * num_8_bit) ) )
1614:../generate/sc_drivers/r_jcu/src/jcu_api.c ****     {
1615:../generate/sc_drivers/r_jcu/src/jcu_api.c ****         self->AsyncStatus.IsPaused = false;
 1966              		.loc 1 1615 0
 1967 0048 142085E5 		str	r2, [r5, #20]
1616:../generate/sc_drivers/r_jcu/src/jcu_api.c ****         self->AsyncStatus.SubStatusFlags = 0u;
 1968              		.loc 1 1616 0
 1969 004c 102085E5 		str	r2, [r5, #16]
 1970              	.LVL237:
1617:../generate/sc_drivers/r_jcu/src/jcu_api.c ****         is_end = true;
 1971              		.loc 1 1617 0
 1972 0050 0120A0E3 		mov	r2, #1
 1973              	.LVL238:
 1974              	.L184:
1618:../generate/sc_drivers/r_jcu/src/jcu_api.c ****     }
1619:../generate/sc_drivers/r_jcu/src/jcu_api.c ****     else if ( IS_ANY_BITS_SET( interrupt_flags,  sub_status_bits ) )
1620:../generate/sc_drivers/r_jcu/src/jcu_api.c ****     {
1621:../generate/sc_drivers/r_jcu/src/jcu_api.c ****         self->AsyncStatus.IsPaused = true;
1622:../generate/sc_drivers/r_jcu/src/jcu_api.c ****         self->AsyncStatus.SubStatusFlags = interrupt_flags & sub_status_bits;
1623:../generate/sc_drivers/r_jcu/src/jcu_api.c ****         is_end = false;
1624:../generate/sc_drivers/r_jcu/src/jcu_api.c ****     }
1625:../generate/sc_drivers/r_jcu/src/jcu_api.c ****     else
1626:../generate/sc_drivers/r_jcu/src/jcu_api.c ****     {
1627:../generate/sc_drivers/r_jcu/src/jcu_api.c ****         is_end = false;
1628:../generate/sc_drivers/r_jcu/src/jcu_api.c ****     }
1629:../generate/sc_drivers/r_jcu/src/jcu_api.c **** 
1630:../generate/sc_drivers/r_jcu/src/jcu_api.c **** 
1631:../generate/sc_drivers/r_jcu/src/jcu_api.c ****     or = ( (is_end) || (self->AsyncStatus.IsPaused) );
 1975              		.loc 1 1631 0
 1976 0054 000052E3 		cmp	r2, #0
 1977 0058 0E00001A 		bne	.L196
 1978              		.loc 1 1631 0 is_stmt 0 discriminator 2
 1979 005c 142095E5 		ldr	r2, [r5, #20]
 1980              	.LVL239:
 1981 0060 000052E3 		cmp	r2, #0
 1982 0064 1E00000A 		beq	.L197
 1983              		.loc 1 1631 0
 1984 0068 0120A0E3 		mov	r2, #1
 1985 006c 0A0000EA 		b	.L185
 1986              	.L183:
1619:../generate/sc_drivers/r_jcu/src/jcu_api.c ****     {
 1987              		.loc 1 1619 0 is_stmt 1
 1988 0070 082303E3 		movw	r2, #13064
 1989 0074 022013E0 		ands	r2, r3, r2
 1990 0078 0400000A 		beq	.L195
1621:../generate/sc_drivers/r_jcu/src/jcu_api.c ****         self->AsyncStatus.SubStatusFlags = interrupt_flags & sub_status_bits;
 1991              		.loc 1 1621 0
 1992 007c 0110A0E3 		mov	r1, #1
 1993 0080 141085E5 		str	r1, [r5, #20]
1622:../generate/sc_drivers/r_jcu/src/jcu_api.c ****         is_end = false;
 1994              		.loc 1 1622 0
 1995 0084 102085E5 		str	r2, [r5, #16]
 1996              	.LVL240:
1623:../generate/sc_drivers/r_jcu/src/jcu_api.c ****     }
 1997              		.loc 1 1623 0
 1998 0088 0020A0E3 		mov	r2, #0
 1999 008c F0FFFFEA 		b	.L184
 2000              	.LVL241:
 2001              	.L195:
1627:../generate/sc_drivers/r_jcu/src/jcu_api.c ****     }
 2002              		.loc 1 1627 0
 2003 0090 0020A0E3 		mov	r2, #0
 2004 0094 EEFFFFEA 		b	.L184
 2005              	.LVL242:
 2006              	.L196:
 2007              		.loc 1 1631 0
 2008 0098 0120A0E3 		mov	r2, #1
 2009              	.LVL243:
 2010              	.L185:
 2011              		.loc 1 1631 0 is_stmt 0 discriminator 6
 2012 009c 0270A0E1 		mov	r7, r2
 2013              	.LVL244:
1632:../generate/sc_drivers/r_jcu/src/jcu_api.c ****     if (!or)
 2014              		.loc 1 1632 0 is_stmt 1 discriminator 6
 2015 00a0 000052E3 		cmp	r2, #0
1633:../generate/sc_drivers/r_jcu/src/jcu_api.c ****     {
1634:../generate/sc_drivers/r_jcu/src/jcu_api.c ****         or = IS_BIT_SET( interrupt_flags,  JCU_JINTS0_INS5 );
 2016              		.loc 1 1634 0
 2017 00a4 D372E007 		ubfxeq	r7, r3, #5, #1
 2018              	.LVL245:
 2019              	.L186:
1635:../generate/sc_drivers/r_jcu/src/jcu_api.c ****     }  /* or = for MISRA 12.4 */
1636:../generate/sc_drivers/r_jcu/src/jcu_api.c ****     if ( or )
 2020              		.loc 1 1636 0
 2021 00a8 000057E3 		cmp	r7, #0
 2022 00ac 0E00000A 		beq	.L187
1637:../generate/sc_drivers/r_jcu/src/jcu_api.c ****     {
1638:../generate/sc_drivers/r_jcu/src/jcu_api.c ****         /* Set "AsyncStatus" */
1639:../generate/sc_drivers/r_jcu/src/jcu_api.c ****         self->AsyncStatus.Status = JCU_STATUS_READY;
 2023              		.loc 1 1639 0
 2024 00b0 0820A0E3 		mov	r2, #8
 2025 00b4 0C20C5E5 		strb	r2, [r5, #12]
 2026              	.LVL246:
1640:../generate/sc_drivers/r_jcu/src/jcu_api.c ****         is_callback_1 = true;;
 2027              		.loc 1 1640 0
 2028 00b8 0170A0E3 		mov	r7, #1
 2029              	.LVL247:
 2030              	.L188:
1641:../generate/sc_drivers/r_jcu/src/jcu_api.c ****     }
1642:../generate/sc_drivers/r_jcu/src/jcu_api.c ****     else
1643:../generate/sc_drivers/r_jcu/src/jcu_api.c ****     {
1644:../generate/sc_drivers/r_jcu/src/jcu_api.c ****         self->AsyncStatus.Status = JCU_STATUS_RUN;
1645:../generate/sc_drivers/r_jcu/src/jcu_api.c ****     }
1646:../generate/sc_drivers/r_jcu/src/jcu_api.c **** 
1647:../generate/sc_drivers/r_jcu/src/jcu_api.c **** 
1648:../generate/sc_drivers/r_jcu/src/jcu_api.c ****     if ( IS_BIT_SET( interrupt_flags,  JCU_JINTS0_INS5 ) )  /* Check input data and try to flush th
 2031              		.loc 1 1648 0
 2032 00bc 200013E3 		tst	r3, #32
 2033 00c0 0C00001A 		bne	.L202
1649:../generate/sc_drivers/r_jcu/src/jcu_api.c ****     {
1650:../generate/sc_drivers/r_jcu/src/jcu_api.c ****         jcu_detail_error_t  ed;
1651:../generate/sc_drivers/r_jcu/src/jcu_api.c **** 
1652:../generate/sc_drivers/r_jcu/src/jcu_api.c ****         JCU_GetRegisterForGetErrorInfo( &ed );
1653:../generate/sc_drivers/r_jcu/src/jcu_api.c **** 
1654:../generate/sc_drivers/r_jcu/src/jcu_api.c ****         /* Cast to an appropriate type */
1655:../generate/sc_drivers/r_jcu/src/jcu_api.c ****         e = (errnum_t) ed;
1656:../generate/sc_drivers/r_jcu/src/jcu_api.c ****         goto fin;
1657:../generate/sc_drivers/r_jcu/src/jcu_api.c ****     }
1658:../generate/sc_drivers/r_jcu/src/jcu_api.c **** 
1659:../generate/sc_drivers/r_jcu/src/jcu_api.c **** 
1660:../generate/sc_drivers/r_jcu/src/jcu_api.c ****     if ( is_callback_1 )
 2034              		.loc 1 1660 0
 2035 00c4 000057E3 		cmp	r7, #0
 2036 00c8 2400000A 		beq	.L198
1661:../generate/sc_drivers/r_jcu/src/jcu_api.c ****     {
1662:../generate/sc_drivers/r_jcu/src/jcu_api.c ****         if ( IS_BIT_SET( self->AsyncStatus.CancelFlags,  JCU_FINALIZE_REQUEST ) )
 2037              		.loc 1 1662 0
 2038 00cc 383095E5 		ldr	r3, [r5, #56]
 2039              	.LVL248:
 2040 00d0 100013E3 		tst	r3, #16
 2041 00d4 0C00001A 		bne	.L203
1583:../generate/sc_drivers/r_jcu/src/jcu_api.c **** 
 2042              		.loc 1 1583 0
 2043 00d8 0060A0E3 		mov	r6, #0
1597:../generate/sc_drivers/r_jcu/src/jcu_api.c **** 
 2044              		.loc 1 1597 0
 2045 00dc 0640A0E1 		mov	r4, r6
 2046 00e0 120000EA 		b	.L182
 2047              	.LVL249:
 2048              	.L197:
1631:../generate/sc_drivers/r_jcu/src/jcu_api.c ****     if (!or)
 2049              		.loc 1 1631 0
 2050 00e4 0020A0E3 		mov	r2, #0
 2051 00e8 EBFFFFEA 		b	.L185
 2052              	.LVL250:
 2053              	.L187:
1644:../generate/sc_drivers/r_jcu/src/jcu_api.c ****     }
 2054              		.loc 1 1644 0
 2055 00ec 1020A0E3 		mov	r2, #16
 2056 00f0 0C20C5E5 		strb	r2, [r5, #12]
 2057 00f4 F0FFFFEA 		b	.L188
 2058              	.LVL251:
 2059              	.L202:
 2060              	.LBB4:
1652:../generate/sc_drivers/r_jcu/src/jcu_api.c **** 
 2061              		.loc 1 1652 0
 2062 00f8 04008DE2 		add	r0, sp, #4
 2063              	.LVL252:
 2064 00fc FEFFFFEB 		bl	JCU_GetRegisterForGetErrorInfo
 2065              	.LVL253:
1655:../generate/sc_drivers/r_jcu/src/jcu_api.c ****         goto fin;
 2066              		.loc 1 1655 0
 2067 0100 04409DE5 		ldr	r4, [sp, #4]
 2068              	.LVL254:
 2069              	.LBE4:
1583:../generate/sc_drivers/r_jcu/src/jcu_api.c **** 
 2070              		.loc 1 1583 0
 2071 0104 0060A0E3 		mov	r6, #0
 2072 0108 080000EA 		b	.L182
 2073              	.LVL255:
 2074              	.L203:
1663:../generate/sc_drivers/r_jcu/src/jcu_api.c ****         {
1664:../generate/sc_drivers/r_jcu/src/jcu_api.c ****             is_callback_2 = true;
1665:../generate/sc_drivers/r_jcu/src/jcu_api.c ****             ee= R_JCU_FinalizeStep2_Sub();
 2075              		.loc 1 1665 0
 2076 010c FEFFFFEB 		bl	R_JCU_FinalizeStep2_Sub
 2077              	.LVL256:
 2078 0110 0040A0E1 		mov	r4, r0
 2079              	.LVL257:
1664:../generate/sc_drivers/r_jcu/src/jcu_api.c ****             ee= R_JCU_FinalizeStep2_Sub();
 2080              		.loc 1 1664 0
 2081 0114 0760A0E1 		mov	r6, r7
 2082 0118 040000EA 		b	.L182
 2083              	.LVL258:
 2084              	.L193:
1583:../generate/sc_drivers/r_jcu/src/jcu_api.c **** 
 2085              		.loc 1 1583 0
 2086 011c 0060A0E3 		mov	r6, #0
1582:../generate/sc_drivers/r_jcu/src/jcu_api.c ****     bool_t    is_callback_2 = false;
 2087              		.loc 1 1582 0
 2088 0120 0670A0E1 		mov	r7, r6
1579:../generate/sc_drivers/r_jcu/src/jcu_api.c ****     bool_t    is_end;
 2089              		.loc 1 1579 0
 2090 0124 0680A0E1 		mov	r8, r6
1593:../generate/sc_drivers/r_jcu/src/jcu_api.c ****         } /* Error: <Parameter/> */
 2091              		.loc 1 1593 0
 2092 0128 274100E3 		movw	r4, #295
 2093 012c 454140E3 		movt	r4, 325
 2094              	.LVL259:
 2095              	.L182:
1666:../generate/sc_drivers/r_jcu/src/jcu_api.c ****             if(e==0)
1667:../generate/sc_drivers/r_jcu/src/jcu_api.c ****             {
1668:../generate/sc_drivers/r_jcu/src/jcu_api.c ****                 e=ee;
1669:../generate/sc_drivers/r_jcu/src/jcu_api.c ****             }
1670:../generate/sc_drivers/r_jcu/src/jcu_api.c ****         }
1671:../generate/sc_drivers/r_jcu/src/jcu_api.c ****     }
1672:../generate/sc_drivers/r_jcu/src/jcu_api.c **** 
1673:../generate/sc_drivers/r_jcu/src/jcu_api.c **** fin:
1674:../generate/sc_drivers/r_jcu/src/jcu_api.c ****     if ( was_enabled )
 2096              		.loc 1 1674 0
 2097 0130 000058E3 		cmp	r8, #0
 2098 0134 0C00001A 		bne	.L204
 2099              	.L190:
1675:../generate/sc_drivers/r_jcu/src/jcu_api.c ****     {
1676:../generate/sc_drivers/r_jcu/src/jcu_api.c ****         R_JCU_EnableInterrupt();
1677:../generate/sc_drivers/r_jcu/src/jcu_api.c ****     }
1678:../generate/sc_drivers/r_jcu/src/jcu_api.c **** 
1679:../generate/sc_drivers/r_jcu/src/jcu_api.c ****     self->AsyncStatus.ReturnValue = e;
 2100              		.loc 1 1679 0
 2101 0138 344085E5 		str	r4, [r5, #52]
1680:../generate/sc_drivers/r_jcu/src/jcu_api.c ****     R_ERROR_Set( e );
 2102              		.loc 1 1680 0
 2103 013c 0400A0E1 		mov	r0, r4
 2104 0140 FEFFFFEB 		bl	R_ERROR_Set
 2105              	.LVL260:
1681:../generate/sc_drivers/r_jcu/src/jcu_api.c **** 
1682:../generate/sc_drivers/r_jcu/src/jcu_api.c ****     if ( is_callback_2 )
 2106              		.loc 1 1682 0
 2107 0144 000056E3 		cmp	r6, #0
 2108 0148 0900001A 		bne	.L205
 2109              	.L191:
1683:../generate/sc_drivers/r_jcu/src/jcu_api.c ****     {
1684:../generate/sc_drivers/r_jcu/src/jcu_api.c ****         self->AsyncStatus.OnFinalized( self->AsyncStatus.OnFinalizedArgument );
1685:../generate/sc_drivers/r_jcu/src/jcu_api.c ****     }
1686:../generate/sc_drivers/r_jcu/src/jcu_api.c ****     if ( is_callback_1 )
 2110              		.loc 1 1686 0
 2111 014c 000057E3 		cmp	r7, #0
 2112 0150 0B00001A 		bne	.L206
 2113              	.L181:
1687:../generate/sc_drivers/r_jcu/src/jcu_api.c ****     {
1688:../generate/sc_drivers/r_jcu/src/jcu_api.c ****         self->AsyncStatus.OnFinished( self->AsyncStatus.OnFinishedArgument );
1689:../generate/sc_drivers/r_jcu/src/jcu_api.c ****     }
1690:../generate/sc_drivers/r_jcu/src/jcu_api.c **** 
1691:../generate/sc_drivers/r_jcu/src/jcu_api.c ****     return  e;
1692:../generate/sc_drivers/r_jcu/src/jcu_api.c **** } /* End of function R_JCU_OnInterrupted */
 2114              		.loc 1 1692 0
 2115 0154 0400A0E1 		mov	r0, r4
 2116 0158 08D08DE2 		add	sp, sp, #8
 2117              		.cfi_remember_state
 2118              		.cfi_def_cfa_offset 24
 2119              		@ sp needed
 2120 015c F081BDE8 		pop	{r4, r5, r6, r7, r8, pc}
 2121              	.LVL261:
 2122              	.L198:
 2123              		.cfi_restore_state
1583:../generate/sc_drivers/r_jcu/src/jcu_api.c **** 
 2124              		.loc 1 1583 0
 2125 0160 0760A0E1 		mov	r6, r7
1597:../generate/sc_drivers/r_jcu/src/jcu_api.c **** 
 2126              		.loc 1 1597 0
 2127 0164 0040A0E3 		mov	r4, #0
 2128 0168 F0FFFFEA 		b	.L182
 2129              	.LVL262:
 2130              	.L204:
1676:../generate/sc_drivers/r_jcu/src/jcu_api.c ****     }
 2131              		.loc 1 1676 0
 2132 016c FEFFFFEB 		bl	R_JCU_EnableInterrupt
 2133              	.LVL263:
 2134 0170 F0FFFFEA 		b	.L190
 2135              	.L205:
1684:../generate/sc_drivers/r_jcu/src/jcu_api.c ****     }
 2136              		.loc 1 1684 0
 2137 0174 2C3095E5 		ldr	r3, [r5, #44]
 2138 0178 300095E5 		ldr	r0, [r5, #48]
 2139 017c 33FF2FE1 		blx	r3
 2140              	.LVL264:
 2141 0180 F1FFFFEA 		b	.L191
 2142              	.L206:
1688:../generate/sc_drivers/r_jcu/src/jcu_api.c ****     }
 2143              		.loc 1 1688 0
 2144 0184 243095E5 		ldr	r3, [r5, #36]
 2145 0188 280095E5 		ldr	r0, [r5, #40]
 2146 018c 33FF2FE1 		blx	r3
 2147              	.LVL265:
1691:../generate/sc_drivers/r_jcu/src/jcu_api.c **** } /* End of function R_JCU_OnInterrupted */
 2148              		.loc 1 1691 0
 2149 0190 EFFFFFEA 		b	.L181
 2150              		.cfi_endproc
 2151              	.LFE31:
 2153              		.section	.text.R_JCU_OnInterrupting,"ax",%progbits
 2154              		.align	2
 2155              		.global	R_JCU_OnInterrupting
 2156              		.syntax unified
 2157              		.arm
 2158              		.fpu neon
 2160              	R_JCU_OnInterrupting:
 2161              	.LFB30:
1524:../generate/sc_drivers/r_jcu/src/jcu_api.c ****     errnum_t  e;
 2162              		.loc 1 1524 0
 2163              		.cfi_startproc
 2164              		@ args = 0, pretend = 0, frame = 0
 2165              		@ frame_needed = 0, uses_anonymous_args = 0
 2166 0000 10402DE9 		push	{r4, lr}
 2167              		.cfi_def_cfa_offset 8
 2168              		.cfi_offset 4, -8
 2169              		.cfi_offset 14, -4
1528:../generate/sc_drivers/r_jcu/src/jcu_api.c **** 
 2170              		.loc 1 1528 0
 2171 0004 FEFFFFEB 		bl	R_JCU_GetInternalInformation
 2172              	.LVL266:
1533:../generate/sc_drivers/r_jcu/src/jcu_api.c ****         {
 2173              		.loc 1 1533 0
 2174 0008 004050E2 		subs	r4, r0, #0
 2175 000c 0A00000A 		beq	.L209
 2176              	.LVL267:
1541:../generate/sc_drivers/r_jcu/src/jcu_api.c **** 
 2177              		.loc 1 1541 0
 2178 0010 4030A0E3 		mov	r3, #64
 2179 0014 0C30C4E5 		strb	r3, [r4, #12]
1543:../generate/sc_drivers/r_jcu/src/jcu_api.c **** 
 2180              		.loc 1 1543 0
 2181 0018 180084E2 		add	r0, r4, #24
 2182              	.LVL268:
 2183 001c FEFFFFEB 		bl	JCU_OnInterrupting
 2184              	.LVL269:
1547:../generate/sc_drivers/r_jcu/src/jcu_api.c **** 
 2185              		.loc 1 1547 0
 2186 0020 7F30E0E3 		mvn	r3, #127
 2187 0024 0C30C4E5 		strb	r3, [r4, #12]
1550:../generate/sc_drivers/r_jcu/src/jcu_api.c **** 
 2188              		.loc 1 1550 0
 2189 0028 1C3094E5 		ldr	r3, [r4, #28]
 2190 002c 200094E5 		ldr	r0, [r4, #32]
 2191 0030 33FF2FE1 		blx	r3
 2192              	.LVL270:
1539:../generate/sc_drivers/r_jcu/src/jcu_api.c **** 
 2193              		.loc 1 1539 0
 2194 0034 0000A0E3 		mov	r0, #0
 2195 0038 1080BDE8 		pop	{r4, pc}
 2196              	.LVL271:
 2197              	.L209:
1535:../generate/sc_drivers/r_jcu/src/jcu_api.c ****         } /* Error: <Parameter/> */
 2198              		.loc 1 1535 0
 2199 003c 260100E3 		movw	r0, #294
 2200              	.LVL272:
 2201 0040 450140E3 		movt	r0, 325
 2202              	.L208:
 2203              	.LVL273:
1556:../generate/sc_drivers/r_jcu/src/jcu_api.c **** 
 2204              		.loc 1 1556 0
 2205 0044 1080BDE8 		pop	{r4, pc}
 2206              		.cfi_endproc
 2207              	.LFE30:
 2209              		.section	.bss.gs_jcu_internal_information,"aw",%nobits
 2210              		.align	2
 2211              		.set	.LANCHOR0,. + 0
 2214              	gs_jcu_internal_information:
 2215 0000 00000000 		.space	60
 2215      00000000 
 2215      00000000 
 2215      00000000 
 2215      00000000 
 2216              		.text
 2217              	.Letext0:
 2218              		.file 2 "c:\\program files (x86)\\gnu tools arm embedded\\6 2017-q2-update\\lib\\gcc\\arm-none-eab
 2219              		.file 3 "c:\\program files (x86)\\gnu tools arm embedded\\6 2017-q2-update\\arm-none-eabi\\include
 2220              		.file 4 "c:\\program files (x86)\\gnu tools arm embedded\\6 2017-q2-update\\arm-none-eabi\\include
 2221              		.file 5 "c:\\program files (x86)\\gnu tools arm embedded\\6 2017-q2-update\\arm-none-eabi\\include
 2222              		.file 6 "c:\\program files (x86)\\gnu tools arm embedded\\6 2017-q2-update\\arm-none-eabi\\include
 2223              		.file 7 "c:\\program files (x86)\\gnu tools arm embedded\\6 2017-q2-update\\arm-none-eabi\\include
 2224              		.file 8 "c:\\program files (x86)\\gnu tools arm embedded\\6 2017-q2-update\\arm-none-eabi\\include
 2225              		.file 9 "c:\\program files (x86)\\gnu tools arm embedded\\6 2017-q2-update\\arm-none-eabi\\include
 2226              		.file 10 "C:/Users/tle/e2_studio/workspace/rza2m_cam_and_disp_sample_freertos_gcc/generate/system/
 2227              		.file 11 "C:/Users/tle/e2_studio/workspace/rza2m_cam_and_disp_sample_freertos_gcc/generate/system/
 2228              		.file 12 "C:/Users/tle/e2_studio/workspace/rza2m_cam_and_disp_sample_freertos_gcc/generate/sc_driv
 2229              		.file 13 "C:/Users/tle/e2_studio/workspace/rza2m_cam_and_disp_sample_freertos_gcc/generate/sc_driv
 2230              		.file 14 "../generate/sc_drivers/r_jcu/src/../src/r_jcu_local.h"
 2231              		.file 15 "../generate/sc_drivers/r_jcu/src/../src/r_jcu_pl.h"
 2232              		.file 16 "C:/Users/tle/e2_studio/workspace/rza2m_cam_and_disp_sample_freertos_gcc/generate/sc_driv
DEFINED SYMBOLS
                            *ABS*:00000000 jcu_api.c
C:\Users\tle\AppData\Local\Temp\ccpSCFxQ.s:17     .text.R_JCU_GetAsyncError_ST:00000000 $a
C:\Users\tle\AppData\Local\Temp\ccpSCFxQ.s:22     .text.R_JCU_GetAsyncError_ST:00000000 R_JCU_GetAsyncError_ST
C:\Users\tle\AppData\Local\Temp\ccpSCFxQ.s:2211   .bss.gs_jcu_internal_information:00000000 .LANCHOR0
C:\Users\tle\AppData\Local\Temp\ccpSCFxQ.s:51     .text.R_JCU_SetErrorFilter_ST:00000000 $a
C:\Users\tle\AppData\Local\Temp\ccpSCFxQ.s:56     .text.R_JCU_SetErrorFilter_ST:00000000 R_JCU_SetErrorFilter_ST
C:\Users\tle\AppData\Local\Temp\ccpSCFxQ.s:112    .text.R_JCU_SelectCodec_ST:00000000 $a
C:\Users\tle\AppData\Local\Temp\ccpSCFxQ.s:117    .text.R_JCU_SelectCodec_ST:00000000 R_JCU_SelectCodec_ST
C:\Users\tle\AppData\Local\Temp\ccpSCFxQ.s:245    .text.R_JCU_SetPauseForImageInfo_ST:00000000 $a
C:\Users\tle\AppData\Local\Temp\ccpSCFxQ.s:250    .text.R_JCU_SetPauseForImageInfo_ST:00000000 R_JCU_SetPauseForImageInfo_ST
C:\Users\tle\AppData\Local\Temp\ccpSCFxQ.s:347    .text.R_JCU_StartAsync_ST:00000000 $a
C:\Users\tle\AppData\Local\Temp\ccpSCFxQ.s:352    .text.R_JCU_StartAsync_ST:00000000 R_JCU_StartAsync_ST
C:\Users\tle\AppData\Local\Temp\ccpSCFxQ.s:442    .text.R_JCU_ContinueAsync_ST:00000000 $a
C:\Users\tle\AppData\Local\Temp\ccpSCFxQ.s:447    .text.R_JCU_ContinueAsync_ST:00000000 R_JCU_ContinueAsync_ST
C:\Users\tle\AppData\Local\Temp\ccpSCFxQ.s:615    .text.R_JCU_SetDecodeParam_ST:00000000 $a
C:\Users\tle\AppData\Local\Temp\ccpSCFxQ.s:620    .text.R_JCU_SetDecodeParam_ST:00000000 R_JCU_SetDecodeParam_ST
C:\Users\tle\AppData\Local\Temp\ccpSCFxQ.s:731    .text.R_JCU_GetImageInfo_ST:00000000 $a
C:\Users\tle\AppData\Local\Temp\ccpSCFxQ.s:736    .text.R_JCU_GetImageInfo_ST:00000000 R_JCU_GetImageInfo_ST
C:\Users\tle\AppData\Local\Temp\ccpSCFxQ.s:825    .text.R_JCU_SetQuantizationTable_ST:00000000 $a
C:\Users\tle\AppData\Local\Temp\ccpSCFxQ.s:830    .text.R_JCU_SetQuantizationTable_ST:00000000 R_JCU_SetQuantizationTable_ST
C:\Users\tle\AppData\Local\Temp\ccpSCFxQ.s:932    .text.R_JCU_SetHuffmanTable_ST:00000000 $a
C:\Users\tle\AppData\Local\Temp\ccpSCFxQ.s:937    .text.R_JCU_SetHuffmanTable_ST:00000000 R_JCU_SetHuffmanTable_ST
C:\Users\tle\AppData\Local\Temp\ccpSCFxQ.s:1041   .text.R_JCU_SetEncodeParam_ST:00000000 $a
C:\Users\tle\AppData\Local\Temp\ccpSCFxQ.s:1046   .text.R_JCU_SetEncodeParam_ST:00000000 R_JCU_SetEncodeParam_ST
C:\Users\tle\AppData\Local\Temp\ccpSCFxQ.s:1157   .text.R_JCU_GetEncodedSize_ST:00000000 $a
C:\Users\tle\AppData\Local\Temp\ccpSCFxQ.s:1162   .text.R_JCU_GetEncodedSize_ST:00000000 R_JCU_GetEncodedSize_ST
C:\Users\tle\AppData\Local\Temp\ccpSCFxQ.s:1206   .text.R_JCU_SelectCodec:00000000 $a
C:\Users\tle\AppData\Local\Temp\ccpSCFxQ.s:1212   .text.R_JCU_SelectCodec:00000000 R_JCU_SelectCodec
C:\Users\tle\AppData\Local\Temp\ccpSCFxQ.s:1232   .text.R_JCU_StartAsync:00000000 $a
C:\Users\tle\AppData\Local\Temp\ccpSCFxQ.s:1238   .text.R_JCU_StartAsync:00000000 R_JCU_StartAsync
C:\Users\tle\AppData\Local\Temp\ccpSCFxQ.s:1258   .text.R_JCU_GetAsyncError:00000000 $a
C:\Users\tle\AppData\Local\Temp\ccpSCFxQ.s:1264   .text.R_JCU_GetAsyncError:00000000 R_JCU_GetAsyncError
C:\Users\tle\AppData\Local\Temp\ccpSCFxQ.s:1283   .text.R_JCU_ContinueAsync:00000000 $a
C:\Users\tle\AppData\Local\Temp\ccpSCFxQ.s:1289   .text.R_JCU_ContinueAsync:00000000 R_JCU_ContinueAsync
C:\Users\tle\AppData\Local\Temp\ccpSCFxQ.s:1309   .text.R_JCU_SetDecodeParam:00000000 $a
C:\Users\tle\AppData\Local\Temp\ccpSCFxQ.s:1315   .text.R_JCU_SetDecodeParam:00000000 R_JCU_SetDecodeParam
C:\Users\tle\AppData\Local\Temp\ccpSCFxQ.s:1335   .text.R_JCU_SetPauseForImageInfo:00000000 $a
C:\Users\tle\AppData\Local\Temp\ccpSCFxQ.s:1341   .text.R_JCU_SetPauseForImageInfo:00000000 R_JCU_SetPauseForImageInfo
C:\Users\tle\AppData\Local\Temp\ccpSCFxQ.s:1361   .text.R_JCU_GetImageInfo:00000000 $a
C:\Users\tle\AppData\Local\Temp\ccpSCFxQ.s:1367   .text.R_JCU_GetImageInfo:00000000 R_JCU_GetImageInfo
C:\Users\tle\AppData\Local\Temp\ccpSCFxQ.s:1387   .text.R_JCU_SetErrorFilter:00000000 $a
C:\Users\tle\AppData\Local\Temp\ccpSCFxQ.s:1393   .text.R_JCU_SetErrorFilter:00000000 R_JCU_SetErrorFilter
C:\Users\tle\AppData\Local\Temp\ccpSCFxQ.s:1413   .text.R_JCU_SetQuantizationTable:00000000 $a
C:\Users\tle\AppData\Local\Temp\ccpSCFxQ.s:1419   .text.R_JCU_SetQuantizationTable:00000000 R_JCU_SetQuantizationTable
C:\Users\tle\AppData\Local\Temp\ccpSCFxQ.s:1439   .text.R_JCU_SetHuffmanTable:00000000 $a
C:\Users\tle\AppData\Local\Temp\ccpSCFxQ.s:1445   .text.R_JCU_SetHuffmanTable:00000000 R_JCU_SetHuffmanTable
C:\Users\tle\AppData\Local\Temp\ccpSCFxQ.s:1465   .text.R_JCU_SetEncodeParam:00000000 $a
C:\Users\tle\AppData\Local\Temp\ccpSCFxQ.s:1471   .text.R_JCU_SetEncodeParam:00000000 R_JCU_SetEncodeParam
C:\Users\tle\AppData\Local\Temp\ccpSCFxQ.s:1491   .text.R_JCU_GetEncodedSize:00000000 $a
C:\Users\tle\AppData\Local\Temp\ccpSCFxQ.s:1497   .text.R_JCU_GetEncodedSize:00000000 R_JCU_GetEncodedSize
C:\Users\tle\AppData\Local\Temp\ccpSCFxQ.s:1517   .text.R_JCU_FinalizeStep2_Sub:00000000 $a
C:\Users\tle\AppData\Local\Temp\ccpSCFxQ.s:1523   .text.R_JCU_FinalizeStep2_Sub:00000000 R_JCU_FinalizeStep2_Sub
C:\Users\tle\AppData\Local\Temp\ccpSCFxQ.s:1561   .text.R_JCU_TerminateAsync_ST:00000000 $a
C:\Users\tle\AppData\Local\Temp\ccpSCFxQ.s:1566   .text.R_JCU_TerminateAsync_ST:00000000 R_JCU_TerminateAsync_ST
C:\Users\tle\AppData\Local\Temp\ccpSCFxQ.s:1714   .text.R_JCU_TerminateAsync:00000000 $a
C:\Users\tle\AppData\Local\Temp\ccpSCFxQ.s:1720   .text.R_JCU_TerminateAsync:00000000 R_JCU_TerminateAsync
C:\Users\tle\AppData\Local\Temp\ccpSCFxQ.s:1740   .text.R_JCU_Initialize_ST:00000000 $a
C:\Users\tle\AppData\Local\Temp\ccpSCFxQ.s:1745   .text.R_JCU_Initialize_ST:00000000 R_JCU_Initialize_ST
C:\Users\tle\AppData\Local\Temp\ccpSCFxQ.s:1917   .text.R_JCU_OnInterrupted:00000000 R_JCU_OnInterrupted
C:\Users\tle\AppData\Local\Temp\ccpSCFxQ.s:1865   .text.R_JCU_Initialize:00000000 $a
C:\Users\tle\AppData\Local\Temp\ccpSCFxQ.s:1871   .text.R_JCU_Initialize:00000000 R_JCU_Initialize
C:\Users\tle\AppData\Local\Temp\ccpSCFxQ.s:1891   .text.R_JCU_GetInternalInformation:00000000 $a
C:\Users\tle\AppData\Local\Temp\ccpSCFxQ.s:1897   .text.R_JCU_GetInternalInformation:00000000 R_JCU_GetInternalInformation
C:\Users\tle\AppData\Local\Temp\ccpSCFxQ.s:1912   .text.R_JCU_OnInterrupted:00000000 $a
C:\Users\tle\AppData\Local\Temp\ccpSCFxQ.s:2154   .text.R_JCU_OnInterrupting:00000000 $a
C:\Users\tle\AppData\Local\Temp\ccpSCFxQ.s:2160   .text.R_JCU_OnInterrupting:00000000 R_JCU_OnInterrupting
C:\Users\tle\AppData\Local\Temp\ccpSCFxQ.s:2210   .bss.gs_jcu_internal_information:00000000 $d
C:\Users\tle\AppData\Local\Temp\ccpSCFxQ.s:2214   .bss.gs_jcu_internal_information:00000000 gs_jcu_internal_information
                     .debug_frame:00000010 $d
                           .group:00000000 wm4.0.14fc17be114e5a2cba0959c511ea2aaf
                           .group:00000000 wm4._newlib_version.h.4.3572908597b70d672d181fc7fc501c19
                           .group:00000000 wm4.newlib.h.21.59901f4bf241ab46c63694665baa7297
                           .group:00000000 wm4.features.h.22.5cdadbb3efe495d1c9e38350b8c376c7
                           .group:00000000 wm4.config.h.219.65a553ab5bef5482f0d7880b0d33015e
                           .group:00000000 wm4._ansi.h.23.9f8fcfa20193763fcf364fb91705c94b
                           .group:00000000 wm4.stddef.h.39.a38874c8f8a57e66301090908ec2a69f
                           .group:00000000 wm4._default_types.h.6.959254cf5f09734ea7516c89e8bb21bd
                           .group:00000000 wm4.lock.h.2.1461d1fff82dffe8bfddc23307f6484f
                           .group:00000000 wm4._types.h.125.5cf8a495f1f7ef36777ad868a1e32068
                           .group:00000000 wm4.stddef.h.161.5349cb105733e8777bfb0cf53c4e3f34
                           .group:00000000 wm4._types.h.183.c226d164ceca1f2ecb9ae9360c54a098
                           .group:00000000 wm4.reent.h.17.23b059516345f8f5abfa01ddc379570f
                           .group:00000000 wm4.cdefs.h.47.e658329a094974ebad41b40c60502de7
                           .group:00000000 wm4.string.h.15.dab3980bf35408a4c507182805e2de3a
                           .group:00000000 wm4.stddef.h.161.19e15733342b50ead2919490b095303e
                           .group:00000000 wm4._intsup.h.10.cce27fed8484c08a33f522034c30d2b5
                           .group:00000000 wm4._stdint.h.10.c24fa3af3bc1706662bb5593a907e841
                           .group:00000000 wm4.stdint.h.23.d53047a68f4a85177f80b422d52785ed
                           .group:00000000 wm4.math.h.13.adb102f7bd7860b1f241e149d6914a1e
                           .group:00000000 wm4.r_typedefs.h.38.e90d9de5300d9ae020e5db8c5af88b3e
                           .group:00000000 wm4.adc_iodefine.h.29.14c6f50dce37432a7d004e4b1ce33da7
                           .group:00000000 wm4.bsc_iodefine.h.29.9281d1f3639266933964d6d0c2d42c4f
                           .group:00000000 wm4.ceu_iodefine.h.29.2a669d0b46fdde030a50db9e3c307fbf
                           .group:00000000 wm4.cpg_iodefine.h.29.d6fdc9cb4798723afd88b251d64c2ce2
                           .group:00000000 wm4.csi2link_iodefine.h.29.221c4531636a409f24d307b16341ada8
                           .group:00000000 wm4.dmac_iodefine.h.29.578fccc2cc1da886ec95a029bf874f01
                           .group:00000000 wm4.drpk_iodefine.h.29.580eb8588a2b2d43d2726fbe791e513f
                           .group:00000000 wm4.drw_iodefine.h.29.df30f4a4a34a79f6a86c4df91353dffe
                           .group:00000000 wm4.edmac_iodefine.h.29.33e8759349004a722f42f5429c1353f6
                           .group:00000000 wm4.eptpc_iodefine.h.29.74d8f9fab0f5549b56097fb9e937dde8
                           .group:00000000 wm4.etherc_iodefine.h.29.14602750383a574f1c21f994ad33a366
                           .group:00000000 wm4.gpio_iodefine.h.29.3d0b021c56839cee4ae5149903684e4b
                           .group:00000000 wm4.gpt_iodefine.h.29.557ead75d7b0585b898d3898b64c7f87
                           .group:00000000 wm4.hyper_iodefine.h.29.000caadbb74d881e97db55b39b432154
                           .group:00000000 wm4.imr_iodefine.h.29.77c022f017e711c4d51cc0145db1dad3
                           .group:00000000 wm4.intc_iodefine.h.29.b68f5799a35a7495d63b4cd458e1ba57
                           .group:00000000 wm4.irda_iodefine.h.29.37e67bd2005173d68a74d1cc937d8444
                           .group:00000000 wm4.jcu_iodefine.h.29.3aca452908962e7a7ccf26164751feda
                           .group:00000000 wm4.lvds_iodefine.h.29.c11cbe1900e5209c8dcc76c2336c16bc
                           .group:00000000 wm4.mtu_iodefine.h.29.5498fb974bb53caf05aa143c2deec781
                           .group:00000000 wm4.nandc_iodefine.h.29.e0b343306750f017ee86e169ad98efe9
                           .group:00000000 wm4.octa_iodefine.h.29.4cb0d62e4b9633e173858000dc1c626c
                           .group:00000000 wm4.ostm_iodefine.h.29.6914f7e330a1cf0008b34219adcdfed4
                           .group:00000000 wm4.pl_iodefine.h.29.abbb6d725aed990aa8343242bfe31416
                           .group:00000000 wm4.pmg_iodefine.h.29.8bcfbc4771a6f9b7dd4d6f504427219e
                           .group:00000000 wm4.poeg_iodefine.h.29.0d8e258d10986260cbc70cfb8c0ef273
                           .group:00000000 wm4.poe_iodefine.h.29.fe74e55e7b6b4afbe3596c74ba035e98
                           .group:00000000 wm4.prr_iodefine.h.29.c1f15576f7a27b9c83aa3b40f5b2f988
                           .group:00000000 wm4.ptpedmac_iodefine.h.29.cd24a93374ce35cebc41e26889d619ef
                           .group:00000000 wm4.rcanfd_iodefine.h.29.532dd48b82fcb61d63538aba4b6f1289
                           .group:00000000 wm4.rcan_iodefine.h.29.a47a89db1b35c12b54af48fa1956acba
                           .group:00000000 wm4.riic_iodefine.h.29.f96943d49800d297612c4af3bba5c943
                           .group:00000000 wm4.rspi_iodefine.h.29.7efa041fe34a7d27db66a7b337879dfe
                           .group:00000000 wm4.rtc_iodefine.h.29.6dc76be5ca3df69cecb5a81d06cc46b5
                           .group:00000000 wm4.scifa_iodefine.h.29.b04ccd664d71baaf31c75761c45b9c4d
                           .group:00000000 wm4.scim_iodefine.h.29.87d0760abf94446b00d826c797bf0ff2
                           .group:00000000 wm4.sdmmc_iodefine.h.29.e67e9815445e8057a3262d1566bea0db
                           .group:00000000 wm4.spdif_iodefine.h.29.59f5d70150fa200a4d8ee50be1ee34c8
                           .group:00000000 wm4.spibsc_iodefine.h.29.f4930f8b8da1140200204513a363c76f
                           .group:00000000 wm4.sprite_iodefine.h.29.55796d1fa083a2457fea4ece974a192e
                           .group:00000000 wm4.ssif_iodefine.h.29.054ec6d95f487f631f16aee39c85c47a
                           .group:00000000 wm4.usb_iodefine.h.29.6dc44ea388ba227e8fdcfb33c315887b
                           .group:00000000 wm4.vdc_iodefine.h.29.db282ded1f052d8567fbbd3b61ce8f7a
                           .group:00000000 wm4.vin_iodefine.h.29.9b392e5601347d53e64be3272934e170
                           .group:00000000 wm4.wdt_iodefine.h.29.ed07bb44b797072f8c28b41c64fdca30
                           .group:00000000 wm4.iobitmask.h.29.773e8f8428b0c21e1206a8c47a6d3927
                           .group:00000000 wm4.adc_iobitmask.h.29.48ba2821c8a4fc20022447ad9316d399
                           .group:00000000 wm4.bsc_iobitmask.h.29.115d15c4ad4b48e00598dcd62d33c637
                           .group:00000000 wm4.ceu_iobitmask.h.29.413b5b68bb3c2148786493166a57173e
                           .group:00000000 wm4.cpg_iobitmask.h.29.128911f0454a5339c74031b8d73e8fed
                           .group:00000000 wm4.csi2link_iobitmask.h.29.701c130cb17627664fe7c147084057cf
                           .group:00000000 wm4.dmac_iobitmask.h.29.98850e876107975c53dc0bb8ebb53eb5
                           .group:00000000 wm4.drpk_iobitmask.h.29.167e7cf6b1feb4d38b8903a46d8c35ac
                           .group:00000000 wm4.drw_iobitmask.h.29.71d46f2244f6e7ae6117fe6c41c5567d
                           .group:00000000 wm4.edmac_iobitmask.h.29.4e406d859155ba914663e1cf61cad89a
                           .group:00000000 wm4.eptpc_iobitmask.h.29.64bcd0a67db3a886572992ae6da8898c
                           .group:00000000 wm4.etherc_iobitmask.h.29.07b13cb10c426023658e5c51f952b6de
                           .group:00000000 wm4.gpio_iobitmask.h.29.ea8c1464682eb61f2d0763b97ed530f9
                           .group:00000000 wm4.gpt_iobitmask.h.29.94173800a704c5ba32e348ba97cd23cf
                           .group:00000000 wm4.hyper_iobitmask.h.29.f09febbc7b835674abe34ae75f3c700d
                           .group:00000000 wm4.imr2_iobitmask.h.29.fff702c4c9409266054e806327fa236b
                           .group:00000000 wm4.intc_iobitmask.h.29.6d3be2e47bf3d7eb7e91eeddcab863af
                           .group:00000000 wm4.irda_iobitmask.h.29.6f43dde454e599a1d4a8be2978ac9459
                           .group:00000000 wm4.jcu_iobitmask.h.29.9fd48851a81ff31733aa19b29e4846ad
                           .group:00000000 wm4.lvds_iobitmask.h.29.4a6f69c8911426fa05f0b05eab5f5e15
                           .group:00000000 wm4.mtu_iobitmask.h.29.0dfead439d92d73e6bac91e937399f90
                           .group:00000000 wm4.nandc_iobitmask.h.29.a3a0f4ae99fdf814aa6f25f430186b14
                           .group:00000000 wm4.octa_iobitmask.h.29.75dc3e3c70ac86c7551744de3991f583
                           .group:00000000 wm4.ostm_iobitmask.h.29.38ee9f4e1711e17bd3f38545ba631cde
                           .group:00000000 wm4.pl310_iobitmask.h.29.c1ef5625c0a9d67f24e89fe2fd7e4886
                           .group:00000000 wm4.pmg_iobitmask.h.29.d20cb8352080a58cf6cbf526935d968e
                           .group:00000000 wm4.poe3_iobitmask.h.29.3a3444cc2dbf606e2370573e16d57254
                           .group:00000000 wm4.poeg_iobitmask.h.29.5601eb8cf1161926d683c0720340f85d
                           .group:00000000 wm4.prr_iobitmask.h.29.52f8479a52e2236c122b5956e4bdbfce
                           .group:00000000 wm4.ptpedmac_iobitmask.h.29.494dcb2240ebba7fa20d0c2ab02007f7
                           .group:00000000 wm4.rcanfd_iobitmask.h.29.d172f89cbc4f253e32a4e10346bdc9f6
                           .group:00000000 wm4.rcan_iobitmask.h.29.c6f8b9b62e8fdc007f8b5f40c1f7e95d
                           .group:00000000 wm4.riic_iobitmask.h.29.b6e4a30b4a750b93bf8b54b204e41e8e
                           .group:00000000 wm4.rspi_iobitmask.h.29.2e257f44186c83ca40dbb0db2548623b
                           .group:00000000 wm4.rtc_iobitmask.h.29.2c82d3237997f1de7d2ac9d93855f3da
                           .group:00000000 wm4.scifa_iobitmask.h.29.c7af830569e0d6a26f3d66e3adc293d7
                           .group:00000000 wm4.scim_iobitmask.h.29.3b5e9d8b03a11c94acd93de96d2037f6
                           .group:00000000 wm4.sdmmc_iobitmask.h.29.21d47a25c0df1ed3d24cd6232ec3b4e7
                           .group:00000000 wm4.spdif_iobitmask.h.29.c16f83f628828ab24aa2b72615b93e69
                           .group:00000000 wm4.spibsc_iobitmask.h.29.8ade4a581f57cd5b82569a69eb5f0d67
                           .group:00000000 wm4.sprite_iobitmask.h.29.82888597faf7ebb3bc86b5f1018a2253
                           .group:00000000 wm4.ssif_iobitmask.h.29.482529b431f1ad627a02168620c61eee
                           .group:00000000 wm4.usb_iobitmask.h.29.aae4dfd463dfdd120bf5855c9dc97483
                           .group:00000000 wm4.vdc6_iobitmask.h.29.3ce0a3f9d2209ce71e4fec48b4ecb79a
                           .group:00000000 wm4.vin_iobitmask.h.29.576a1d6e4b2cf6cbd353044865e437f2
                           .group:00000000 wm4.wdt_iobitmask.h.29.c612db09eac33fb3da8d8aaee67287a9
                           .group:00000000 wm4.rz_co_typedef.h.30.d945c9904878daee922b7c70f5e10607
                           .group:00000000 wm4.r_jcu_typedef.h.39.25a55931b0de0f8bae5220b1a85bd4c6
                           .group:00000000 wm4.r_jcu_local.h.31.5b6af5fe53806913a1ad340c4f743daf
                           .group:00000000 wm4.rz_co.h.31.aecea41cce99b435cabd8b5611466e3b

UNDEFINED SYMBOLS
R_ERROR_Set
R_JCU_DisableInterrupt
JCU_ParaCheckSelectCodec
JCU_SetRegisterForCodec
JCU_SetRegisterForSetPause
R_JCU_EnableInterrupt
JCU_ParaCheckStart
JCU_SetRegisterForStart
JCU_SetRegisterForContinue
JCU_ParaCheckSetDecodeParam
JCU_SetRegisterForSetDecodePrm
JCU_ParaCheckGetImageInfo
JCU_GetRegisterForGetImageInfo
JCU_ParaCheckSetQuantizationTbl
JCU_SetRegisterForSetQtTable
JCU_ParaCheckSetHuffmanTable
JCU_SetRegisterForSetHuffTbl
JCU_ParaCheckEncodeParam
JCU_SetRegisterForSetEncodePrm
JCU_GetEncodedSize
R_JCU_OnFinalize
R_JCU_OnInitialize
JCU_SetRegisterForInitialize
R_CO_SetTrue
JCU_GetRegisterForGetErrorInfo
JCU_OnInterrupting
