   1              		.cpu cortex-a9
   2              		.eabi_attribute 28, 1
   3              		.eabi_attribute 20, 1
   4              		.eabi_attribute 21, 1
   5              		.eabi_attribute 23, 3
   6              		.eabi_attribute 24, 1
   7              		.eabi_attribute 25, 1
   8              		.eabi_attribute 26, 1
   9              		.eabi_attribute 30, 1
  10              		.eabi_attribute 34, 0
  11              		.eabi_attribute 18, 4
  12              		.file	"jcu_para.c"
  13              		.text
  14              	.Ltext0:
  15              		.cfi_sections	.debug_frame
  16              		.section	.text.JCU_ParaCheckSelectCodec,"ax",%progbits
  17              		.align	2
  18              		.global	JCU_ParaCheckSelectCodec
  19              		.syntax unified
  20              		.arm
  21              		.fpu neon
  23              	JCU_ParaCheckSelectCodec:
  24              	.LFB3:
  25              		.file 1 "../generate/sc_drivers/r_jcu/src/jcu_para.c"
   1:../generate/sc_drivers/r_jcu/src/jcu_para.c **** /**************************************************************************************************
   2:../generate/sc_drivers/r_jcu/src/jcu_para.c ****  * DISCLAIMER
   3:../generate/sc_drivers/r_jcu/src/jcu_para.c ****  * This software is supplied by Renesas Electronics Corporation and is only intended for use with R
   4:../generate/sc_drivers/r_jcu/src/jcu_para.c ****  * other uses are authorized. This software is owned by Renesas Electronics Corporation and is prot
   5:../generate/sc_drivers/r_jcu/src/jcu_para.c ****  * applicable laws, including copyright laws.
   6:../generate/sc_drivers/r_jcu/src/jcu_para.c ****  * THIS SOFTWARE IS PROVIDED "AS IS" AND RENESAS MAKES NO WARRANTIES REGARDING
   7:../generate/sc_drivers/r_jcu/src/jcu_para.c ****  * THIS SOFTWARE, WHETHER EXPRESS, IMPLIED OR STATUTORY, INCLUDING BUT NOT LIMITED TO WARRANTIES OF
   8:../generate/sc_drivers/r_jcu/src/jcu_para.c ****  * FITNESS FOR A PARTICULAR PURPOSE AND NON-INFRINGEMENT. ALL SUCH WARRANTIES ARE EXPRESSLY DISCLAI
   9:../generate/sc_drivers/r_jcu/src/jcu_para.c ****  * EXTENT PERMITTED NOT PROHIBITED BY LAW, NEITHER RENESAS ELECTRONICS CORPORATION NOR ANY OF ITS A
  10:../generate/sc_drivers/r_jcu/src/jcu_para.c ****  * SHALL BE LIABLE FOR ANY DIRECT, INDIRECT, SPECIAL, INCIDENTAL OR CONSEQUENTIAL DAMAGES FOR ANY R
  11:../generate/sc_drivers/r_jcu/src/jcu_para.c ****  * THIS SOFTWARE, EVEN IF RENESAS OR ITS AFFILIATES HAVE BEEN ADVISED OF THE POSSIBILITY OF SUCH DA
  12:../generate/sc_drivers/r_jcu/src/jcu_para.c ****  * Renesas reserves the right, without notice, to make changes to this software and to discontinue 
  13:../generate/sc_drivers/r_jcu/src/jcu_para.c ****  * this software. By using this software, you agree to the additional terms and conditions found by
  14:../generate/sc_drivers/r_jcu/src/jcu_para.c ****  * following link:
  15:../generate/sc_drivers/r_jcu/src/jcu_para.c ****  * http://www.renesas.com/disclaimer
  16:../generate/sc_drivers/r_jcu/src/jcu_para.c ****  *
  17:../generate/sc_drivers/r_jcu/src/jcu_para.c ****  * Copyright (C) 2019 Renesas Electronics Corporation. All rights reserved.
  18:../generate/sc_drivers/r_jcu/src/jcu_para.c ****  **************************************************************************************************
  19:../generate/sc_drivers/r_jcu/src/jcu_para.c **** /*******************************************************************************
  20:../generate/sc_drivers/r_jcu/src/jcu_para.c **** * File         : jcu_para.c
  21:../generate/sc_drivers/r_jcu/src/jcu_para.c **** * Description  : JPEG Codec Unit (JCU) driver. checking parameter.
  22:../generate/sc_drivers/r_jcu/src/jcu_para.c **** * Version      : 1.12
  23:../generate/sc_drivers/r_jcu/src/jcu_para.c **** ******************************************************************************/
  24:../generate/sc_drivers/r_jcu/src/jcu_para.c **** 
  25:../generate/sc_drivers/r_jcu/src/jcu_para.c **** /******************************************************************************
  26:../generate/sc_drivers/r_jcu/src/jcu_para.c **** Includes   <System Includes> , "Project Includes"
  27:../generate/sc_drivers/r_jcu/src/jcu_para.c **** ******************************************************************************/
  28:../generate/sc_drivers/r_jcu/src/jcu_para.c **** #include  <string.h>
  29:../generate/sc_drivers/r_jcu/src/jcu_para.c **** #include  "r_typedefs.h"
  30:../generate/sc_drivers/r_jcu/src/jcu_para.c **** #include  "iodefine.h"
  31:../generate/sc_drivers/r_jcu/src/jcu_para.c **** #include  "iobitmask.h"
  32:../generate/sc_drivers/r_jcu/src/jcu_para.c **** #include  "r_jcu.h"
  33:../generate/sc_drivers/r_jcu/src/jcu_para.c **** #include  "r_register_bit.h"
  34:../generate/sc_drivers/r_jcu/src/jcu_para.c **** #include  "../src/r_jcu_local.h"
  35:../generate/sc_drivers/r_jcu/src/jcu_para.c **** #include  "rz_co.h"
  36:../generate/sc_drivers/r_jcu/src/jcu_para.c **** 
  37:../generate/sc_drivers/r_jcu/src/jcu_para.c **** #ifndef  JCU_RELEASE
  38:../generate/sc_drivers/r_jcu/src/jcu_para.c **** 
  39:../generate/sc_drivers/r_jcu/src/jcu_para.c **** /******************************************************************************
  40:../generate/sc_drivers/r_jcu/src/jcu_para.c **** Typedef definitions
  41:../generate/sc_drivers/r_jcu/src/jcu_para.c **** ******************************************************************************/
  42:../generate/sc_drivers/r_jcu/src/jcu_para.c **** 
  43:../generate/sc_drivers/r_jcu/src/jcu_para.c **** /******************************************************************************
  44:../generate/sc_drivers/r_jcu/src/jcu_para.c **** Macro definitions
  45:../generate/sc_drivers/r_jcu/src/jcu_para.c **** ******************************************************************************/
  46:../generate/sc_drivers/r_jcu/src/jcu_para.c **** #define MASK_LOW_3BIT   (0x7u)
  47:../generate/sc_drivers/r_jcu/src/jcu_para.c **** #define MOD_8           (0x8u)
  48:../generate/sc_drivers/r_jcu/src/jcu_para.c **** #define MOD_16          (0x10u)
  49:../generate/sc_drivers/r_jcu/src/jcu_para.c **** 
  50:../generate/sc_drivers/r_jcu/src/jcu_para.c **** /******************************************************************************
  51:../generate/sc_drivers/r_jcu/src/jcu_para.c **** Imported global variables and functions (from other files)
  52:../generate/sc_drivers/r_jcu/src/jcu_para.c **** ******************************************************************************/
  53:../generate/sc_drivers/r_jcu/src/jcu_para.c **** 
  54:../generate/sc_drivers/r_jcu/src/jcu_para.c **** /******************************************************************************
  55:../generate/sc_drivers/r_jcu/src/jcu_para.c **** Exported global variables and functions (to be accessed by other files)
  56:../generate/sc_drivers/r_jcu/src/jcu_para.c **** ******************************************************************************/
  57:../generate/sc_drivers/r_jcu/src/jcu_para.c **** 
  58:../generate/sc_drivers/r_jcu/src/jcu_para.c **** /******************************************************************************
  59:../generate/sc_drivers/r_jcu/src/jcu_para.c **** Private global variables and functions
  60:../generate/sc_drivers/r_jcu/src/jcu_para.c **** ******************************************************************************/
  61:../generate/sc_drivers/r_jcu/src/jcu_para.c **** 
  62:../generate/sc_drivers/r_jcu/src/jcu_para.c **** /***********************************************************************
  63:../generate/sc_drivers/r_jcu/src/jcu_para.c **** * Function Name: JCU_ParaCheckSelectCodec
  64:../generate/sc_drivers/r_jcu/src/jcu_para.c **** *    SelectCodec api's parameter checking
  65:../generate/sc_drivers/r_jcu/src/jcu_para.c **** *
  66:../generate/sc_drivers/r_jcu/src/jcu_para.c **** * Arguments:
  67:../generate/sc_drivers/r_jcu/src/jcu_para.c **** *    [in] codec  codec type
  68:../generate/sc_drivers/r_jcu/src/jcu_para.c **** *
  69:../generate/sc_drivers/r_jcu/src/jcu_para.c **** * Return Value:
  70:../generate/sc_drivers/r_jcu/src/jcu_para.c **** *    jcu_errorcode_t
  71:../generate/sc_drivers/r_jcu/src/jcu_para.c **** ************************************************************************/
  72:../generate/sc_drivers/r_jcu/src/jcu_para.c **** jcu_errorcode_t JCU_ParaCheckSelectCodec( 
  73:../generate/sc_drivers/r_jcu/src/jcu_para.c ****     const jcu_codec_t   codec)
  74:../generate/sc_drivers/r_jcu/src/jcu_para.c **** {
  26              		.loc 1 74 0
  27              		.cfi_startproc
  28              		@ args = 0, pretend = 0, frame = 0
  29              		@ frame_needed = 0, uses_anonymous_args = 0
  30              	.LVL0:
  31 0000 10402DE9 		push	{r4, lr}
  32              		.cfi_def_cfa_offset 8
  33              		.cfi_offset 4, -8
  34              		.cfi_offset 14, -4
  75:../generate/sc_drivers/r_jcu/src/jcu_para.c ****     jcu_errorcode_t  returnValue; 
  76:../generate/sc_drivers/r_jcu/src/jcu_para.c **** 
  77:../generate/sc_drivers/r_jcu/src/jcu_para.c ****     if ((codec != JCU_ENCODE)
  35              		.loc 1 77 0
  36 0004 010050E3 		cmp	r0, #1
  37 0008 0500009A 		bls	.L3
  78:../generate/sc_drivers/r_jcu/src/jcu_para.c ****         && (codec != JCU_DECODE))
  79:../generate/sc_drivers/r_jcu/src/jcu_para.c ****     {
  80:../generate/sc_drivers/r_jcu/src/jcu_para.c ****         returnValue = JCU_ERROR_PARAM_F;  /* Error: <Parameter/> */
  38              		.loc 1 80 0
  39 000c 0F4100E3 		movw	r4, #271
  40 0010 454140E3 		movt	r4, 325
  41              	.L2:
  42              	.LVL1:
  81:../generate/sc_drivers/r_jcu/src/jcu_para.c ****     }
  82:../generate/sc_drivers/r_jcu/src/jcu_para.c ****     else
  83:../generate/sc_drivers/r_jcu/src/jcu_para.c ****     {
  84:../generate/sc_drivers/r_jcu/src/jcu_para.c ****         returnValue = JCU_ERROR_OK;
  85:../generate/sc_drivers/r_jcu/src/jcu_para.c ****     } /* end if */
  86:../generate/sc_drivers/r_jcu/src/jcu_para.c **** 
  87:../generate/sc_drivers/r_jcu/src/jcu_para.c ****     R_ERROR_Set( returnValue );
  43              		.loc 1 87 0
  44 0014 0400A0E1 		mov	r0, r4
  45              	.LVL2:
  46 0018 FEFFFFEB 		bl	R_ERROR_Set
  47              	.LVL3:
  88:../generate/sc_drivers/r_jcu/src/jcu_para.c ****     return (returnValue);
  89:../generate/sc_drivers/r_jcu/src/jcu_para.c **** } /* End of function JCU_ParaCheckSelectCodec */
  48              		.loc 1 89 0
  49 001c 0400A0E1 		mov	r0, r4
  50 0020 1080BDE8 		pop	{r4, pc}
  51              	.LVL4:
  52              	.L3:
  84:../generate/sc_drivers/r_jcu/src/jcu_para.c ****     } /* end if */
  53              		.loc 1 84 0
  54 0024 0040A0E3 		mov	r4, #0
  55 0028 F9FFFFEA 		b	.L2
  56              		.cfi_endproc
  57              	.LFE3:
  59              		.section	.text.JCU_ParaCheckStart,"ax",%progbits
  60              		.align	2
  61              		.global	JCU_ParaCheckStart
  62              		.syntax unified
  63              		.arm
  64              		.fpu neon
  66              	JCU_ParaCheckStart:
  67              	.LFB4:
  90:../generate/sc_drivers/r_jcu/src/jcu_para.c **** 
  91:../generate/sc_drivers/r_jcu/src/jcu_para.c **** /***********************************************************************
  92:../generate/sc_drivers/r_jcu/src/jcu_para.c **** * Function Name: JCU_ParaCheckStart
  93:../generate/sc_drivers/r_jcu/src/jcu_para.c **** *    Start api's parameter checking
  94:../generate/sc_drivers/r_jcu/src/jcu_para.c **** *
  95:../generate/sc_drivers/r_jcu/src/jcu_para.c **** * Arguments:
  96:../generate/sc_drivers/r_jcu/src/jcu_para.c **** *    [in] codec  codec type
  97:../generate/sc_drivers/r_jcu/src/jcu_para.c **** *
  98:../generate/sc_drivers/r_jcu/src/jcu_para.c **** * Return Value:
  99:../generate/sc_drivers/r_jcu/src/jcu_para.c **** *    jcu_errorcode_t
 100:../generate/sc_drivers/r_jcu/src/jcu_para.c **** ************************************************************************/
 101:../generate/sc_drivers/r_jcu/src/jcu_para.c **** jcu_errorcode_t JCU_ParaCheckStart( 
 102:../generate/sc_drivers/r_jcu/src/jcu_para.c ****     void)
 103:../generate/sc_drivers/r_jcu/src/jcu_para.c **** {
  68              		.loc 1 103 0
  69              		.cfi_startproc
  70              		@ args = 0, pretend = 0, frame = 0
  71              		@ frame_needed = 0, uses_anonymous_args = 0
  72 0000 10402DE9 		push	{r4, lr}
  73              		.cfi_def_cfa_offset 8
  74              		.cfi_offset 4, -8
  75              		.cfi_offset 14, -4
 104:../generate/sc_drivers/r_jcu/src/jcu_para.c ****     jcu_errorcode_t   returnValue; 
 105:../generate/sc_drivers/r_jcu/src/jcu_para.c **** 
 106:../generate/sc_drivers/r_jcu/src/jcu_para.c ****     /* If jcu already start, it cannot update this bit (this is limitation of hardware) */
 107:../generate/sc_drivers/r_jcu/src/jcu_para.c ****     if ( (uint32_t) R_BIT_GET_IN_REGISTER8( JCU,JCCMD,JSRT ) == 1u )
  76              		.loc 1 107 0
  77 0004 0120A0E3 		mov	r2, #1
  78 0008 0010A0E3 		mov	r1, #0
  79 000c 010007E3 		movw	r0, #28673
  80 0010 01084EE3 		movt	r0, 59393
  81 0014 FEFFFFEB 		bl	RZA_IO_RegRead_8
  82              	.LVL5:
  83 0018 010050E3 		cmp	r0, #1
  84 001c 0400000A 		beq	.L9
 108:../generate/sc_drivers/r_jcu/src/jcu_para.c ****     {
 109:../generate/sc_drivers/r_jcu/src/jcu_para.c ****         returnValue = JCU_ERROR_STATUS_14;  /* Error: */
 110:../generate/sc_drivers/r_jcu/src/jcu_para.c ****     }
 111:../generate/sc_drivers/r_jcu/src/jcu_para.c ****     else
 112:../generate/sc_drivers/r_jcu/src/jcu_para.c ****     {
 113:../generate/sc_drivers/r_jcu/src/jcu_para.c ****         returnValue = JCU_ERROR_OK;
  85              		.loc 1 113 0
  86 0020 0040A0E3 		mov	r4, #0
  87              	.L6:
  88              	.LVL6:
 114:../generate/sc_drivers/r_jcu/src/jcu_para.c ****     } /* end if */
 115:../generate/sc_drivers/r_jcu/src/jcu_para.c **** 
 116:../generate/sc_drivers/r_jcu/src/jcu_para.c ****     R_ERROR_Set( returnValue );
  89              		.loc 1 116 0
  90 0024 0400A0E1 		mov	r0, r4
  91 0028 FEFFFFEB 		bl	R_ERROR_Set
  92              	.LVL7:
 117:../generate/sc_drivers/r_jcu/src/jcu_para.c ****     return (returnValue);
 118:../generate/sc_drivers/r_jcu/src/jcu_para.c **** } /* End of function JCU_ParaCheckStart */
  93              		.loc 1 118 0
  94 002c 0400A0E1 		mov	r0, r4
  95 0030 1080BDE8 		pop	{r4, pc}
  96              	.LVL8:
  97              	.L9:
 109:../generate/sc_drivers/r_jcu/src/jcu_para.c ****     }
  98              		.loc 1 109 0
  99 0034 854FA0E3 		mov	r4, #532
 100 0038 454041E3 		movt	r4, 4165
 101 003c F8FFFFEA 		b	.L6
 102              		.cfi_endproc
 103              	.LFE4:
 105              		.section	.text.JCU_ParaCheckSetDecodeParam,"ax",%progbits
 106              		.align	2
 107              		.global	JCU_ParaCheckSetDecodeParam
 108              		.syntax unified
 109              		.arm
 110              		.fpu neon
 112              	JCU_ParaCheckSetDecodeParam:
 113              	.LFB5:
 119:../generate/sc_drivers/r_jcu/src/jcu_para.c **** 
 120:../generate/sc_drivers/r_jcu/src/jcu_para.c **** /***********************************************************************
 121:../generate/sc_drivers/r_jcu/src/jcu_para.c **** * Function Name: JCU_ParaCheckSetDecodeParam
 122:../generate/sc_drivers/r_jcu/src/jcu_para.c **** *    SetDecodeParam api's parameter checking
 123:../generate/sc_drivers/r_jcu/src/jcu_para.c **** *
 124:../generate/sc_drivers/r_jcu/src/jcu_para.c **** * Arguments:
 125:../generate/sc_drivers/r_jcu/src/jcu_para.c **** *    [in] buffer        - input and output buffer settings
 126:../generate/sc_drivers/r_jcu/src/jcu_para.c **** *    [in] interruptKind - tye type of interrupt that use in this system
 127:../generate/sc_drivers/r_jcu/src/jcu_para.c **** *
 128:../generate/sc_drivers/r_jcu/src/jcu_para.c **** * Return Value:
 129:../generate/sc_drivers/r_jcu/src/jcu_para.c **** *    jcu_errorcode_t
 130:../generate/sc_drivers/r_jcu/src/jcu_para.c **** ************************************************************************/
 131:../generate/sc_drivers/r_jcu/src/jcu_para.c **** jcu_errorcode_t JCU_ParaCheckSetDecodeParam( 
 132:../generate/sc_drivers/r_jcu/src/jcu_para.c ****     const jcu_decode_param_t   *const decode, 
 133:../generate/sc_drivers/r_jcu/src/jcu_para.c ****     const jcu_buffer_param_t   *const buffer)
 134:../generate/sc_drivers/r_jcu/src/jcu_para.c **** {
 114              		.loc 1 134 0
 115              		.cfi_startproc
 116              		@ args = 0, pretend = 0, frame = 0
 117              		@ frame_needed = 0, uses_anonymous_args = 0
 118              	.LVL9:
 119 0000 10402DE9 		push	{r4, lr}
 120              		.cfi_def_cfa_offset 8
 121              		.cfi_offset 4, -8
 122              		.cfi_offset 14, -4
 123              	.LVL10:
 135:../generate/sc_drivers/r_jcu/src/jcu_para.c ****     jcu_errorcode_t  returnValue = JCU_ERROR_OK; 
 136:../generate/sc_drivers/r_jcu/src/jcu_para.c **** 
 137:../generate/sc_drivers/r_jcu/src/jcu_para.c ****     /* Cast to an appropriate type */
 138:../generate/sc_drivers/r_jcu/src/jcu_para.c ****     if ((decode == NULL) || (buffer == NULL))
 124              		.loc 1 138 0
 125 0004 000051E3 		cmp	r1, #0
 126 0008 00005013 		cmpne	r0, #0
 127 000c 0500001A 		bne	.L21
 139:../generate/sc_drivers/r_jcu/src/jcu_para.c ****     {
 140:../generate/sc_drivers/r_jcu/src/jcu_para.c ****         returnValue = JCU_ERROR_PARAM_19;  /* Error: <Parameter/> */
 128              		.loc 1 140 0
 129 0010 194100E3 		movw	r4, #281
 130 0014 454140E3 		movt	r4, 325
 131              	.LVL11:
 132              	.L11:
 141:../generate/sc_drivers/r_jcu/src/jcu_para.c ****         goto fin;
 142:../generate/sc_drivers/r_jcu/src/jcu_para.c ****     } /* end if */
 143:../generate/sc_drivers/r_jcu/src/jcu_para.c **** 
 144:../generate/sc_drivers/r_jcu/src/jcu_para.c ****     /* NULL check for the address data */
 145:../generate/sc_drivers/r_jcu/src/jcu_para.c ****     if ((buffer->source.address == NULL)|| (buffer->destination.address == NULL))
 146:../generate/sc_drivers/r_jcu/src/jcu_para.c ****     {
 147:../generate/sc_drivers/r_jcu/src/jcu_para.c ****         returnValue = JCU_ERROR_PARAM_1A;  /* Error: <Parameter/> */
 148:../generate/sc_drivers/r_jcu/src/jcu_para.c ****         goto fin;
 149:../generate/sc_drivers/r_jcu/src/jcu_para.c ****     }  /* end if */
 150:../generate/sc_drivers/r_jcu/src/jcu_para.c **** 
 151:../generate/sc_drivers/r_jcu/src/jcu_para.c ****     /* Check for the address alignment */
 152:../generate/sc_drivers/r_jcu/src/jcu_para.c ****     /* ->MISRA 11.3 */ /* ->SEC R2.7.1 */
 153:../generate/sc_drivers/r_jcu/src/jcu_para.c ****     if ( ((uint32_t) buffer->source.address % MOD_8) != 0u )
 154:../generate/sc_drivers/r_jcu/src/jcu_para.c ****     /* <-MISRA 11.3 */ /* <-SEC R2.7.1 */
 155:../generate/sc_drivers/r_jcu/src/jcu_para.c ****     {
 156:../generate/sc_drivers/r_jcu/src/jcu_para.c ****         returnValue = JCU_ERROR_PARAM_35;  /* Error: The source address is not multiple of 8. */
 157:../generate/sc_drivers/r_jcu/src/jcu_para.c ****         goto fin;
 158:../generate/sc_drivers/r_jcu/src/jcu_para.c ****     }  /* end if */
 159:../generate/sc_drivers/r_jcu/src/jcu_para.c **** 
 160:../generate/sc_drivers/r_jcu/src/jcu_para.c ****     /* Check for the address alignment */
 161:../generate/sc_drivers/r_jcu/src/jcu_para.c ****     /* ->MISRA 11.3 */ /* ->SEC R2.7.1 */
 162:../generate/sc_drivers/r_jcu/src/jcu_para.c ****     if ( ((uint32_t) buffer->destination.address % MOD_8) != 0u )
 163:../generate/sc_drivers/r_jcu/src/jcu_para.c ****     /* <-MISRA 11.3 */ /* <-SEC R2.7.1 */
 164:../generate/sc_drivers/r_jcu/src/jcu_para.c ****     {
 165:../generate/sc_drivers/r_jcu/src/jcu_para.c ****         returnValue = JCU_ERROR_PARAM_1B;  /* Error: The destination address is not multiple of 8. 
 166:../generate/sc_drivers/r_jcu/src/jcu_para.c ****         goto fin;
 167:../generate/sc_drivers/r_jcu/src/jcu_para.c ****     }  /* end if */
 168:../generate/sc_drivers/r_jcu/src/jcu_para.c **** 
 169:../generate/sc_drivers/r_jcu/src/jcu_para.c ****     /*Check for Cb/Cr offset */
 170:../generate/sc_drivers/r_jcu/src/jcu_para.c ****     if(decode->decodeFormat == JCU_OUTPUT_YCbCr422)
 171:../generate/sc_drivers/r_jcu/src/jcu_para.c ****     {
 172:../generate/sc_drivers/r_jcu/src/jcu_para.c ****         if (((decode->outputCbCrOffset) != JCU_CBCR_OFFSET_0) && ((decode->outputCbCrOffset) != JCU
 173:../generate/sc_drivers/r_jcu/src/jcu_para.c ****         {
 174:../generate/sc_drivers/r_jcu/src/jcu_para.c ****             returnValue = JCU_ERROR_PARAM_1C;  /* Error: Bad value in "outputCbCrOffset" */
 175:../generate/sc_drivers/r_jcu/src/jcu_para.c ****         }  /* end if */
 176:../generate/sc_drivers/r_jcu/src/jcu_para.c ****     }
 177:../generate/sc_drivers/r_jcu/src/jcu_para.c ****     else
 178:../generate/sc_drivers/r_jcu/src/jcu_para.c ****     {
 179:../generate/sc_drivers/r_jcu/src/jcu_para.c ****         if ((decode->outputCbCrOffset) != JCU_CBCR_OFFSET_0) 
 180:../generate/sc_drivers/r_jcu/src/jcu_para.c ****         {
 181:../generate/sc_drivers/r_jcu/src/jcu_para.c ****             returnValue = JCU_ERROR_PARAM_34;  /* Error: Bad value in "outputCbCrOffset" */
 182:../generate/sc_drivers/r_jcu/src/jcu_para.c ****         }  /* end if */
 183:../generate/sc_drivers/r_jcu/src/jcu_para.c ****     } /* end if */
 184:../generate/sc_drivers/r_jcu/src/jcu_para.c **** fin:
 185:../generate/sc_drivers/r_jcu/src/jcu_para.c ****     {
 186:../generate/sc_drivers/r_jcu/src/jcu_para.c ****         R_ERROR_Set(returnValue);
 133              		.loc 1 186 0
 134 0018 0400A0E1 		mov	r0, r4
 135              	.LVL12:
 136 001c FEFFFFEB 		bl	R_ERROR_Set
 137              	.LVL13:
 187:../generate/sc_drivers/r_jcu/src/jcu_para.c ****     }
 188:../generate/sc_drivers/r_jcu/src/jcu_para.c ****     return (returnValue);
 189:../generate/sc_drivers/r_jcu/src/jcu_para.c **** } /* End of function JCU_ParaCheckSetDecodeParam */
 138              		.loc 1 189 0
 139 0020 0400A0E1 		mov	r0, r4
 140 0024 1080BDE8 		pop	{r4, pc}
 141              	.LVL14:
 142              	.L21:
 143 0028 0130A0E1 		mov	r3, r1
 145:../generate/sc_drivers/r_jcu/src/jcu_para.c ****     {
 144              		.loc 1 145 0
 145 002c 041091E5 		ldr	r1, [r1, #4]
 146              	.LVL15:
 147 0030 000051E3 		cmp	r1, #0
 148 0034 1B00000A 		beq	.L14
 145:../generate/sc_drivers/r_jcu/src/jcu_para.c ****     {
 149              		.loc 1 145 0 is_stmt 0 discriminator 1
 150 0038 0C3093E5 		ldr	r3, [r3, #12]
 151              	.LVL16:
 152 003c 000053E3 		cmp	r3, #0
 153 0040 1B00000A 		beq	.L15
 153:../generate/sc_drivers/r_jcu/src/jcu_para.c ****     /* <-MISRA 11.3 */ /* <-SEC R2.7.1 */
 154              		.loc 1 153 0 is_stmt 1
 155 0044 070011E3 		tst	r1, #7
 156:../generate/sc_drivers/r_jcu/src/jcu_para.c ****         goto fin;
 156              		.loc 1 156 0
 157 0048 35410013 		movwne	r4, #309
 158 004c 45414013 		movtne	r4, 325
 159 0050 F0FFFF1A 		bne	.L11
 160              	.L22:
 162:../generate/sc_drivers/r_jcu/src/jcu_para.c ****     /* <-MISRA 11.3 */ /* <-SEC R2.7.1 */
 161              		.loc 1 162 0
 162 0054 070013E3 		tst	r3, #7
 165:../generate/sc_drivers/r_jcu/src/jcu_para.c ****         goto fin;
 163              		.loc 1 165 0
 164 0058 1B410013 		movwne	r4, #283
 165 005c 45414013 		movtne	r4, 325
 166 0060 ECFFFF1A 		bne	.L11
 167              	.L23:
 170:../generate/sc_drivers/r_jcu/src/jcu_para.c ****     {
 168              		.loc 1 170 0
 169 0064 0230D0E5 		ldrb	r3, [r0, #2]	@ zero_extendqisi2
 170 0068 000053E3 		cmp	r3, #0
 171 006c 0600001A 		bne	.L12
 172:../generate/sc_drivers/r_jcu/src/jcu_para.c ****         {
 172              		.loc 1 172 0
 173 0070 0330D0E5 		ldrb	r3, [r0, #3]	@ zero_extendqisi2
 174 0074 010053E3 		cmp	r3, #1
 174:../generate/sc_drivers/r_jcu/src/jcu_para.c ****         }  /* end if */
 175              		.loc 1 174 0
 176 0078 474FA083 		movhi	r4, #284
 177 007c 45414083 		movthi	r4, 325
 178 0080 E4FFFF8A 		bhi	.L11
 179              	.L24:
 135:../generate/sc_drivers/r_jcu/src/jcu_para.c **** 
 180              		.loc 1 135 0
 181 0084 0040A0E3 		mov	r4, #0
 182 0088 E2FFFFEA 		b	.L11
 183              	.L12:
 179:../generate/sc_drivers/r_jcu/src/jcu_para.c ****         {
 184              		.loc 1 179 0
 185 008c 0330D0E5 		ldrb	r3, [r0, #3]	@ zero_extendqisi2
 186 0090 000053E3 		cmp	r3, #0
 181:../generate/sc_drivers/r_jcu/src/jcu_para.c ****         }  /* end if */
 187              		.loc 1 181 0
 188 0094 4D4FA013 		movne	r4, #308
 189 0098 45414013 		movtne	r4, 325
 190 009c DDFFFF1A 		bne	.L11
 191              	.L25:
 135:../generate/sc_drivers/r_jcu/src/jcu_para.c **** 
 192              		.loc 1 135 0
 193 00a0 0040A0E3 		mov	r4, #0
 194 00a4 DBFFFFEA 		b	.L11
 195              	.LVL17:
 196              	.L14:
 147:../generate/sc_drivers/r_jcu/src/jcu_para.c ****         goto fin;
 197              		.loc 1 147 0
 198 00a8 1A4100E3 		movw	r4, #282
 199 00ac 454140E3 		movt	r4, 325
 200 00b0 D8FFFFEA 		b	.L11
 201              	.LVL18:
 202              	.L15:
 203 00b4 1A4100E3 		movw	r4, #282
 204 00b8 454140E3 		movt	r4, 325
 205 00bc D5FFFFEA 		b	.L11
 206              		.cfi_endproc
 207              	.LFE5:
 209              		.section	.text.JCU_ParaCheckGetImageInfo,"ax",%progbits
 210              		.align	2
 211              		.global	JCU_ParaCheckGetImageInfo
 212              		.syntax unified
 213              		.arm
 214              		.fpu neon
 216              	JCU_ParaCheckGetImageInfo:
 217              	.LFB6:
 190:../generate/sc_drivers/r_jcu/src/jcu_para.c **** 
 191:../generate/sc_drivers/r_jcu/src/jcu_para.c **** /***********************************************************************
 192:../generate/sc_drivers/r_jcu/src/jcu_para.c **** * Function Name: JCU_ParaCheckGetImageInfo
 193:../generate/sc_drivers/r_jcu/src/jcu_para.c **** *    GetImageInfo api's parameter checking
 194:../generate/sc_drivers/r_jcu/src/jcu_para.c **** *
 195:../generate/sc_drivers/r_jcu/src/jcu_para.c **** * Arguments:
 196:../generate/sc_drivers/r_jcu/src/jcu_para.c **** *    [in] buffer         buffer address that set the image information
 197:../generate/sc_drivers/r_jcu/src/jcu_para.c **** *
 198:../generate/sc_drivers/r_jcu/src/jcu_para.c **** * Return Value:
 199:../generate/sc_drivers/r_jcu/src/jcu_para.c **** *    jcu_errorcode_t
 200:../generate/sc_drivers/r_jcu/src/jcu_para.c **** ************************************************************************/
 201:../generate/sc_drivers/r_jcu/src/jcu_para.c **** jcu_errorcode_t JCU_ParaCheckGetImageInfo( 
 202:../generate/sc_drivers/r_jcu/src/jcu_para.c ****     const jcu_image_info_t   *const buffer)
 203:../generate/sc_drivers/r_jcu/src/jcu_para.c **** {
 218              		.loc 1 203 0
 219              		.cfi_startproc
 220              		@ args = 0, pretend = 0, frame = 0
 221              		@ frame_needed = 0, uses_anonymous_args = 0
 222              	.LVL19:
 223 0000 10402DE9 		push	{r4, lr}
 224              		.cfi_def_cfa_offset 8
 225              		.cfi_offset 4, -8
 226              		.cfi_offset 14, -4
 227              	.LVL20:
 204:../generate/sc_drivers/r_jcu/src/jcu_para.c ****     jcu_errorcode_t  returnValue = JCU_ERROR_OK; 
 205:../generate/sc_drivers/r_jcu/src/jcu_para.c **** 
 206:../generate/sc_drivers/r_jcu/src/jcu_para.c ****     /* Cast to an appropriate type */
 207:../generate/sc_drivers/r_jcu/src/jcu_para.c ****     if (buffer == NULL)
 228              		.loc 1 207 0
 229 0004 000050E3 		cmp	r0, #0
 230 0008 0400000A 		beq	.L28
 204:../generate/sc_drivers/r_jcu/src/jcu_para.c ****     jcu_errorcode_t  returnValue = JCU_ERROR_OK; 
 231              		.loc 1 204 0
 232 000c 0040A0E3 		mov	r4, #0
 233              	.L27:
 234              	.LVL21:
 208:../generate/sc_drivers/r_jcu/src/jcu_para.c ****     {
 209:../generate/sc_drivers/r_jcu/src/jcu_para.c ****         returnValue = JCU_ERROR_PARAM_1D;  /* Error: <Parameter/> */
 210:../generate/sc_drivers/r_jcu/src/jcu_para.c ****     } /* end if */
 211:../generate/sc_drivers/r_jcu/src/jcu_para.c **** 
 212:../generate/sc_drivers/r_jcu/src/jcu_para.c ****     R_ERROR_Set( returnValue );
 235              		.loc 1 212 0
 236 0010 0400A0E1 		mov	r0, r4
 237              	.LVL22:
 238 0014 FEFFFFEB 		bl	R_ERROR_Set
 239              	.LVL23:
 213:../generate/sc_drivers/r_jcu/src/jcu_para.c ****     return (returnValue);
 214:../generate/sc_drivers/r_jcu/src/jcu_para.c **** } /* End of function JCU_ParaCheckGetImageInfo */
 240              		.loc 1 214 0
 241 0018 0400A0E1 		mov	r0, r4
 242 001c 1080BDE8 		pop	{r4, pc}
 243              	.LVL24:
 244              	.L28:
 209:../generate/sc_drivers/r_jcu/src/jcu_para.c ****     } /* end if */
 245              		.loc 1 209 0
 246 0020 1D4100E3 		movw	r4, #285
 247 0024 454140E3 		movt	r4, 325
 248 0028 F8FFFFEA 		b	.L27
 249              		.cfi_endproc
 250              	.LFE6:
 252              		.section	.text.JCU_ParaCheckSetQuantizationTbl,"ax",%progbits
 253              		.align	2
 254              		.global	JCU_ParaCheckSetQuantizationTbl
 255              		.syntax unified
 256              		.arm
 257              		.fpu neon
 259              	JCU_ParaCheckSetQuantizationTbl:
 260              	.LFB7:
 215:../generate/sc_drivers/r_jcu/src/jcu_para.c **** 
 216:../generate/sc_drivers/r_jcu/src/jcu_para.c **** /***********************************************************************
 217:../generate/sc_drivers/r_jcu/src/jcu_para.c **** * Function Name: JCU_ParaCheckSetQuantizationTbl
 218:../generate/sc_drivers/r_jcu/src/jcu_para.c **** *    SetQuantizationTable api's parameter checking
 219:../generate/sc_drivers/r_jcu/src/jcu_para.c **** *
 220:../generate/sc_drivers/r_jcu/src/jcu_para.c **** * Arguments:
 221:../generate/sc_drivers/r_jcu/src/jcu_para.c **** *    [in] tableNo        the table number that set the parameter
 222:../generate/sc_drivers/r_jcu/src/jcu_para.c **** *
 223:../generate/sc_drivers/r_jcu/src/jcu_para.c **** * Return Value:
 224:../generate/sc_drivers/r_jcu/src/jcu_para.c **** *    jcu_errorcode_t
 225:../generate/sc_drivers/r_jcu/src/jcu_para.c **** ************************************************************************/
 226:../generate/sc_drivers/r_jcu/src/jcu_para.c **** jcu_errorcode_t JCU_ParaCheckSetQuantizationTbl( 
 227:../generate/sc_drivers/r_jcu/src/jcu_para.c ****     const jcu_table_no_t   tableNo)
 228:../generate/sc_drivers/r_jcu/src/jcu_para.c **** {
 261              		.loc 1 228 0
 262              		.cfi_startproc
 263              		@ args = 0, pretend = 0, frame = 0
 264              		@ frame_needed = 0, uses_anonymous_args = 0
 265              	.LVL25:
 266 0000 10402DE9 		push	{r4, lr}
 267              		.cfi_def_cfa_offset 8
 268              		.cfi_offset 4, -8
 269              		.cfi_offset 14, -4
 270              	.LVL26:
 229:../generate/sc_drivers/r_jcu/src/jcu_para.c ****     jcu_errorcode_t  returnValue = JCU_ERROR_OK; 
 230:../generate/sc_drivers/r_jcu/src/jcu_para.c **** 
 231:../generate/sc_drivers/r_jcu/src/jcu_para.c ****     /* ->MISRA 13.7 : For fail safe. */
 232:../generate/sc_drivers/r_jcu/src/jcu_para.c ****     if (tableNo > JCU_TABLE_NO_3)
 271              		.loc 1 232 0
 272 0004 030050E3 		cmp	r0, #3
 273 0008 0500009A 		bls	.L34
 233:../generate/sc_drivers/r_jcu/src/jcu_para.c ****     /* <-MISRA 13.7 */
 234:../generate/sc_drivers/r_jcu/src/jcu_para.c ****     /* ->MISRA 14.1 ->QAC 3201 : For fail safe. */
 235:../generate/sc_drivers/r_jcu/src/jcu_para.c ****     {
 236:../generate/sc_drivers/r_jcu/src/jcu_para.c ****         returnValue = JCU_ERROR_PARAM_1E;  /* Error: <Parameter/> */
 274              		.loc 1 236 0
 275 000c 1E4100E3 		movw	r4, #286
 276 0010 454140E3 		movt	r4, 325
 277              	.L31:
 278              	.LVL27:
 237:../generate/sc_drivers/r_jcu/src/jcu_para.c ****     } /* end if */
 238:../generate/sc_drivers/r_jcu/src/jcu_para.c ****     /* <-MISRA 14.1 <-QAC 3201 */
 239:../generate/sc_drivers/r_jcu/src/jcu_para.c **** 
 240:../generate/sc_drivers/r_jcu/src/jcu_para.c ****     R_ERROR_Set( returnValue );
 279              		.loc 1 240 0
 280 0014 0400A0E1 		mov	r0, r4
 281              	.LVL28:
 282 0018 FEFFFFEB 		bl	R_ERROR_Set
 283              	.LVL29:
 241:../generate/sc_drivers/r_jcu/src/jcu_para.c ****     return (returnValue);
 242:../generate/sc_drivers/r_jcu/src/jcu_para.c **** } /* End of function JCU_ParaCheckSetQuantizationTbl */
 284              		.loc 1 242 0
 285 001c 0400A0E1 		mov	r0, r4
 286 0020 1080BDE8 		pop	{r4, pc}
 287              	.LVL30:
 288              	.L34:
 229:../generate/sc_drivers/r_jcu/src/jcu_para.c **** 
 289              		.loc 1 229 0
 290 0024 0040A0E3 		mov	r4, #0
 291 0028 F9FFFFEA 		b	.L31
 292              		.cfi_endproc
 293              	.LFE7:
 295              		.section	.text.JCU_ParaCheckSetHuffmanTable,"ax",%progbits
 296              		.align	2
 297              		.global	JCU_ParaCheckSetHuffmanTable
 298              		.syntax unified
 299              		.arm
 300              		.fpu neon
 302              	JCU_ParaCheckSetHuffmanTable:
 303              	.LFB8:
 243:../generate/sc_drivers/r_jcu/src/jcu_para.c **** 
 244:../generate/sc_drivers/r_jcu/src/jcu_para.c **** /***********************************************************************
 245:../generate/sc_drivers/r_jcu/src/jcu_para.c **** * Function Name: JCU_ParaCheckSetHuffmanTable
 246:../generate/sc_drivers/r_jcu/src/jcu_para.c **** *    SetHuffmanTable api's parameter checking
 247:../generate/sc_drivers/r_jcu/src/jcu_para.c **** *
 248:../generate/sc_drivers/r_jcu/src/jcu_para.c **** * Arguments:
 249:../generate/sc_drivers/r_jcu/src/jcu_para.c **** *    [in] tableNo   - the table number that set the parameter
 250:../generate/sc_drivers/r_jcu/src/jcu_para.c **** *    [in] type      - the type which table is set(AC or DC)
 251:../generate/sc_drivers/r_jcu/src/jcu_para.c **** *
 252:../generate/sc_drivers/r_jcu/src/jcu_para.c **** * Return Value:
 253:../generate/sc_drivers/r_jcu/src/jcu_para.c **** *    jcu_errorcode_t
 254:../generate/sc_drivers/r_jcu/src/jcu_para.c **** ************************************************************************/
 255:../generate/sc_drivers/r_jcu/src/jcu_para.c **** jcu_errorcode_t JCU_ParaCheckSetHuffmanTable( 
 256:../generate/sc_drivers/r_jcu/src/jcu_para.c ****     const jcu_table_no_t   tableNo,
 257:../generate/sc_drivers/r_jcu/src/jcu_para.c ****     const jcu_huff_t       type)
 258:../generate/sc_drivers/r_jcu/src/jcu_para.c **** {
 304              		.loc 1 258 0
 305              		.cfi_startproc
 306              		@ args = 0, pretend = 0, frame = 0
 307              		@ frame_needed = 0, uses_anonymous_args = 0
 308              	.LVL31:
 309 0000 10402DE9 		push	{r4, lr}
 310              		.cfi_def_cfa_offset 8
 311              		.cfi_offset 4, -8
 312              		.cfi_offset 14, -4
 313              	.LVL32:
 259:../generate/sc_drivers/r_jcu/src/jcu_para.c ****     jcu_errorcode_t  returnValue = JCU_ERROR_OK; 
 260:../generate/sc_drivers/r_jcu/src/jcu_para.c **** 
 261:../generate/sc_drivers/r_jcu/src/jcu_para.c ****     /* ->MISRA 13.7 : For fail safe. */
 262:../generate/sc_drivers/r_jcu/src/jcu_para.c ****     if (tableNo > JCU_TABLE_NO_1)
 314              		.loc 1 262 0
 315 0004 010050E3 		cmp	r0, #1
 316 0008 0500009A 		bls	.L40
 263:../generate/sc_drivers/r_jcu/src/jcu_para.c **** 
 264:../generate/sc_drivers/r_jcu/src/jcu_para.c ****     /* <-MISRA 13.7 */
 265:../generate/sc_drivers/r_jcu/src/jcu_para.c ****     {
 266:../generate/sc_drivers/r_jcu/src/jcu_para.c ****         returnValue = JCU_ERROR_PARAM_1F;  /* Error: <Parameter/> */
 317              		.loc 1 266 0
 318 000c 1F4100E3 		movw	r4, #287
 319 0010 454140E3 		movt	r4, 325
 320              	.L36:
 321              	.LVL33:
 267:../generate/sc_drivers/r_jcu/src/jcu_para.c ****         goto fin;
 268:../generate/sc_drivers/r_jcu/src/jcu_para.c ****     } /* end if */
 269:../generate/sc_drivers/r_jcu/src/jcu_para.c **** 
 270:../generate/sc_drivers/r_jcu/src/jcu_para.c ****     /* ->MISRA 13.7 : For fail safe. */
 271:../generate/sc_drivers/r_jcu/src/jcu_para.c ****     if ((type != JCU_HUFFMAN_AC)
 272:../generate/sc_drivers/r_jcu/src/jcu_para.c ****         && (type != JCU_HUFFMAN_DC))
 273:../generate/sc_drivers/r_jcu/src/jcu_para.c **** 
 274:../generate/sc_drivers/r_jcu/src/jcu_para.c ****     /* <-MISRA 13.7 */
 275:../generate/sc_drivers/r_jcu/src/jcu_para.c ****     /* ->MISRA 14.1 ->QAC 3201 : For fail safe. */
 276:../generate/sc_drivers/r_jcu/src/jcu_para.c ****     {
 277:../generate/sc_drivers/r_jcu/src/jcu_para.c ****         returnValue = JCU_ERROR_PARAM_20;  /* Error: <Parameter/> */
 278:../generate/sc_drivers/r_jcu/src/jcu_para.c ****     } /* end if */
 279:../generate/sc_drivers/r_jcu/src/jcu_para.c **** 
 280:../generate/sc_drivers/r_jcu/src/jcu_para.c ****     /* <-MISRA 14.1 <-QAC 3201 */
 281:../generate/sc_drivers/r_jcu/src/jcu_para.c **** fin:
 282:../generate/sc_drivers/r_jcu/src/jcu_para.c ****     {
 283:../generate/sc_drivers/r_jcu/src/jcu_para.c ****         R_ERROR_Set(returnValue);
 322              		.loc 1 283 0
 323 0014 0400A0E1 		mov	r0, r4
 324              	.LVL34:
 325 0018 FEFFFFEB 		bl	R_ERROR_Set
 326              	.LVL35:
 284:../generate/sc_drivers/r_jcu/src/jcu_para.c ****     }
 285:../generate/sc_drivers/r_jcu/src/jcu_para.c ****     return (returnValue);
 286:../generate/sc_drivers/r_jcu/src/jcu_para.c **** } /* End of function JCU_ParaCheckSetHuffmanTable */
 327              		.loc 1 286 0
 328 001c 0400A0E1 		mov	r0, r4
 329 0020 1080BDE8 		pop	{r4, pc}
 330              	.LVL36:
 331              	.L40:
 271:../generate/sc_drivers/r_jcu/src/jcu_para.c ****         && (type != JCU_HUFFMAN_DC))
 332              		.loc 1 271 0
 333 0024 010051E3 		cmp	r1, #1
 277:../generate/sc_drivers/r_jcu/src/jcu_para.c ****     } /* end if */
 334              		.loc 1 277 0
 335 0028 124EA083 		movhi	r4, #288
 336 002c 45414083 		movthi	r4, 325
 337 0030 F7FFFF8A 		bhi	.L36
 338              	.L41:
 259:../generate/sc_drivers/r_jcu/src/jcu_para.c **** 
 339              		.loc 1 259 0
 340 0034 0040A0E3 		mov	r4, #0
 341 0038 F5FFFFEA 		b	.L36
 342              		.cfi_endproc
 343              	.LFE8:
 345              		.section	.text.JCU_ParaCheckEncodeParam,"ax",%progbits
 346              		.align	2
 347              		.global	JCU_ParaCheckEncodeParam
 348              		.syntax unified
 349              		.arm
 350              		.fpu neon
 352              	JCU_ParaCheckEncodeParam:
 353              	.LFB9:
 287:../generate/sc_drivers/r_jcu/src/jcu_para.c **** 
 288:../generate/sc_drivers/r_jcu/src/jcu_para.c **** /***********************************************************************
 289:../generate/sc_drivers/r_jcu/src/jcu_para.c **** * Function Name: JCU_ParaCheckEncodeParam
 290:../generate/sc_drivers/r_jcu/src/jcu_para.c **** *     api's parameter checking
 291:../generate/sc_drivers/r_jcu/src/jcu_para.c **** *
 292:../generate/sc_drivers/r_jcu/src/jcu_para.c **** * Arguments:
 293:../generate/sc_drivers/r_jcu/src/jcu_para.c **** *     encode - [in] <jcu_encode_param_t>.
 294:../generate/sc_drivers/r_jcu/src/jcu_para.c **** *     buffer - [in] <jcu_buffer_param_t>.
 295:../generate/sc_drivers/r_jcu/src/jcu_para.c **** *
 296:../generate/sc_drivers/r_jcu/src/jcu_para.c **** * Return Value:
 297:../generate/sc_drivers/r_jcu/src/jcu_para.c **** *    jcu_errorcode_t
 298:../generate/sc_drivers/r_jcu/src/jcu_para.c **** ************************************************************************/
 299:../generate/sc_drivers/r_jcu/src/jcu_para.c **** jcu_errorcode_t JCU_ParaCheckEncodeParam( 
 300:../generate/sc_drivers/r_jcu/src/jcu_para.c ****     const jcu_encode_param_t   *const encode, 
 301:../generate/sc_drivers/r_jcu/src/jcu_para.c ****     const jcu_buffer_param_t   *const buffer)
 302:../generate/sc_drivers/r_jcu/src/jcu_para.c **** {
 354              		.loc 1 302 0
 355              		.cfi_startproc
 356              		@ args = 0, pretend = 0, frame = 0
 357              		@ frame_needed = 0, uses_anonymous_args = 0
 358              	.LVL37:
 359 0000 10402DE9 		push	{r4, lr}
 360              		.cfi_def_cfa_offset 8
 361              		.cfi_offset 4, -8
 362              		.cfi_offset 14, -4
 363              	.LVL38:
 303:../generate/sc_drivers/r_jcu/src/jcu_para.c ****     jcu_errorcode_t  returnValue = JCU_ERROR_OK; 
 304:../generate/sc_drivers/r_jcu/src/jcu_para.c **** 
 305:../generate/sc_drivers/r_jcu/src/jcu_para.c ****     /* Cast to an appropriate type */
 306:../generate/sc_drivers/r_jcu/src/jcu_para.c ****     if ((encode == NULL) || (buffer == NULL))
 364              		.loc 1 306 0
 365 0004 000051E3 		cmp	r1, #0
 366 0008 00005013 		cmpne	r0, #0
 367 000c 0500001A 		bne	.L52
 307:../generate/sc_drivers/r_jcu/src/jcu_para.c ****     {
 308:../generate/sc_drivers/r_jcu/src/jcu_para.c ****         returnValue = JCU_ERROR_PARAM_21;  /* Error: <Parameter/> */
 368              		.loc 1 308 0
 369 0010 214100E3 		movw	r4, #289
 370 0014 454140E3 		movt	r4, 325
 371              	.LVL39:
 372              	.L43:
 309:../generate/sc_drivers/r_jcu/src/jcu_para.c ****         goto fin;
 310:../generate/sc_drivers/r_jcu/src/jcu_para.c ****     } /* end if */
 311:../generate/sc_drivers/r_jcu/src/jcu_para.c **** 
 312:../generate/sc_drivers/r_jcu/src/jcu_para.c ****     /* NULL check for the address data */
 313:../generate/sc_drivers/r_jcu/src/jcu_para.c ****     if ((buffer->source.address == NULL) || (buffer->destination.address == NULL))
 314:../generate/sc_drivers/r_jcu/src/jcu_para.c ****     {
 315:../generate/sc_drivers/r_jcu/src/jcu_para.c ****         returnValue = JCU_ERROR_PARAM_22;  /* Error: <Parameter/> */
 316:../generate/sc_drivers/r_jcu/src/jcu_para.c ****         goto fin;
 317:../generate/sc_drivers/r_jcu/src/jcu_para.c ****     }  /* end if */
 318:../generate/sc_drivers/r_jcu/src/jcu_para.c **** 
 319:../generate/sc_drivers/r_jcu/src/jcu_para.c **** 
 320:../generate/sc_drivers/r_jcu/src/jcu_para.c ****     if (encode->encodeFormat == JCU_JPEG_YCbCr422)
 321:../generate/sc_drivers/r_jcu/src/jcu_para.c ****     {
 322:../generate/sc_drivers/r_jcu/src/jcu_para.c ****         /* Check the width of the image data */
 323:../generate/sc_drivers/r_jcu/src/jcu_para.c ****         if ((encode->width % MOD_16) != 0u)
 324:../generate/sc_drivers/r_jcu/src/jcu_para.c ****         {
 325:../generate/sc_drivers/r_jcu/src/jcu_para.c ****             returnValue = JCU_ERROR_PARAM_23;  /* Error: <Parameter/> */
 326:../generate/sc_drivers/r_jcu/src/jcu_para.c ****             goto fin;
 327:../generate/sc_drivers/r_jcu/src/jcu_para.c ****         } /* end if */
 328:../generate/sc_drivers/r_jcu/src/jcu_para.c **** 
 329:../generate/sc_drivers/r_jcu/src/jcu_para.c ****         /* Check the height of the image data */
 330:../generate/sc_drivers/r_jcu/src/jcu_para.c ****         if ((encode->height % MOD_8) != 0u)
 331:../generate/sc_drivers/r_jcu/src/jcu_para.c ****         {
 332:../generate/sc_drivers/r_jcu/src/jcu_para.c ****             returnValue = JCU_ERROR_PARAM_24;  /* Error: <Parameter/> */
 333:../generate/sc_drivers/r_jcu/src/jcu_para.c ****             goto fin;
 334:../generate/sc_drivers/r_jcu/src/jcu_para.c ****         } /* end if */
 335:../generate/sc_drivers/r_jcu/src/jcu_para.c ****     }
 336:../generate/sc_drivers/r_jcu/src/jcu_para.c ****     else
 337:../generate/sc_drivers/r_jcu/src/jcu_para.c ****     {
 338:../generate/sc_drivers/r_jcu/src/jcu_para.c ****         returnValue = JCU_ERROR_PARAM;
 339:../generate/sc_drivers/r_jcu/src/jcu_para.c ****         goto fin;
 340:../generate/sc_drivers/r_jcu/src/jcu_para.c ****     } /* end if */
 341:../generate/sc_drivers/r_jcu/src/jcu_para.c **** 
 342:../generate/sc_drivers/r_jcu/src/jcu_para.c ****     /*Check for Cb/Cr offset */
 343:../generate/sc_drivers/r_jcu/src/jcu_para.c ****     if (((encode->inputCbCrOffset) != JCU_CBCR_OFFSET_0) && ((encode->inputCbCrOffset) != JCU_CBCR_
 344:../generate/sc_drivers/r_jcu/src/jcu_para.c ****     {
 345:../generate/sc_drivers/r_jcu/src/jcu_para.c ****         returnValue = JCU_ERROR_PARAM_25;  /* Error: <Parameter/> */
 346:../generate/sc_drivers/r_jcu/src/jcu_para.c ****     }  /* end if */
 347:../generate/sc_drivers/r_jcu/src/jcu_para.c **** 
 348:../generate/sc_drivers/r_jcu/src/jcu_para.c **** fin:
 349:../generate/sc_drivers/r_jcu/src/jcu_para.c ****     {
 350:../generate/sc_drivers/r_jcu/src/jcu_para.c ****         R_ERROR_Set(returnValue);
 373              		.loc 1 350 0
 374 0018 0400A0E1 		mov	r0, r4
 375              	.LVL40:
 376 001c FEFFFFEB 		bl	R_ERROR_Set
 377              	.LVL41:
 351:../generate/sc_drivers/r_jcu/src/jcu_para.c ****     }
 352:../generate/sc_drivers/r_jcu/src/jcu_para.c ****     return (returnValue);
 353:../generate/sc_drivers/r_jcu/src/jcu_para.c **** } /* End of function JCU_ParaCheckEncodeParam */
 378              		.loc 1 353 0
 379 0020 0400A0E1 		mov	r0, r4
 380 0024 1080BDE8 		pop	{r4, pc}
 381              	.LVL42:
 382              	.L52:
 383 0028 0130A0E1 		mov	r3, r1
 313:../generate/sc_drivers/r_jcu/src/jcu_para.c ****     {
 384              		.loc 1 313 0
 385 002c 041091E5 		ldr	r1, [r1, #4]
 386              	.LVL43:
 387 0030 000051E3 		cmp	r1, #0
 388 0034 1800000A 		beq	.L45
 313:../generate/sc_drivers/r_jcu/src/jcu_para.c ****     {
 389              		.loc 1 313 0 is_stmt 0 discriminator 1
 390 0038 0C3093E5 		ldr	r3, [r3, #12]
 391              	.LVL44:
 392 003c 000053E3 		cmp	r3, #0
 393 0040 1800000A 		beq	.L46
 320:../generate/sc_drivers/r_jcu/src/jcu_para.c ****     {
 394              		.loc 1 320 0 is_stmt 1
 395 0044 0030D0E5 		ldrb	r3, [r0]	@ zero_extendqisi2
 396 0048 010053E3 		cmp	r3, #1
 338:../generate/sc_drivers/r_jcu/src/jcu_para.c ****         goto fin;
 397              		.loc 1 338 0
 398 004c 014CA013 		movne	r4, #256
 399 0050 45414013 		movtne	r4, 325
 400 0054 EFFFFF1A 		bne	.L43
 401              	.L53:
 323:../generate/sc_drivers/r_jcu/src/jcu_para.c ****         {
 402              		.loc 1 323 0
 403 0058 0C3090E5 		ldr	r3, [r0, #12]
 404 005c 0F0013E3 		tst	r3, #15
 325:../generate/sc_drivers/r_jcu/src/jcu_para.c ****             goto fin;
 405              		.loc 1 325 0
 406 0060 23410013 		movwne	r4, #291
 407 0064 45414013 		movtne	r4, 325
 408 0068 EAFFFF1A 		bne	.L43
 409              	.L54:
 330:../generate/sc_drivers/r_jcu/src/jcu_para.c ****         {
 410              		.loc 1 330 0
 411 006c 103090E5 		ldr	r3, [r0, #16]
 412 0070 070013E3 		tst	r3, #7
 332:../generate/sc_drivers/r_jcu/src/jcu_para.c ****             goto fin;
 413              		.loc 1 332 0
 414 0074 494FA013 		movne	r4, #292
 415 0078 45414013 		movtne	r4, 325
 416 007c E5FFFF1A 		bne	.L43
 417              	.L55:
 343:../generate/sc_drivers/r_jcu/src/jcu_para.c ****     {
 418              		.loc 1 343 0
 419 0080 1430D0E5 		ldrb	r3, [r0, #20]	@ zero_extendqisi2
 420 0084 010053E3 		cmp	r3, #1
 345:../generate/sc_drivers/r_jcu/src/jcu_para.c ****     }  /* end if */
 421              		.loc 1 345 0
 422 0088 25410083 		movwhi	r4, #293
 423 008c 45414083 		movthi	r4, 325
 424 0090 E0FFFF8A 		bhi	.L43
 425              	.L56:
 303:../generate/sc_drivers/r_jcu/src/jcu_para.c **** 
 426              		.loc 1 303 0
 427 0094 0040A0E3 		mov	r4, #0
 428 0098 DEFFFFEA 		b	.L43
 429              	.LVL45:
 430              	.L45:
 315:../generate/sc_drivers/r_jcu/src/jcu_para.c ****         goto fin;
 431              		.loc 1 315 0
 432 009c 224100E3 		movw	r4, #290
 433 00a0 454140E3 		movt	r4, 325
 434 00a4 DBFFFFEA 		b	.L43
 435              	.LVL46:
 436              	.L46:
 437 00a8 224100E3 		movw	r4, #290
 438 00ac 454140E3 		movt	r4, 325
 439 00b0 D8FFFFEA 		b	.L43
 440              		.cfi_endproc
 441              	.LFE9:
 443              		.text
 444              	.Letext0:
 445              		.file 2 "c:\\program files (x86)\\gnu tools arm embedded\\6 2017-q2-update\\arm-none-eabi\\include
 446              		.file 3 "c:\\program files (x86)\\gnu tools arm embedded\\6 2017-q2-update\\arm-none-eabi\\include
 447              		.file 4 "c:\\program files (x86)\\gnu tools arm embedded\\6 2017-q2-update\\arm-none-eabi\\include
 448              		.file 5 "c:\\program files (x86)\\gnu tools arm embedded\\6 2017-q2-update\\lib\\gcc\\arm-none-eab
 449              		.file 6 "c:\\program files (x86)\\gnu tools arm embedded\\6 2017-q2-update\\arm-none-eabi\\include
 450              		.file 7 "c:\\program files (x86)\\gnu tools arm embedded\\6 2017-q2-update\\arm-none-eabi\\include
 451              		.file 8 "c:\\program files (x86)\\gnu tools arm embedded\\6 2017-q2-update\\arm-none-eabi\\include
 452              		.file 9 "C:/Users/tle/e2_studio/workspace/rza2m_cam_and_disp_sample_freertos_gcc/generate/system/i
 453              		.file 10 "C:/Users/tle/e2_studio/workspace/rza2m_cam_and_disp_sample_freertos_gcc/generate/sc_driv
 454              		.file 11 "C:/Users/tle/e2_studio/workspace/rza2m_cam_and_disp_sample_freertos_gcc/generate/sc_driv
 455              		.file 12 "C:/Users/tle/e2_studio/workspace/rza2m_cam_and_disp_sample_freertos_gcc/generate/sc_driv
 456              		.file 13 "C:/Users/tle/e2_studio/workspace/rza2m_cam_and_disp_sample_freertos_gcc/generate/system/