   1              		.cpu cortex-a9
   2              		.eabi_attribute 28, 1
   3              		.eabi_attribute 20, 1
   4              		.eabi_attribute 21, 1
   5              		.eabi_attribute 23, 3
   6              		.eabi_attribute 24, 1
   7              		.eabi_attribute 25, 1
   8              		.eabi_attribute 26, 1
   9              		.eabi_attribute 30, 1
  10              		.eabi_attribute 34, 0
  11              		.eabi_attribute 18, 4
  12              		.file	"r_riic_hld_prv.c"
  13              		.text
  14              	.Ltext0:
  15              		.cfi_sections	.debug_frame
  16              		.section	.text.get_timeout_status,"ax",%progbits
  17              		.align	2
  18              		.syntax unified
  19              		.arm
  20              		.fpu neon
  22              	get_timeout_status:
  23              	.LFB21:
  24              		.file 1 "../generate/sc_drivers/r_riic/src/hld/r_riic_hld_prv.c"
   1:../generate/sc_drivers/r_riic/src/hld/r_riic_hld_prv.c **** /******************************************************************************
   2:../generate/sc_drivers/r_riic/src/hld/r_riic_hld_prv.c ****  * DISCLAIMER
   3:../generate/sc_drivers/r_riic/src/hld/r_riic_hld_prv.c ****  * This software is supplied by Renesas Electronics Corporation and is only
   4:../generate/sc_drivers/r_riic/src/hld/r_riic_hld_prv.c ****  * intended for use with Renesas products. No other uses are authorized. This
   5:../generate/sc_drivers/r_riic/src/hld/r_riic_hld_prv.c ****  * software is owned by Renesas Electronics Corporation and is protected under
   6:../generate/sc_drivers/r_riic/src/hld/r_riic_hld_prv.c ****  * all applicable laws, including copyright laws.
   7:../generate/sc_drivers/r_riic/src/hld/r_riic_hld_prv.c ****  * THIS SOFTWARE IS PROVIDED "AS IS" AND RENESAS MAKES NO WARRANTIES REGARDING
   8:../generate/sc_drivers/r_riic/src/hld/r_riic_hld_prv.c ****  * THIS SOFTWARE, WHETHER EXPRESS, IMPLIED OR STATUTORY, INCLUDING BUT NOT
   9:../generate/sc_drivers/r_riic/src/hld/r_riic_hld_prv.c ****  * LIMITED TO WARRANTIES OF MERCHANTABILITY, FITNESS FOR A PARTICULAR PURPOSE
  10:../generate/sc_drivers/r_riic/src/hld/r_riic_hld_prv.c ****  * AND NON-INFRINGEMENT. ALL SUCH WARRANTIES ARE EXPRESSLY DISCLAIMED.
  11:../generate/sc_drivers/r_riic/src/hld/r_riic_hld_prv.c ****  * TO THE MAXIMUM EXTENT PERMITTED NOT PROHIBITED BY LAW, NEITHER RENESAS
  12:../generate/sc_drivers/r_riic/src/hld/r_riic_hld_prv.c ****  * ELECTRONICS CORPORATION NOR ANY OF ITS AFFILIATED COMPANIES SHALL BE LIABLE
  13:../generate/sc_drivers/r_riic/src/hld/r_riic_hld_prv.c ****  * FOR ANY DIRECT, INDIRECT, SPECIAL, INCIDENTAL OR CONSEQUENTIAL DAMAGES FOR
  14:../generate/sc_drivers/r_riic/src/hld/r_riic_hld_prv.c ****  * ANY REASON RELATED TO THIS SOFTWARE, EVEN IF RENESAS OR ITS AFFILIATES HAVE
  15:../generate/sc_drivers/r_riic/src/hld/r_riic_hld_prv.c ****  * BEEN ADVISED OF THE POSSIBILITY OF SUCH DAMAGES.
  16:../generate/sc_drivers/r_riic/src/hld/r_riic_hld_prv.c ****  * Renesas reserves the right, without notice, to make changes to this software
  17:../generate/sc_drivers/r_riic/src/hld/r_riic_hld_prv.c ****  * and to discontinue the availability of this software. By using this
  18:../generate/sc_drivers/r_riic/src/hld/r_riic_hld_prv.c ****  * software, you agree to the additional terms and conditions found by
  19:../generate/sc_drivers/r_riic/src/hld/r_riic_hld_prv.c ****  * accessing the following link:
  20:../generate/sc_drivers/r_riic/src/hld/r_riic_hld_prv.c ****  * http://www.renesas.com/disclaimer
  21:../generate/sc_drivers/r_riic/src/hld/r_riic_hld_prv.c ****  * Copyright (C) 2019 Renesas Electronics Corporation. All rights reserved.
  22:../generate/sc_drivers/r_riic/src/hld/r_riic_hld_prv.c ****  *****************************************************************************/
  23:../generate/sc_drivers/r_riic/src/hld/r_riic_hld_prv.c **** /******************************************************************************
  24:../generate/sc_drivers/r_riic/src/hld/r_riic_hld_prv.c ****  * File Name    : r_riic_hld_prv.c
  25:../generate/sc_drivers/r_riic/src/hld/r_riic_hld_prv.c ****  * Version      : See History
  26:../generate/sc_drivers/r_riic/src/hld/r_riic_hld_prv.c ****  * Description  : I2C high level device driver private file
  27:../generate/sc_drivers/r_riic/src/hld/r_riic_hld_prv.c ****  ******************************************************************************
  28:../generate/sc_drivers/r_riic/src/hld/r_riic_hld_prv.c ****  * History      : DD.MM.YYYY Version Description
  29:../generate/sc_drivers/r_riic/src/hld/r_riic_hld_prv.c ****  *              : 06.02.2018 1.00    First Release
  30:../generate/sc_drivers/r_riic/src/hld/r_riic_hld_prv.c ****  *****************************************************************************/
  31:../generate/sc_drivers/r_riic/src/hld/r_riic_hld_prv.c **** 
  32:../generate/sc_drivers/r_riic/src/hld/r_riic_hld_prv.c **** /******************************************************************************
  33:../generate/sc_drivers/r_riic/src/hld/r_riic_hld_prv.c ****  Includes   <System Includes> , "Project Includes"
  34:../generate/sc_drivers/r_riic/src/hld/r_riic_hld_prv.c ****  ******************************************************************************/
  35:../generate/sc_drivers/r_riic/src/hld/r_riic_hld_prv.c **** 
  36:../generate/sc_drivers/r_riic/src/hld/r_riic_hld_prv.c **** #include "driver.h"            /* Device Driver common header */
  37:../generate/sc_drivers/r_riic/src/hld/r_riic_hld_prv.c **** #include "r_riic_hld_prv.h"     /* RIIC High level Driver Header */
  38:../generate/sc_drivers/r_riic/src/hld/r_riic_hld_prv.c **** #include "r_riic_drv_api.h"
  39:../generate/sc_drivers/r_riic/src/hld/r_riic_hld_prv.c **** #include "r_riic_hld_api.h"     /* defines and lld include */
  40:../generate/sc_drivers/r_riic/src/hld/r_riic_hld_prv.c **** #include "r_riic_drv_link.h"    /* Link include to low level driver */
  41:../generate/sc_drivers/r_riic/src/hld/r_riic_hld_prv.c **** #include "r_gpio_drv_api.h"
  42:../generate/sc_drivers/r_riic/src/hld/r_riic_hld_prv.c **** 
  43:../generate/sc_drivers/r_riic/src/hld/r_riic_hld_prv.c **** /*******************************************************************************
  44:../generate/sc_drivers/r_riic/src/hld/r_riic_hld_prv.c ****  Macro definitions
  45:../generate/sc_drivers/r_riic/src/hld/r_riic_hld_prv.c ****  *******************************************************************************/
  46:../generate/sc_drivers/r_riic/src/hld/r_riic_hld_prv.c **** /* IIC data read/write bit position */
  47:../generate/sc_drivers/r_riic/src/hld/r_riic_hld_prv.c **** #define SAMPLE_RIIC_RWCODE_PRV_        (0x01)
  48:../generate/sc_drivers/r_riic/src/hld/r_riic_hld_prv.c **** 
  49:../generate/sc_drivers/r_riic/src/hld/r_riic_hld_prv.c **** /* defines for channel enable status */
  50:../generate/sc_drivers/r_riic/src/hld/r_riic_hld_prv.c **** #define CHANNEL_ENABLED_PRV_    (1)
  51:../generate/sc_drivers/r_riic/src/hld/r_riic_hld_prv.c **** #define CHANNEL_DISABLED_PRV_   (0)
  52:../generate/sc_drivers/r_riic/src/hld/r_riic_hld_prv.c **** 
  53:../generate/sc_drivers/r_riic/src/hld/r_riic_hld_prv.c **** #define DRV_FLAG_OFF_PRV_ (0)
  54:../generate/sc_drivers/r_riic/src/hld/r_riic_hld_prv.c **** #define DRV_FLAG_ON_PRV_ (1)
  55:../generate/sc_drivers/r_riic/src/hld/r_riic_hld_prv.c **** 
  56:../generate/sc_drivers/r_riic/src/hld/r_riic_hld_prv.c **** /* set define to 1 to enable software timeout on operations (as opposed to RIIC timeout function */
  57:../generate/sc_drivers/r_riic/src/hld/r_riic_hld_prv.c **** #define SW_TIMEOUT_ENABLED_PRV_  (0)
  58:../generate/sc_drivers/r_riic/src/hld/r_riic_hld_prv.c **** 
  59:../generate/sc_drivers/r_riic/src/hld/r_riic_hld_prv.c **** /******************************************************************************
  60:../generate/sc_drivers/r_riic/src/hld/r_riic_hld_prv.c ****  Typedef definitions
  61:../generate/sc_drivers/r_riic/src/hld/r_riic_hld_prv.c ****  ******************************************************************************/
  62:../generate/sc_drivers/r_riic/src/hld/r_riic_hld_prv.c **** typedef enum riic_rx_mode
  63:../generate/sc_drivers/r_riic/src/hld/r_riic_hld_prv.c **** {
  64:../generate/sc_drivers/r_riic/src/hld/r_riic_hld_prv.c ****     RIIC_RX_MODE_NORMAL, RIIC_RX_MODE_ACK, RIIC_RX_MODE_LOW_HOLD, RIIC_RX_MODE_NACK, RIIC_RX_MODE_S
  65:../generate/sc_drivers/r_riic/src/hld/r_riic_hld_prv.c **** } e_riic_rx_mode_t;
  66:../generate/sc_drivers/r_riic/src/hld/r_riic_hld_prv.c **** 
  67:../generate/sc_drivers/r_riic/src/hld/r_riic_hld_prv.c **** /******************************************************************************
  68:../generate/sc_drivers/r_riic/src/hld/r_riic_hld_prv.c ****  Private global variables and functions
  69:../generate/sc_drivers/r_riic/src/hld/r_riic_hld_prv.c ****  ******************************************************************************/
  70:../generate/sc_drivers/r_riic/src/hld/r_riic_hld_prv.c **** static int_t riic_single_write (int_t channel, uint8_t data, uint32_t mode);
  71:../generate/sc_drivers/r_riic/src/hld/r_riic_hld_prv.c **** static int_t riic_write (int_t channel, const uint8_t *pbuffer, uint32_t byte);
  72:../generate/sc_drivers/r_riic/src/hld/r_riic_hld_prv.c **** static int_t riic_read (int_t channel, uint8_t *pbuffer, uint32_t byte);
  73:../generate/sc_drivers/r_riic/src/hld/r_riic_hld_prv.c **** static int_t riic_receive (int_t channel, e_riic_rx_mode_t mode, uint8_t *pdata);
  74:../generate/sc_drivers/r_riic/src/hld/r_riic_hld_prv.c **** static int_t riic_transmit (int_t channel, uint8_t data);
  75:../generate/sc_drivers/r_riic/src/hld/r_riic_hld_prv.c **** static int_t transmit_start (int_t channel);
  76:../generate/sc_drivers/r_riic/src/hld/r_riic_hld_prv.c **** static int_t transmit_restart (int_t channel);
  77:../generate/sc_drivers/r_riic/src/hld/r_riic_hld_prv.c **** 
  78:../generate/sc_drivers/r_riic/src/hld/r_riic_hld_prv.c **** /* wait functions for completion of i2c operations */
  79:../generate/sc_drivers/r_riic/src/hld/r_riic_hld_prv.c **** static int_t wait_rx_full (int_t channel);
  80:../generate/sc_drivers/r_riic/src/hld/r_riic_hld_prv.c **** static int_t wait_tx_empty (int_t channel);
  81:../generate/sc_drivers/r_riic/src/hld/r_riic_hld_prv.c **** static int_t wait_tx_end (int_t channel, uint32_t mode);
  82:../generate/sc_drivers/r_riic/src/hld/r_riic_hld_prv.c **** static int_t wait_bus_master (int_t channel, uint32_t mode);
  83:../generate/sc_drivers/r_riic/src/hld/r_riic_hld_prv.c **** static int_t wait_stop (int_t channel);
  84:../generate/sc_drivers/r_riic/src/hld/r_riic_hld_prv.c **** 
  85:../generate/sc_drivers/r_riic/src/hld/r_riic_hld_prv.c **** /* timeout monitoring */
  86:../generate/sc_drivers/r_riic/src/hld/r_riic_hld_prv.c **** static void start_timeout_monitor (int_t channel);
  87:../generate/sc_drivers/r_riic/src/hld/r_riic_hld_prv.c **** static void stop_timeout_monitor (int_t channel);
  88:../generate/sc_drivers/r_riic/src/hld/r_riic_hld_prv.c **** static int_t get_timeout_status (int_t channel);
  89:../generate/sc_drivers/r_riic/src/hld/r_riic_hld_prv.c **** 
  90:../generate/sc_drivers/r_riic/src/hld/r_riic_hld_prv.c **** #if (1u == SW_TIMEOUT_ENABLED_PRV_)
  91:../generate/sc_drivers/r_riic/src/hld/r_riic_hld_prv.c **** static uint32_t gs_sw_timeout_counter = ICC_MAX_TIMEOUT;
  92:../generate/sc_drivers/r_riic/src/hld/r_riic_hld_prv.c **** #endif /* (1u == SW_TIMEOUT_ENABLED_PRV_) */
  93:../generate/sc_drivers/r_riic/src/hld/r_riic_hld_prv.c **** 
  94:../generate/sc_drivers/r_riic/src/hld/r_riic_hld_prv.c **** /* static array variable holding initialisation status of each low level channel */
  95:../generate/sc_drivers/r_riic/src/hld/r_riic_hld_prv.c **** static int_t gs_channel_initialise_state[RIIC_CFG_LLD_NUM_CHANNELS];
  96:../generate/sc_drivers/r_riic/src/hld/r_riic_hld_prv.c **** 
  97:../generate/sc_drivers/r_riic/src/hld/r_riic_hld_prv.c **** /* static variable holding overall initialisation status of all i2c channels */
  98:../generate/sc_drivers/r_riic/src/hld/r_riic_hld_prv.c **** static int_t gs_overall_initialise_state = 0u;
  99:../generate/sc_drivers/r_riic/src/hld/r_riic_hld_prv.c **** 
 100:../generate/sc_drivers/r_riic/src/hld/r_riic_hld_prv.c **** /* static array variables holding flag statuses for each channel */
 101:../generate/sc_drivers/r_riic/src/hld/r_riic_hld_prv.c **** static volatile uint8_t gs_riic_receive_full_flg[RIIC_CFG_LLD_NUM_CHANNELS];
 102:../generate/sc_drivers/r_riic/src/hld/r_riic_hld_prv.c **** static volatile uint8_t gs_riic_transmit_empty_flg[RIIC_CFG_LLD_NUM_CHANNELS];
 103:../generate/sc_drivers/r_riic/src/hld/r_riic_hld_prv.c **** static volatile uint8_t gs_riic_transmit_end_flg[RIIC_CFG_LLD_NUM_CHANNELS];
 104:../generate/sc_drivers/r_riic/src/hld/r_riic_hld_prv.c **** static volatile uint8_t gs_riic_stop_flg[RIIC_CFG_LLD_NUM_CHANNELS];
 105:../generate/sc_drivers/r_riic/src/hld/r_riic_hld_prv.c **** static volatile uint8_t gs_riic_start_flg[RIIC_CFG_LLD_NUM_CHANNELS];
 106:../generate/sc_drivers/r_riic/src/hld/r_riic_hld_prv.c **** static volatile uint8_t gs_riic_nack_flg[RIIC_CFG_LLD_NUM_CHANNELS];
 107:../generate/sc_drivers/r_riic/src/hld/r_riic_hld_prv.c **** static volatile uint8_t gs_riic_arbitration_flg[RIIC_CFG_LLD_NUM_CHANNELS];
 108:../generate/sc_drivers/r_riic/src/hld/r_riic_hld_prv.c **** static volatile uint8_t gs_riic_timeout_flg[RIIC_CFG_LLD_NUM_CHANNELS];
 109:../generate/sc_drivers/r_riic/src/hld/r_riic_hld_prv.c **** 
 110:../generate/sc_drivers/r_riic/src/hld/r_riic_hld_prv.c **** /**
 111:../generate/sc_drivers/r_riic/src/hld/r_riic_hld_prv.c ****  * @brief riic_setup set up the RIIC driver GPIO Pins
 112:../generate/sc_drivers/r_riic/src/hld/r_riic_hld_prv.c ****  *
 113:../generate/sc_drivers/r_riic/src/hld/r_riic_hld_prv.c ****  * @param[in] p_config Pointer to configuration struct.
 114:../generate/sc_drivers/r_riic/src/hld/r_riic_hld_prv.c ****  *
 115:../generate/sc_drivers/r_riic/src/hld/r_riic_hld_prv.c ****  * @param[in] p_config Channel to setup.
 116:../generate/sc_drivers/r_riic/src/hld/r_riic_hld_prv.c ****  *
 117:../generate/sc_drivers/r_riic/src/hld/r_riic_hld_prv.c ****  * @retval 0  Success
 118:../generate/sc_drivers/r_riic/src/hld/r_riic_hld_prv.c ****  */
 119:../generate/sc_drivers/r_riic/src/hld/r_riic_hld_prv.c **** static int_t riic_setup (const st_r_drv_riic_sc_config_t *p_config)
 120:../generate/sc_drivers/r_riic/src/hld/r_riic_hld_prv.c **** {
 121:../generate/sc_drivers/r_riic/src/hld/r_riic_hld_prv.c ****     int_t gpio_handle = ( -1);
 122:../generate/sc_drivers/r_riic/src/hld/r_riic_hld_prv.c ****     gpio_handle = direct_open("gpio", 0);
 123:../generate/sc_drivers/r_riic/src/hld/r_riic_hld_prv.c **** 
 124:../generate/sc_drivers/r_riic/src/hld/r_riic_hld_prv.c ****     if (( -1) != gpio_handle)
 125:../generate/sc_drivers/r_riic/src/hld/r_riic_hld_prv.c ****     {
 126:../generate/sc_drivers/r_riic/src/hld/r_riic_hld_prv.c ****         /* direct_control as direct_control assumes parameter 3 is i/o, but using the parameter in 
 127:../generate/sc_drivers/r_riic/src/hld/r_riic_hld_prv.c ****         direct_control(gpio_handle, CTL_GPIO_INIT_BY_TABLE, (st_r_drv_riic_sc_config_t *) &p_config
 128:../generate/sc_drivers/r_riic/src/hld/r_riic_hld_prv.c ****         direct_close(gpio_handle);
 129:../generate/sc_drivers/r_riic/src/hld/r_riic_hld_prv.c ****     }
 130:../generate/sc_drivers/r_riic/src/hld/r_riic_hld_prv.c **** 
 131:../generate/sc_drivers/r_riic/src/hld/r_riic_hld_prv.c ****     return (DRV_SUCCESS);
 132:../generate/sc_drivers/r_riic/src/hld/r_riic_hld_prv.c **** }
 133:../generate/sc_drivers/r_riic/src/hld/r_riic_hld_prv.c **** /******************************************************************************
 134:../generate/sc_drivers/r_riic/src/hld/r_riic_hld_prv.c ****  * End of Function riic_setup
 135:../generate/sc_drivers/r_riic/src/hld/r_riic_hld_prv.c ****  ******************************************************************************/
 136:../generate/sc_drivers/r_riic/src/hld/r_riic_hld_prv.c **** 
 137:../generate/sc_drivers/r_riic/src/hld/r_riic_hld_prv.c **** /**
 138:../generate/sc_drivers/r_riic/src/hld/r_riic_hld_prv.c ****  * @brief open the specified i2c peripheral channel
 139:../generate/sc_drivers/r_riic/src/hld/r_riic_hld_prv.c ****  * @param[in] channel : the device specific channel number (< RIIC_CFG_LLD_NUM_CHANNELS)
 140:../generate/sc_drivers/r_riic/src/hld/r_riic_hld_prv.c ****  * @return    DRV_SUCCESS       : Success of RIIC operation
 141:../generate/sc_drivers/r_riic/src/hld/r_riic_hld_prv.c ****  *            DRV_ERROR         : Failure of RIIC operation
 142:../generate/sc_drivers/r_riic/src/hld/r_riic_hld_prv.c ****  *            DRV_ERROR : IIC operation timed out
 143:../generate/sc_drivers/r_riic/src/hld/r_riic_hld_prv.c ****  **/
 144:../generate/sc_drivers/r_riic/src/hld/r_riic_hld_prv.c **** int_t open_channel (int_t channel)
 145:../generate/sc_drivers/r_riic/src/hld/r_riic_hld_prv.c **** {
 146:../generate/sc_drivers/r_riic/src/hld/r_riic_hld_prv.c ****     int_t retval = DRV_ERROR;
 147:../generate/sc_drivers/r_riic/src/hld/r_riic_hld_prv.c ****     int_t sc_index = 0;
 148:../generate/sc_drivers/r_riic/src/hld/r_riic_hld_prv.c ****     int_t sc_loop = 0;
 149:../generate/sc_drivers/r_riic/src/hld/r_riic_hld_prv.c ****     int_t sc_table_size = (sizeof(RIIC_SC_TABLE)) / (sizeof(st_r_drv_riic_sc_config_t));
 150:../generate/sc_drivers/r_riic/src/hld/r_riic_hld_prv.c **** 
 151:../generate/sc_drivers/r_riic/src/hld/r_riic_hld_prv.c ****     for (sc_index = 0; (sc_loop < sc_table_size); sc_loop++)
 152:../generate/sc_drivers/r_riic/src/hld/r_riic_hld_prv.c ****     {
 153:../generate/sc_drivers/r_riic/src/hld/r_riic_hld_prv.c ****         if (RIIC_SC_TABLE[sc_loop].channel == channel)
 154:../generate/sc_drivers/r_riic/src/hld/r_riic_hld_prv.c ****         {
 155:../generate/sc_drivers/r_riic/src/hld/r_riic_hld_prv.c ****             sc_index = sc_loop;
 156:../generate/sc_drivers/r_riic/src/hld/r_riic_hld_prv.c ****             retval = DRV_SUCCESS;
 157:../generate/sc_drivers/r_riic/src/hld/r_riic_hld_prv.c ****         }
 158:../generate/sc_drivers/r_riic/src/hld/r_riic_hld_prv.c ****     }
 159:../generate/sc_drivers/r_riic/src/hld/r_riic_hld_prv.c **** 
 160:../generate/sc_drivers/r_riic/src/hld/r_riic_hld_prv.c ****     if (DRV_SUCCESS == retval)
 161:../generate/sc_drivers/r_riic/src/hld/r_riic_hld_prv.c ****     {
 162:../generate/sc_drivers/r_riic/src/hld/r_riic_hld_prv.c ****         /* configure channel */
 163:../generate/sc_drivers/r_riic/src/hld/r_riic_hld_prv.c ****         retval = riic_setup( &(RIIC_SC_TABLE[sc_index]));
 164:../generate/sc_drivers/r_riic/src/hld/r_riic_hld_prv.c **** 
 165:../generate/sc_drivers/r_riic/src/hld/r_riic_hld_prv.c ****         /* Initialise flags */
 166:../generate/sc_drivers/r_riic/src/hld/r_riic_hld_prv.c ****         gs_riic_receive_full_flg[channel] = DRV_FLAG_OFF_PRV_;
 167:../generate/sc_drivers/r_riic/src/hld/r_riic_hld_prv.c ****         gs_riic_transmit_empty_flg[channel] = DRV_FLAG_OFF_PRV_;
 168:../generate/sc_drivers/r_riic/src/hld/r_riic_hld_prv.c ****         gs_riic_transmit_end_flg[channel] = DRV_FLAG_OFF_PRV_;
 169:../generate/sc_drivers/r_riic/src/hld/r_riic_hld_prv.c ****         gs_riic_stop_flg[channel] = DRV_FLAG_OFF_PRV_;
 170:../generate/sc_drivers/r_riic/src/hld/r_riic_hld_prv.c ****         gs_riic_start_flg[channel] = DRV_FLAG_OFF_PRV_;
 171:../generate/sc_drivers/r_riic/src/hld/r_riic_hld_prv.c ****         gs_riic_nack_flg[channel] = DRV_FLAG_OFF_PRV_;
 172:../generate/sc_drivers/r_riic/src/hld/r_riic_hld_prv.c ****         gs_riic_arbitration_flg[channel] = DRV_FLAG_OFF_PRV_;
 173:../generate/sc_drivers/r_riic/src/hld/r_riic_hld_prv.c ****         gs_riic_timeout_flg[channel] = DRV_FLAG_OFF_PRV_;
 174:../generate/sc_drivers/r_riic/src/hld/r_riic_hld_prv.c ****     }
 175:../generate/sc_drivers/r_riic/src/hld/r_riic_hld_prv.c **** 
 176:../generate/sc_drivers/r_riic/src/hld/r_riic_hld_prv.c ****     /* return status */
 177:../generate/sc_drivers/r_riic/src/hld/r_riic_hld_prv.c ****     return (retval);
 178:../generate/sc_drivers/r_riic/src/hld/r_riic_hld_prv.c **** }
 179:../generate/sc_drivers/r_riic/src/hld/r_riic_hld_prv.c **** /*******************************************************************************
 180:../generate/sc_drivers/r_riic/src/hld/r_riic_hld_prv.c ****  End of function open_channel
 181:../generate/sc_drivers/r_riic/src/hld/r_riic_hld_prv.c ****  ******************************************************************************/
 182:../generate/sc_drivers/r_riic/src/hld/r_riic_hld_prv.c **** 
 183:../generate/sc_drivers/r_riic/src/hld/r_riic_hld_prv.c **** /**
 184:../generate/sc_drivers/r_riic/src/hld/r_riic_hld_prv.c ****  * @brief Close the specified i2c channel
 185:../generate/sc_drivers/r_riic/src/hld/r_riic_hld_prv.c ****  * @param[in] channel : the device specific channel number (< RIIC_CFG_LLD_NUM_CHANNELS)
 186:../generate/sc_drivers/r_riic/src/hld/r_riic_hld_prv.c ****  **/
 187:../generate/sc_drivers/r_riic/src/hld/r_riic_hld_prv.c **** void close_channel (int_t channel)
 188:../generate/sc_drivers/r_riic/src/hld/r_riic_hld_prv.c **** {
 189:../generate/sc_drivers/r_riic/src/hld/r_riic_hld_prv.c ****     uint32_t loop;
 190:../generate/sc_drivers/r_riic/src/hld/r_riic_hld_prv.c ****     uint32_t count = 0u;
 191:../generate/sc_drivers/r_riic/src/hld/r_riic_hld_prv.c **** 
 192:../generate/sc_drivers/r_riic/src/hld/r_riic_hld_prv.c ****     /* ensure that channel is valid */
 193:../generate/sc_drivers/r_riic/src/hld/r_riic_hld_prv.c ****     int_t ret = validate_channel(channel);
 194:../generate/sc_drivers/r_riic/src/hld/r_riic_hld_prv.c **** 
 195:../generate/sc_drivers/r_riic/src/hld/r_riic_hld_prv.c ****     if (DRV_SUCCESS == ret)
 196:../generate/sc_drivers/r_riic/src/hld/r_riic_hld_prv.c ****     {
 197:../generate/sc_drivers/r_riic/src/hld/r_riic_hld_prv.c ****         /* mark channel as un-initialised */
 198:../generate/sc_drivers/r_riic/src/hld/r_riic_hld_prv.c ****         gs_channel_initialise_state[channel] = CHANNEL_DISABLED_PRV_;
 199:../generate/sc_drivers/r_riic/src/hld/r_riic_hld_prv.c **** 
 200:../generate/sc_drivers/r_riic/src/hld/r_riic_hld_prv.c ****         /* call to low level driver to turn channel off */
 201:../generate/sc_drivers/r_riic/src/hld/r_riic_hld_prv.c ****         R_RIIC_CloseChannel(channel);
 202:../generate/sc_drivers/r_riic/src/hld/r_riic_hld_prv.c **** 
 203:../generate/sc_drivers/r_riic/src/hld/r_riic_hld_prv.c ****         /* test if any channels are still active */
 204:../generate/sc_drivers/r_riic/src/hld/r_riic_hld_prv.c ****         for (loop = 0; loop < RIIC_CFG_LLD_NUM_CHANNELS; loop++)
 205:../generate/sc_drivers/r_riic/src/hld/r_riic_hld_prv.c ****         {
 206:../generate/sc_drivers/r_riic/src/hld/r_riic_hld_prv.c ****             if (CHANNEL_DISABLED_PRV_ != gs_channel_initialise_state[loop])
 207:../generate/sc_drivers/r_riic/src/hld/r_riic_hld_prv.c ****             {
 208:../generate/sc_drivers/r_riic/src/hld/r_riic_hld_prv.c ****                 count++;
 209:../generate/sc_drivers/r_riic/src/hld/r_riic_hld_prv.c ****             }
 210:../generate/sc_drivers/r_riic/src/hld/r_riic_hld_prv.c ****         }
 211:../generate/sc_drivers/r_riic/src/hld/r_riic_hld_prv.c **** 
 212:../generate/sc_drivers/r_riic/src/hld/r_riic_hld_prv.c ****         /* If no channels are open, set the overall initialisation as zero */
 213:../generate/sc_drivers/r_riic/src/hld/r_riic_hld_prv.c ****         if (0u == count)
 214:../generate/sc_drivers/r_riic/src/hld/r_riic_hld_prv.c ****         {
 215:../generate/sc_drivers/r_riic/src/hld/r_riic_hld_prv.c ****             gs_overall_initialise_state = CHANNEL_DISABLED_PRV_;
 216:../generate/sc_drivers/r_riic/src/hld/r_riic_hld_prv.c ****         }
 217:../generate/sc_drivers/r_riic/src/hld/r_riic_hld_prv.c ****     }
 218:../generate/sc_drivers/r_riic/src/hld/r_riic_hld_prv.c **** }
 219:../generate/sc_drivers/r_riic/src/hld/r_riic_hld_prv.c **** /*******************************************************************************
 220:../generate/sc_drivers/r_riic/src/hld/r_riic_hld_prv.c ****  End of function close_channel
 221:../generate/sc_drivers/r_riic/src/hld/r_riic_hld_prv.c ****  ******************************************************************************/
 222:../generate/sc_drivers/r_riic/src/hld/r_riic_hld_prv.c **** 
 223:../generate/sc_drivers/r_riic/src/hld/r_riic_hld_prv.c **** /**
 224:../generate/sc_drivers/r_riic/src/hld/r_riic_hld_prv.c ****  * @brief Writes 1 byte only of data to specified I2c channel
 225:../generate/sc_drivers/r_riic/src/hld/r_riic_hld_prv.c ****  * @param[in] channel : the device specific channel number (< RIIC_CFG_LLD_NUM_CHANNELS)
 226:../generate/sc_drivers/r_riic/src/hld/r_riic_hld_prv.c ****  * @param[in] data    : data byte
 227:../generate/sc_drivers/r_riic/src/hld/r_riic_hld_prv.c ****  * @param[in] mode    : RIIC_TEND_WAIT_TRANSMIT : Transmission Mode
 228:../generate/sc_drivers/r_riic/src/hld/r_riic_hld_prv.c ****  *                    : RIIC_TEND_WAIT_RECEIVE  : Receive Mode
 229:../generate/sc_drivers/r_riic/src/hld/r_riic_hld_prv.c ****  * @return    DRV_SUCCESS         : Success of RIIC operation
 230:../generate/sc_drivers/r_riic/src/hld/r_riic_hld_prv.c ****  *            DRV_ERROR           : Failure of RIIC operation
 231:../generate/sc_drivers/r_riic/src/hld/r_riic_hld_prv.c ****  *            DRV_ERROR   : RIIC operation timed out
 232:../generate/sc_drivers/r_riic/src/hld/r_riic_hld_prv.c ****  **/
 233:../generate/sc_drivers/r_riic/src/hld/r_riic_hld_prv.c **** static int_t riic_single_write (int_t channel, uint8_t data, uint32_t mode)
 234:../generate/sc_drivers/r_riic/src/hld/r_riic_hld_prv.c **** {
 235:../generate/sc_drivers/r_riic/src/hld/r_riic_hld_prv.c ****     int_t ret;
 236:../generate/sc_drivers/r_riic/src/hld/r_riic_hld_prv.c **** 
 237:../generate/sc_drivers/r_riic/src/hld/r_riic_hld_prv.c ****     /* Write single byte */
 238:../generate/sc_drivers/r_riic/src/hld/r_riic_hld_prv.c ****     ret = riic_transmit(channel, data);
 239:../generate/sc_drivers/r_riic/src/hld/r_riic_hld_prv.c **** 
 240:../generate/sc_drivers/r_riic/src/hld/r_riic_hld_prv.c ****     if (DRV_SUCCESS == ret)
 241:../generate/sc_drivers/r_riic/src/hld/r_riic_hld_prv.c ****     {
 242:../generate/sc_drivers/r_riic/src/hld/r_riic_hld_prv.c ****         /* wait for end of transmission */
 243:../generate/sc_drivers/r_riic/src/hld/r_riic_hld_prv.c ****         ret = wait_tx_end(channel, mode);
 244:../generate/sc_drivers/r_riic/src/hld/r_riic_hld_prv.c **** 
 245:../generate/sc_drivers/r_riic/src/hld/r_riic_hld_prv.c ****         if (DRV_SUCCESS == ret)
 246:../generate/sc_drivers/r_riic/src/hld/r_riic_hld_prv.c ****         {
 247:../generate/sc_drivers/r_riic/src/hld/r_riic_hld_prv.c ****             /* Check for transmission status */
 248:../generate/sc_drivers/r_riic/src/hld/r_riic_hld_prv.c ****             if (DRV_FLAG_OFF_PRV_ == gs_riic_nack_flg[channel])
 249:../generate/sc_drivers/r_riic/src/hld/r_riic_hld_prv.c ****             {
 250:../generate/sc_drivers/r_riic/src/hld/r_riic_hld_prv.c ****                 /* ACK */
 251:../generate/sc_drivers/r_riic/src/hld/r_riic_hld_prv.c ****                 ret = DRV_SUCCESS;
 252:../generate/sc_drivers/r_riic/src/hld/r_riic_hld_prv.c ****             }
 253:../generate/sc_drivers/r_riic/src/hld/r_riic_hld_prv.c ****             else
 254:../generate/sc_drivers/r_riic/src/hld/r_riic_hld_prv.c ****             {
 255:../generate/sc_drivers/r_riic/src/hld/r_riic_hld_prv.c ****                 /* NACK */
 256:../generate/sc_drivers/r_riic/src/hld/r_riic_hld_prv.c ****                 gs_riic_nack_flg[channel] = DRV_FLAG_OFF_PRV_;
 257:../generate/sc_drivers/r_riic/src/hld/r_riic_hld_prv.c ****                 ret = DRV_ERROR;
 258:../generate/sc_drivers/r_riic/src/hld/r_riic_hld_prv.c ****             }
 259:../generate/sc_drivers/r_riic/src/hld/r_riic_hld_prv.c ****         }
 260:../generate/sc_drivers/r_riic/src/hld/r_riic_hld_prv.c ****     }
 261:../generate/sc_drivers/r_riic/src/hld/r_riic_hld_prv.c **** 
 262:../generate/sc_drivers/r_riic/src/hld/r_riic_hld_prv.c ****     return (ret);
 263:../generate/sc_drivers/r_riic/src/hld/r_riic_hld_prv.c **** }
 264:../generate/sc_drivers/r_riic/src/hld/r_riic_hld_prv.c **** /******************************************************************************
 265:../generate/sc_drivers/r_riic/src/hld/r_riic_hld_prv.c ****  * End of Function riic_single_write
 266:../generate/sc_drivers/r_riic/src/hld/r_riic_hld_prv.c ****  ******************************************************************************/
 267:../generate/sc_drivers/r_riic/src/hld/r_riic_hld_prv.c **** 
 268:../generate/sc_drivers/r_riic/src/hld/r_riic_hld_prv.c **** /**
 269:../generate/sc_drivers/r_riic/src/hld/r_riic_hld_prv.c ****  * @brief Writes data to an already addressed device
 270:../generate/sc_drivers/r_riic/src/hld/r_riic_hld_prv.c ****  * @param[in] channel : the device specific channel number (< RIIC_CFG_LLD_NUM_CHANNELS)
 271:../generate/sc_drivers/r_riic/src/hld/r_riic_hld_prv.c ****  * @param[in] pbuffer : pointer to allocated space for data
 272:../generate/sc_drivers/r_riic/src/hld/r_riic_hld_prv.c ****  * @param[in] byte    : number of bytes to receive
 273:../generate/sc_drivers/r_riic/src/hld/r_riic_hld_prv.c ****  * @return    DRV_SUCCESS         : Success of RIIC operation
 274:../generate/sc_drivers/r_riic/src/hld/r_riic_hld_prv.c ****  *            DRV_ERROR           : Failure of RIIC operation
 275:../generate/sc_drivers/r_riic/src/hld/r_riic_hld_prv.c ****  *            DRV_ERROR_RIIC_NACK : Failure of RIIC transmission due to
 276:../generate/sc_drivers/r_riic/src/hld/r_riic_hld_prv.c ****  *                                     NACK reception
 277:../generate/sc_drivers/r_riic/src/hld/r_riic_hld_prv.c ****  *            DRV_ERROR   : RIIC operation timed out
 278:../generate/sc_drivers/r_riic/src/hld/r_riic_hld_prv.c ****  **/
 279:../generate/sc_drivers/r_riic/src/hld/r_riic_hld_prv.c **** static int_t riic_write (int_t channel, const uint8_t *pbuffer, uint32_t byte)
 280:../generate/sc_drivers/r_riic/src/hld/r_riic_hld_prv.c **** {
 281:../generate/sc_drivers/r_riic/src/hld/r_riic_hld_prv.c ****     uint32_t offset;
 282:../generate/sc_drivers/r_riic/src/hld/r_riic_hld_prv.c ****     int_t ret = DRV_SUCCESS;
 283:../generate/sc_drivers/r_riic/src/hld/r_riic_hld_prv.c **** 
 284:../generate/sc_drivers/r_riic/src/hld/r_riic_hld_prv.c ****     if (0 < byte)
 285:../generate/sc_drivers/r_riic/src/hld/r_riic_hld_prv.c ****     {
 286:../generate/sc_drivers/r_riic/src/hld/r_riic_hld_prv.c ****         for (offset = 0; offset < byte; offset++)
 287:../generate/sc_drivers/r_riic/src/hld/r_riic_hld_prv.c ****         {
 288:../generate/sc_drivers/r_riic/src/hld/r_riic_hld_prv.c ****             /* Single byte transmission */
 289:../generate/sc_drivers/r_riic/src/hld/r_riic_hld_prv.c ****             ret = riic_transmit(channel, *(pbuffer + offset));
 290:../generate/sc_drivers/r_riic/src/hld/r_riic_hld_prv.c **** 
 291:../generate/sc_drivers/r_riic/src/hld/r_riic_hld_prv.c ****             if (DRV_SUCCESS != ret)
 292:../generate/sc_drivers/r_riic/src/hld/r_riic_hld_prv.c ****             {
 293:../generate/sc_drivers/r_riic/src/hld/r_riic_hld_prv.c ****                 /* Exit the loop */
 294:../generate/sc_drivers/r_riic/src/hld/r_riic_hld_prv.c ****                 offset = byte;
 295:../generate/sc_drivers/r_riic/src/hld/r_riic_hld_prv.c ****             }
 296:../generate/sc_drivers/r_riic/src/hld/r_riic_hld_prv.c ****         }
 297:../generate/sc_drivers/r_riic/src/hld/r_riic_hld_prv.c **** 
 298:../generate/sc_drivers/r_riic/src/hld/r_riic_hld_prv.c ****         if (DRV_SUCCESS == ret)
 299:../generate/sc_drivers/r_riic/src/hld/r_riic_hld_prv.c ****         {
 300:../generate/sc_drivers/r_riic/src/hld/r_riic_hld_prv.c ****             ret = wait_tx_end(channel, RIIC_TEND_WAIT_TRANSMIT);
 301:../generate/sc_drivers/r_riic/src/hld/r_riic_hld_prv.c ****             if (DRV_SUCCESS == ret)
 302:../generate/sc_drivers/r_riic/src/hld/r_riic_hld_prv.c ****             {
 303:../generate/sc_drivers/r_riic/src/hld/r_riic_hld_prv.c ****                 /* clear flag */
 304:../generate/sc_drivers/r_riic/src/hld/r_riic_hld_prv.c ****                 gs_riic_transmit_end_flg[channel] = DRV_FLAG_OFF_PRV_;
 305:../generate/sc_drivers/r_riic/src/hld/r_riic_hld_prv.c **** 
 306:../generate/sc_drivers/r_riic/src/hld/r_riic_hld_prv.c ****                 /* test for ACK */
 307:../generate/sc_drivers/r_riic/src/hld/r_riic_hld_prv.c ****                 if (DRV_FLAG_OFF_PRV_ == gs_riic_nack_flg[channel])
 308:../generate/sc_drivers/r_riic/src/hld/r_riic_hld_prv.c ****                 {
 309:../generate/sc_drivers/r_riic/src/hld/r_riic_hld_prv.c ****                     /* ACK received */
 310:../generate/sc_drivers/r_riic/src/hld/r_riic_hld_prv.c ****                     ret = DRV_SUCCESS;
 311:../generate/sc_drivers/r_riic/src/hld/r_riic_hld_prv.c ****                 }
 312:../generate/sc_drivers/r_riic/src/hld/r_riic_hld_prv.c ****                 else
 313:../generate/sc_drivers/r_riic/src/hld/r_riic_hld_prv.c ****                 {
 314:../generate/sc_drivers/r_riic/src/hld/r_riic_hld_prv.c ****                     /* NACK */
 315:../generate/sc_drivers/r_riic/src/hld/r_riic_hld_prv.c **** 
 316:../generate/sc_drivers/r_riic/src/hld/r_riic_hld_prv.c ****                     /* reset flag */
 317:../generate/sc_drivers/r_riic/src/hld/r_riic_hld_prv.c ****                     gs_riic_nack_flg[channel] = DRV_FLAG_OFF_PRV_;
 318:../generate/sc_drivers/r_riic/src/hld/r_riic_hld_prv.c ****                     ret = DRV_ERROR;
 319:../generate/sc_drivers/r_riic/src/hld/r_riic_hld_prv.c ****                 }
 320:../generate/sc_drivers/r_riic/src/hld/r_riic_hld_prv.c ****             }
 321:../generate/sc_drivers/r_riic/src/hld/r_riic_hld_prv.c ****         }
 322:../generate/sc_drivers/r_riic/src/hld/r_riic_hld_prv.c ****     }
 323:../generate/sc_drivers/r_riic/src/hld/r_riic_hld_prv.c **** 
 324:../generate/sc_drivers/r_riic/src/hld/r_riic_hld_prv.c ****     /* return status */
 325:../generate/sc_drivers/r_riic/src/hld/r_riic_hld_prv.c ****     return (ret);
 326:../generate/sc_drivers/r_riic/src/hld/r_riic_hld_prv.c **** }
 327:../generate/sc_drivers/r_riic/src/hld/r_riic_hld_prv.c **** /******************************************************************************
 328:../generate/sc_drivers/r_riic/src/hld/r_riic_hld_prv.c ****  * End of Function riic_write
 329:../generate/sc_drivers/r_riic/src/hld/r_riic_hld_prv.c ****  ******************************************************************************/
 330:../generate/sc_drivers/r_riic/src/hld/r_riic_hld_prv.c **** 
 331:../generate/sc_drivers/r_riic/src/hld/r_riic_hld_prv.c **** /**
 332:../generate/sc_drivers/r_riic/src/hld/r_riic_hld_prv.c ****  * @brief Reads data from an already addressed device
 333:../generate/sc_drivers/r_riic/src/hld/r_riic_hld_prv.c ****  * @param[in] channel : the device specific channel number (< RIIC_CFG_LLD_NUM_CHANNELS)
 334:../generate/sc_drivers/r_riic/src/hld/r_riic_hld_prv.c ****  * @param[in] pbuffer : pointer to allocated space for data
 335:../generate/sc_drivers/r_riic/src/hld/r_riic_hld_prv.c ****  * @param[in] byte    : number of bytes to receive
 336:../generate/sc_drivers/r_riic/src/hld/r_riic_hld_prv.c ****  * @return    DRV_SUCCESS       : Success of RIIC operation
 337:../generate/sc_drivers/r_riic/src/hld/r_riic_hld_prv.c ****  *            DRV_ERROR         : Failure of RIIC operation
 338:../generate/sc_drivers/r_riic/src/hld/r_riic_hld_prv.c ****  *            DRV_ERROR : RIIC operation timed out
 339:../generate/sc_drivers/r_riic/src/hld/r_riic_hld_prv.c ****  **/
 340:../generate/sc_drivers/r_riic/src/hld/r_riic_hld_prv.c **** static int_t riic_read (int_t channel, uint8_t *pbuffer, uint32_t byte)
 341:../generate/sc_drivers/r_riic/src/hld/r_riic_hld_prv.c **** {
 342:../generate/sc_drivers/r_riic/src/hld/r_riic_hld_prv.c ****     uint8_t *p_buffer2;
 343:../generate/sc_drivers/r_riic/src/hld/r_riic_hld_prv.c ****     int_t ret;
 344:../generate/sc_drivers/r_riic/src/hld/r_riic_hld_prv.c **** 
 345:../generate/sc_drivers/r_riic/src/hld/r_riic_hld_prv.c ****     /* Ensure at least 1 byte is specified to receive */
 346:../generate/sc_drivers/r_riic/src/hld/r_riic_hld_prv.c ****     if (0 == byte)
 347:../generate/sc_drivers/r_riic/src/hld/r_riic_hld_prv.c ****     {
 348:../generate/sc_drivers/r_riic/src/hld/r_riic_hld_prv.c ****         return (DRV_SUCCESS);
 349:../generate/sc_drivers/r_riic/src/hld/r_riic_hld_prv.c ****     }
 350:../generate/sc_drivers/r_riic/src/hld/r_riic_hld_prv.c **** 
 351:../generate/sc_drivers/r_riic/src/hld/r_riic_hld_prv.c ****     p_buffer2 = pbuffer;
 352:../generate/sc_drivers/r_riic/src/hld/r_riic_hld_prv.c **** 
 353:../generate/sc_drivers/r_riic/src/hld/r_riic_hld_prv.c ****     /* 1 byte random read does not need a dummy read */
 354:../generate/sc_drivers/r_riic/src/hld/r_riic_hld_prv.c ****     if (1 == byte)
 355:../generate/sc_drivers/r_riic/src/hld/r_riic_hld_prv.c ****     {
 356:../generate/sc_drivers/r_riic/src/hld/r_riic_hld_prv.c ****         R_RIIC_AssertLowHold(channel);
 357:../generate/sc_drivers/r_riic/src/hld/r_riic_hld_prv.c **** 
 358:../generate/sc_drivers/r_riic/src/hld/r_riic_hld_prv.c ****         /* (In the case of only 1 byte) reception start */
 359:../generate/sc_drivers/r_riic/src/hld/r_riic_hld_prv.c ****         ret = riic_receive(channel, RIIC_RX_MODE_NACK, p_buffer2);
 360:../generate/sc_drivers/r_riic/src/hld/r_riic_hld_prv.c **** 
 361:../generate/sc_drivers/r_riic/src/hld/r_riic_hld_prv.c ****         if (DRV_SUCCESS != ret)
 362:../generate/sc_drivers/r_riic/src/hld/r_riic_hld_prv.c ****         {
 363:../generate/sc_drivers/r_riic/src/hld/r_riic_hld_prv.c ****             return (ret);
 364:../generate/sc_drivers/r_riic/src/hld/r_riic_hld_prv.c ****         }
 365:../generate/sc_drivers/r_riic/src/hld/r_riic_hld_prv.c **** 
 366:../generate/sc_drivers/r_riic/src/hld/r_riic_hld_prv.c ****         /* Last byte read */
 367:../generate/sc_drivers/r_riic/src/hld/r_riic_hld_prv.c ****         ret = riic_receive(channel, RIIC_RX_MODE_STOP, p_buffer2);
 368:../generate/sc_drivers/r_riic/src/hld/r_riic_hld_prv.c **** 
 369:../generate/sc_drivers/r_riic/src/hld/r_riic_hld_prv.c ****         if (DRV_SUCCESS != ret)
 370:../generate/sc_drivers/r_riic/src/hld/r_riic_hld_prv.c ****         {
 371:../generate/sc_drivers/r_riic/src/hld/r_riic_hld_prv.c ****             return (ret);
 372:../generate/sc_drivers/r_riic/src/hld/r_riic_hld_prv.c ****         }
 373:../generate/sc_drivers/r_riic/src/hld/r_riic_hld_prv.c ****     }
 374:../generate/sc_drivers/r_riic/src/hld/r_riic_hld_prv.c ****     else
 375:../generate/sc_drivers/r_riic/src/hld/r_riic_hld_prv.c ****     {
 376:../generate/sc_drivers/r_riic/src/hld/r_riic_hld_prv.c ****         /* Start reading data */
 377:../generate/sc_drivers/r_riic/src/hld/r_riic_hld_prv.c ****         /* dummy read for read trigger, p_buffer2 is written by next data */
 378:../generate/sc_drivers/r_riic/src/hld/r_riic_hld_prv.c ****         if (2 == byte)
 379:../generate/sc_drivers/r_riic/src/hld/r_riic_hld_prv.c ****         {
 380:../generate/sc_drivers/r_riic/src/hld/r_riic_hld_prv.c ****             /* set wait mode on read of the (last - 2) byte */
 381:../generate/sc_drivers/r_riic/src/hld/r_riic_hld_prv.c ****             ret = riic_receive(channel, RIIC_RX_MODE_LOW_HOLD, p_buffer2);
 382:../generate/sc_drivers/r_riic/src/hld/r_riic_hld_prv.c ****         }
 383:../generate/sc_drivers/r_riic/src/hld/r_riic_hld_prv.c ****         else
 384:../generate/sc_drivers/r_riic/src/hld/r_riic_hld_prv.c ****         {
 385:../generate/sc_drivers/r_riic/src/hld/r_riic_hld_prv.c ****             /* normal start trigger */
 386:../generate/sc_drivers/r_riic/src/hld/r_riic_hld_prv.c ****             ret = riic_receive(channel, RIIC_RX_MODE_ACK, p_buffer2);
 387:../generate/sc_drivers/r_riic/src/hld/r_riic_hld_prv.c ****         }
 388:../generate/sc_drivers/r_riic/src/hld/r_riic_hld_prv.c **** 
 389:../generate/sc_drivers/r_riic/src/hld/r_riic_hld_prv.c ****         if (DRV_SUCCESS != ret)
 390:../generate/sc_drivers/r_riic/src/hld/r_riic_hld_prv.c ****         {
 391:../generate/sc_drivers/r_riic/src/hld/r_riic_hld_prv.c ****             return (ret);
 392:../generate/sc_drivers/r_riic/src/hld/r_riic_hld_prv.c ****         }
 393:../generate/sc_drivers/r_riic/src/hld/r_riic_hld_prv.c **** 
 394:../generate/sc_drivers/r_riic/src/hld/r_riic_hld_prv.c ****         /* Reads data bytes */
 395:../generate/sc_drivers/r_riic/src/hld/r_riic_hld_prv.c ****         while (2 < byte)
 396:../generate/sc_drivers/r_riic/src/hld/r_riic_hld_prv.c ****         {
 397:../generate/sc_drivers/r_riic/src/hld/r_riic_hld_prv.c ****             if (3 == byte)
 398:../generate/sc_drivers/r_riic/src/hld/r_riic_hld_prv.c ****             {
 399:../generate/sc_drivers/r_riic/src/hld/r_riic_hld_prv.c ****                 /* set wait mode on read of the (last - 2) byte */
 400:../generate/sc_drivers/r_riic/src/hld/r_riic_hld_prv.c ****                 ret = riic_receive(channel, RIIC_RX_MODE_LOW_HOLD, p_buffer2);
 401:../generate/sc_drivers/r_riic/src/hld/r_riic_hld_prv.c ****             }
 402:../generate/sc_drivers/r_riic/src/hld/r_riic_hld_prv.c ****             else
 403:../generate/sc_drivers/r_riic/src/hld/r_riic_hld_prv.c ****             {
 404:../generate/sc_drivers/r_riic/src/hld/r_riic_hld_prv.c ****                 /* request size is 3byte or more */
 405:../generate/sc_drivers/r_riic/src/hld/r_riic_hld_prv.c ****                 ret = riic_receive(channel, RIIC_RX_MODE_ACK, p_buffer2);
 406:../generate/sc_drivers/r_riic/src/hld/r_riic_hld_prv.c ****             }
 407:../generate/sc_drivers/r_riic/src/hld/r_riic_hld_prv.c **** 
 408:../generate/sc_drivers/r_riic/src/hld/r_riic_hld_prv.c ****             if (DRV_SUCCESS != ret)
 409:../generate/sc_drivers/r_riic/src/hld/r_riic_hld_prv.c ****             {
 410:../generate/sc_drivers/r_riic/src/hld/r_riic_hld_prv.c ****                 return (ret);
 411:../generate/sc_drivers/r_riic/src/hld/r_riic_hld_prv.c ****             }
 412:../generate/sc_drivers/r_riic/src/hld/r_riic_hld_prv.c **** 
 413:../generate/sc_drivers/r_riic/src/hld/r_riic_hld_prv.c ****             p_buffer2++;
 414:../generate/sc_drivers/r_riic/src/hld/r_riic_hld_prv.c ****             byte--;
 415:../generate/sc_drivers/r_riic/src/hld/r_riic_hld_prv.c ****         }
 416:../generate/sc_drivers/r_riic/src/hld/r_riic_hld_prv.c **** 
 417:../generate/sc_drivers/r_riic/src/hld/r_riic_hld_prv.c ****         /* transfer NACK on read of the (last - 1) byte */
 418:../generate/sc_drivers/r_riic/src/hld/r_riic_hld_prv.c ****         ret = riic_receive(channel, RIIC_RX_MODE_NACK, p_buffer2);
 419:../generate/sc_drivers/r_riic/src/hld/r_riic_hld_prv.c ****         if (DRV_SUCCESS != ret)
 420:../generate/sc_drivers/r_riic/src/hld/r_riic_hld_prv.c ****         {
 421:../generate/sc_drivers/r_riic/src/hld/r_riic_hld_prv.c ****             return (ret);
 422:../generate/sc_drivers/r_riic/src/hld/r_riic_hld_prv.c ****         }
 423:../generate/sc_drivers/r_riic/src/hld/r_riic_hld_prv.c **** 
 424:../generate/sc_drivers/r_riic/src/hld/r_riic_hld_prv.c ****         p_buffer2++;
 425:../generate/sc_drivers/r_riic/src/hld/r_riic_hld_prv.c ****         byte--;
 426:../generate/sc_drivers/r_riic/src/hld/r_riic_hld_prv.c **** 
 427:../generate/sc_drivers/r_riic/src/hld/r_riic_hld_prv.c ****         if (DRV_SUCCESS == ret)
 428:../generate/sc_drivers/r_riic/src/hld/r_riic_hld_prv.c ****         {
 429:../generate/sc_drivers/r_riic/src/hld/r_riic_hld_prv.c ****             /* Data read of the last byte */
 430:../generate/sc_drivers/r_riic/src/hld/r_riic_hld_prv.c ****             ret = riic_receive(channel, RIIC_RX_MODE_STOP, p_buffer2);
 431:../generate/sc_drivers/r_riic/src/hld/r_riic_hld_prv.c ****         }
 432:../generate/sc_drivers/r_riic/src/hld/r_riic_hld_prv.c ****     }
 433:../generate/sc_drivers/r_riic/src/hld/r_riic_hld_prv.c **** 
 434:../generate/sc_drivers/r_riic/src/hld/r_riic_hld_prv.c ****     /* Process next Read */
 435:../generate/sc_drivers/r_riic/src/hld/r_riic_hld_prv.c ****     R_RIIC_ReleaseLowHold(channel);
 436:../generate/sc_drivers/r_riic/src/hld/r_riic_hld_prv.c **** 
 437:../generate/sc_drivers/r_riic/src/hld/r_riic_hld_prv.c ****     if (DRV_SUCCESS == ret)
 438:../generate/sc_drivers/r_riic/src/hld/r_riic_hld_prv.c ****     {
 439:../generate/sc_drivers/r_riic/src/hld/r_riic_hld_prv.c ****         /* Stop condition detection confirmation */
 440:../generate/sc_drivers/r_riic/src/hld/r_riic_hld_prv.c ****         ret = wait_stop(channel);
 441:../generate/sc_drivers/r_riic/src/hld/r_riic_hld_prv.c ****     }
 442:../generate/sc_drivers/r_riic/src/hld/r_riic_hld_prv.c **** 
 443:../generate/sc_drivers/r_riic/src/hld/r_riic_hld_prv.c ****     return (ret);
 444:../generate/sc_drivers/r_riic/src/hld/r_riic_hld_prv.c **** }
 445:../generate/sc_drivers/r_riic/src/hld/r_riic_hld_prv.c **** /******************************************************************************
 446:../generate/sc_drivers/r_riic/src/hld/r_riic_hld_prv.c ****  * End of Function riic_read
 447:../generate/sc_drivers/r_riic/src/hld/r_riic_hld_prv.c ****  ******************************************************************************/
 448:../generate/sc_drivers/r_riic/src/hld/r_riic_hld_prv.c **** 
 449:../generate/sc_drivers/r_riic/src/hld/r_riic_hld_prv.c **** /**
 450:../generate/sc_drivers/r_riic/src/hld/r_riic_hld_prv.c ****  * @brief Receive data (single byte)
 451:../generate/sc_drivers/r_riic/src/hld/r_riic_hld_prv.c ****  * @param[in] channel : the device specific channel number (< RIIC_CFG_LLD_NUM_CHANNELS)
 452:../generate/sc_drivers/r_riic/src/hld/r_riic_hld_prv.c ****  * @param[in] mode  : receive mode
 453:../generate/sc_drivers/r_riic/src/hld/r_riic_hld_prv.c ****  *                  : RIIC_RX_MODE_NORMAL: Normal mode
 454:../generate/sc_drivers/r_riic/src/hld/r_riic_hld_prv.c ****  *                  : RIIC_RX_MODE_ACK: ACK mode
 455:../generate/sc_drivers/r_riic/src/hld/r_riic_hld_prv.c ****  *                  : RIIC_RX_MODE_LOW_HOLD: Low hold mode
 456:../generate/sc_drivers/r_riic/src/hld/r_riic_hld_prv.c ****  *                  : RIIC_RX_MODE_NACK: NACK mode
 457:../generate/sc_drivers/r_riic/src/hld/r_riic_hld_prv.c ****  *                  : RIIC_RX_MODE_STOP: Stop condition mode
 458:../generate/sc_drivers/r_riic/src/hld/r_riic_hld_prv.c ****  *            pdata : received data
 459:../generate/sc_drivers/r_riic/src/hld/r_riic_hld_prv.c ****  * @return    DRV_SUCCESS         : Success of RIIC operation
 460:../generate/sc_drivers/r_riic/src/hld/r_riic_hld_prv.c ****  *            DRV_ERROR   : RIIC operation timed out
 461:../generate/sc_drivers/r_riic/src/hld/r_riic_hld_prv.c ****  **/
 462:../generate/sc_drivers/r_riic/src/hld/r_riic_hld_prv.c **** static int_t riic_receive (int_t channel, e_riic_rx_mode_t mode, uint8_t *pdata)
 463:../generate/sc_drivers/r_riic/src/hld/r_riic_hld_prv.c **** {
 464:../generate/sc_drivers/r_riic/src/hld/r_riic_hld_prv.c ****     int_t ret;
 465:../generate/sc_drivers/r_riic/src/hld/r_riic_hld_prv.c **** 
 466:../generate/sc_drivers/r_riic/src/hld/r_riic_hld_prv.c ****     /* Wait until Receive data full conditions and clear receive-data-full
 467:../generate/sc_drivers/r_riic/src/hld/r_riic_hld_prv.c ****      condition have been satisfied */
 468:../generate/sc_drivers/r_riic/src/hld/r_riic_hld_prv.c ****     ret = wait_rx_full(channel);
 469:../generate/sc_drivers/r_riic/src/hld/r_riic_hld_prv.c **** 
 470:../generate/sc_drivers/r_riic/src/hld/r_riic_hld_prv.c ****     if (DRV_SUCCESS == ret)
 471:../generate/sc_drivers/r_riic/src/hld/r_riic_hld_prv.c ****     {
 472:../generate/sc_drivers/r_riic/src/hld/r_riic_hld_prv.c ****         /* reset rx full flag prior to reception */
 473:../generate/sc_drivers/r_riic/src/hld/r_riic_hld_prv.c ****         gs_riic_receive_full_flg[channel] = DRV_FLAG_OFF_PRV_;
 474:../generate/sc_drivers/r_riic/src/hld/r_riic_hld_prv.c **** 
 475:../generate/sc_drivers/r_riic/src/hld/r_riic_hld_prv.c ****         switch (mode)
 476:../generate/sc_drivers/r_riic/src/hld/r_riic_hld_prv.c ****         {
 477:../generate/sc_drivers/r_riic/src/hld/r_riic_hld_prv.c ****             case RIIC_RX_MODE_ACK:
 478:../generate/sc_drivers/r_riic/src/hld/r_riic_hld_prv.c ****             {
 479:../generate/sc_drivers/r_riic/src/hld/r_riic_hld_prv.c ****                 /* send ACK */
 480:../generate/sc_drivers/r_riic/src/hld/r_riic_hld_prv.c ****                 R_RIIC_TransmitAck(channel);
 481:../generate/sc_drivers/r_riic/src/hld/r_riic_hld_prv.c ****             }
 482:../generate/sc_drivers/r_riic/src/hld/r_riic_hld_prv.c ****             break;
 483:../generate/sc_drivers/r_riic/src/hld/r_riic_hld_prv.c **** 
 484:../generate/sc_drivers/r_riic/src/hld/r_riic_hld_prv.c ****             case RIIC_RX_MODE_LOW_HOLD:
 485:../generate/sc_drivers/r_riic/src/hld/r_riic_hld_prv.c ****             {
 486:../generate/sc_drivers/r_riic/src/hld/r_riic_hld_prv.c ****                 /* Period between ninth clock cycle and first
 487:../generate/sc_drivers/r_riic/src/hld/r_riic_hld_prv.c ****                  * clock cycle is held low */
 488:../generate/sc_drivers/r_riic/src/hld/r_riic_hld_prv.c ****                 R_RIIC_AssertLowHold(channel);
 489:../generate/sc_drivers/r_riic/src/hld/r_riic_hld_prv.c ****             }
 490:../generate/sc_drivers/r_riic/src/hld/r_riic_hld_prv.c ****             break;
 491:../generate/sc_drivers/r_riic/src/hld/r_riic_hld_prv.c **** 
 492:../generate/sc_drivers/r_riic/src/hld/r_riic_hld_prv.c ****             case RIIC_RX_MODE_NACK:
 493:../generate/sc_drivers/r_riic/src/hld/r_riic_hld_prv.c ****             {
 494:../generate/sc_drivers/r_riic/src/hld/r_riic_hld_prv.c ****                 /* send NACK */
 495:../generate/sc_drivers/r_riic/src/hld/r_riic_hld_prv.c ****                 R_RIIC_TransmitNack(channel);
 496:../generate/sc_drivers/r_riic/src/hld/r_riic_hld_prv.c ****             }
 497:../generate/sc_drivers/r_riic/src/hld/r_riic_hld_prv.c ****             break;
 498:../generate/sc_drivers/r_riic/src/hld/r_riic_hld_prv.c **** 
 499:../generate/sc_drivers/r_riic/src/hld/r_riic_hld_prv.c ****             case RIIC_RX_MODE_STOP:
 500:../generate/sc_drivers/r_riic/src/hld/r_riic_hld_prv.c ****             {
 501:../generate/sc_drivers/r_riic/src/hld/r_riic_hld_prv.c ****                 gs_riic_stop_flg[channel] = DRV_FLAG_OFF_PRV_;
 502:../generate/sc_drivers/r_riic/src/hld/r_riic_hld_prv.c **** 
 503:../generate/sc_drivers/r_riic/src/hld/r_riic_hld_prv.c ****                 /* Stop condition request */
 504:../generate/sc_drivers/r_riic/src/hld/r_riic_hld_prv.c ****                 R_RIIC_TransmitStop(channel);
 505:../generate/sc_drivers/r_riic/src/hld/r_riic_hld_prv.c ****             }
 506:../generate/sc_drivers/r_riic/src/hld/r_riic_hld_prv.c ****             break;
 507:../generate/sc_drivers/r_riic/src/hld/r_riic_hld_prv.c ****             case RIIC_RX_MODE_NORMAL:
 508:../generate/sc_drivers/r_riic/src/hld/r_riic_hld_prv.c ****             {
 509:../generate/sc_drivers/r_riic/src/hld/r_riic_hld_prv.c ****                 /* Do Nothing */
 510:../generate/sc_drivers/r_riic/src/hld/r_riic_hld_prv.c ****                 ret = DRV_SUCCESS;
 511:../generate/sc_drivers/r_riic/src/hld/r_riic_hld_prv.c ****             }
 512:../generate/sc_drivers/r_riic/src/hld/r_riic_hld_prv.c ****             break;
 513:../generate/sc_drivers/r_riic/src/hld/r_riic_hld_prv.c ****             default:
 514:../generate/sc_drivers/r_riic/src/hld/r_riic_hld_prv.c ****             {
 515:../generate/sc_drivers/r_riic/src/hld/r_riic_hld_prv.c ****                 /* Invalid selection */
 516:../generate/sc_drivers/r_riic/src/hld/r_riic_hld_prv.c ****                 ret = DRV_ERROR;
 517:../generate/sc_drivers/r_riic/src/hld/r_riic_hld_prv.c ****             }
 518:../generate/sc_drivers/r_riic/src/hld/r_riic_hld_prv.c ****             break;
 519:../generate/sc_drivers/r_riic/src/hld/r_riic_hld_prv.c ****         }
 520:../generate/sc_drivers/r_riic/src/hld/r_riic_hld_prv.c **** 
 521:../generate/sc_drivers/r_riic/src/hld/r_riic_hld_prv.c ****         /* Read data from wire */
 522:../generate/sc_drivers/r_riic/src/hld/r_riic_hld_prv.c ****         ( *pdata) = R_RIIC_ReadByte(channel);
 523:../generate/sc_drivers/r_riic/src/hld/r_riic_hld_prv.c ****     }
 524:../generate/sc_drivers/r_riic/src/hld/r_riic_hld_prv.c **** 
 525:../generate/sc_drivers/r_riic/src/hld/r_riic_hld_prv.c ****     /* report status */
 526:../generate/sc_drivers/r_riic/src/hld/r_riic_hld_prv.c ****     return (ret);
 527:../generate/sc_drivers/r_riic/src/hld/r_riic_hld_prv.c **** }
 528:../generate/sc_drivers/r_riic/src/hld/r_riic_hld_prv.c **** /*******************************************************************************
 529:../generate/sc_drivers/r_riic/src/hld/r_riic_hld_prv.c ****  End of function riic_receive
 530:../generate/sc_drivers/r_riic/src/hld/r_riic_hld_prv.c ****  *******************************************************************************/
 531:../generate/sc_drivers/r_riic/src/hld/r_riic_hld_prv.c **** 
 532:../generate/sc_drivers/r_riic/src/hld/r_riic_hld_prv.c **** /**
 533:../generate/sc_drivers/r_riic/src/hld/r_riic_hld_prv.c ****  * @brief Transmit data (single byte)
 534:../generate/sc_drivers/r_riic/src/hld/r_riic_hld_prv.c ****  * @param[in] channel : the device specific channel number (< RIIC_CFG_LLD_NUM_CHANNELS)
 535:../generate/sc_drivers/r_riic/src/hld/r_riic_hld_prv.c ****  * @param[in] data    : data to transmit
 536:../generate/sc_drivers/r_riic/src/hld/r_riic_hld_prv.c ****  * @return    DRV_SUCCESS         : Success of RIIC operation
 537:../generate/sc_drivers/r_riic/src/hld/r_riic_hld_prv.c ****  *            DRV_ERROR           : Failure of RIIC operation
 538:../generate/sc_drivers/r_riic/src/hld/r_riic_hld_prv.c ****  *            DRV_ERROR   : RIIC operation timed out
 539:../generate/sc_drivers/r_riic/src/hld/r_riic_hld_prv.c ****  **/
 540:../generate/sc_drivers/r_riic/src/hld/r_riic_hld_prv.c **** static int_t riic_transmit (int_t channel, uint8_t data)
 541:../generate/sc_drivers/r_riic/src/hld/r_riic_hld_prv.c **** {
 542:../generate/sc_drivers/r_riic/src/hld/r_riic_hld_prv.c ****     int_t ret = DRV_ERROR;
 543:../generate/sc_drivers/r_riic/src/hld/r_riic_hld_prv.c **** 
 544:../generate/sc_drivers/r_riic/src/hld/r_riic_hld_prv.c ****     /* test for ACK */
 545:../generate/sc_drivers/r_riic/src/hld/r_riic_hld_prv.c ****     if (DRV_FLAG_OFF_PRV_ == gs_riic_nack_flg[channel])
 546:../generate/sc_drivers/r_riic/src/hld/r_riic_hld_prv.c ****     {
 547:../generate/sc_drivers/r_riic/src/hld/r_riic_hld_prv.c ****         /* ACK received */
 548:../generate/sc_drivers/r_riic/src/hld/r_riic_hld_prv.c ****         ret = DRV_SUCCESS;
 549:../generate/sc_drivers/r_riic/src/hld/r_riic_hld_prv.c ****     }
 550:../generate/sc_drivers/r_riic/src/hld/r_riic_hld_prv.c ****     else
 551:../generate/sc_drivers/r_riic/src/hld/r_riic_hld_prv.c ****     {
 552:../generate/sc_drivers/r_riic/src/hld/r_riic_hld_prv.c ****         /* NACK */
 553:../generate/sc_drivers/r_riic/src/hld/r_riic_hld_prv.c **** 
 554:../generate/sc_drivers/r_riic/src/hld/r_riic_hld_prv.c ****         /* reset flag */
 555:../generate/sc_drivers/r_riic/src/hld/r_riic_hld_prv.c ****         gs_riic_nack_flg[channel] = DRV_FLAG_OFF_PRV_;
 556:../generate/sc_drivers/r_riic/src/hld/r_riic_hld_prv.c ****         ret = DRV_ERROR;
 557:../generate/sc_drivers/r_riic/src/hld/r_riic_hld_prv.c ****     }
 558:../generate/sc_drivers/r_riic/src/hld/r_riic_hld_prv.c **** 
 559:../generate/sc_drivers/r_riic/src/hld/r_riic_hld_prv.c ****     if (DRV_SUCCESS == ret)
 560:../generate/sc_drivers/r_riic/src/hld/r_riic_hld_prv.c ****     {
 561:../generate/sc_drivers/r_riic/src/hld/r_riic_hld_prv.c ****         /* ensure no current traffic on bus */
 562:../generate/sc_drivers/r_riic/src/hld/r_riic_hld_prv.c ****         ret = wait_tx_empty(channel);
 563:../generate/sc_drivers/r_riic/src/hld/r_riic_hld_prv.c **** 
 564:../generate/sc_drivers/r_riic/src/hld/r_riic_hld_prv.c ****         if (DRV_SUCCESS == ret)
 565:../generate/sc_drivers/r_riic/src/hld/r_riic_hld_prv.c ****         {
 566:../generate/sc_drivers/r_riic/src/hld/r_riic_hld_prv.c ****             /* clear tx empty flag prior to tx */
 567:../generate/sc_drivers/r_riic/src/hld/r_riic_hld_prv.c ****             gs_riic_transmit_empty_flg[channel] = DRV_FLAG_OFF_PRV_;
 568:../generate/sc_drivers/r_riic/src/hld/r_riic_hld_prv.c **** 
 569:../generate/sc_drivers/r_riic/src/hld/r_riic_hld_prv.c ****             /* Write data to wire */
 570:../generate/sc_drivers/r_riic/src/hld/r_riic_hld_prv.c ****             R_RIIC_WriteByte(channel, data);
 571:../generate/sc_drivers/r_riic/src/hld/r_riic_hld_prv.c ****         }
 572:../generate/sc_drivers/r_riic/src/hld/r_riic_hld_prv.c ****     }
 573:../generate/sc_drivers/r_riic/src/hld/r_riic_hld_prv.c **** 
 574:../generate/sc_drivers/r_riic/src/hld/r_riic_hld_prv.c ****     return (ret);
 575:../generate/sc_drivers/r_riic/src/hld/r_riic_hld_prv.c **** }
 576:../generate/sc_drivers/r_riic/src/hld/r_riic_hld_prv.c **** /*******************************************************************************
 577:../generate/sc_drivers/r_riic/src/hld/r_riic_hld_prv.c ****  End of function riic_transmit
 578:../generate/sc_drivers/r_riic/src/hld/r_riic_hld_prv.c ****  *******************************************************************************/
 579:../generate/sc_drivers/r_riic/src/hld/r_riic_hld_prv.c **** 
 580:../generate/sc_drivers/r_riic/src/hld/r_riic_hld_prv.c **** /**
 581:../generate/sc_drivers/r_riic/src/hld/r_riic_hld_prv.c ****  * @brief Make the request to issue a start condition for the selected channel
 582:../generate/sc_drivers/r_riic/src/hld/r_riic_hld_prv.c ****  *        Perform the following sequence of actions
 583:../generate/sc_drivers/r_riic/src/hld/r_riic_hld_prv.c ****  *              1: Wait till bus is free
 584:../generate/sc_drivers/r_riic/src/hld/r_riic_hld_prv.c ****  *              2: Clear Receive data full flag
 585:../generate/sc_drivers/r_riic/src/hld/r_riic_hld_prv.c ****  *              3: Clear transmit end flag
 586:../generate/sc_drivers/r_riic/src/hld/r_riic_hld_prv.c ****  *              4: Clear transmit-data-empty flag
 587:../generate/sc_drivers/r_riic/src/hld/r_riic_hld_prv.c ****  *              5: Request to issue a start condition
 588:../generate/sc_drivers/r_riic/src/hld/r_riic_hld_prv.c ****  * @param[in] channel   : the device specific channel number (< RIIC_CFG_LLD_NUM_CHANNELS)
 589:../generate/sc_drivers/r_riic/src/hld/r_riic_hld_prv.c ****  * @return    DRV_SUCCESS         : Success of RIIC operation
 590:../generate/sc_drivers/r_riic/src/hld/r_riic_hld_prv.c ****  *            DRV_ERROR           : Failure of RIIC operation
 591:../generate/sc_drivers/r_riic/src/hld/r_riic_hld_prv.c ****  **/
 592:../generate/sc_drivers/r_riic/src/hld/r_riic_hld_prv.c **** static int_t transmit_start (int_t channel)
 593:../generate/sc_drivers/r_riic/src/hld/r_riic_hld_prv.c **** {
 594:../generate/sc_drivers/r_riic/src/hld/r_riic_hld_prv.c ****     /* Wait for the bus to be free */
 595:../generate/sc_drivers/r_riic/src/hld/r_riic_hld_prv.c ****     int_t ret = wait_bus_master(channel, RIIC_BUS_MASTERSHIP_WAIT_FREE);
 596:../generate/sc_drivers/r_riic/src/hld/r_riic_hld_prv.c **** 
 597:../generate/sc_drivers/r_riic/src/hld/r_riic_hld_prv.c ****     /* Start timing for operation */
 598:../generate/sc_drivers/r_riic/src/hld/r_riic_hld_prv.c ****     start_timeout_monitor(channel);
 599:../generate/sc_drivers/r_riic/src/hld/r_riic_hld_prv.c **** 
 600:../generate/sc_drivers/r_riic/src/hld/r_riic_hld_prv.c ****     if (DRV_SUCCESS == ret)
 601:../generate/sc_drivers/r_riic/src/hld/r_riic_hld_prv.c ****     {
 602:../generate/sc_drivers/r_riic/src/hld/r_riic_hld_prv.c ****         /* reset flags */
 603:../generate/sc_drivers/r_riic/src/hld/r_riic_hld_prv.c ****         gs_riic_receive_full_flg[channel] = DRV_FLAG_OFF_PRV_;
 604:../generate/sc_drivers/r_riic/src/hld/r_riic_hld_prv.c ****         gs_riic_transmit_empty_flg[channel] = DRV_FLAG_OFF_PRV_;
 605:../generate/sc_drivers/r_riic/src/hld/r_riic_hld_prv.c ****         gs_riic_transmit_end_flg[channel] = DRV_FLAG_OFF_PRV_;
 606:../generate/sc_drivers/r_riic/src/hld/r_riic_hld_prv.c **** 
 607:../generate/sc_drivers/r_riic/src/hld/r_riic_hld_prv.c ****         /* initiate start condition */
 608:../generate/sc_drivers/r_riic/src/hld/r_riic_hld_prv.c ****         R_RIIC_TransmitStart(channel);
 609:../generate/sc_drivers/r_riic/src/hld/r_riic_hld_prv.c ****     }
 610:../generate/sc_drivers/r_riic/src/hld/r_riic_hld_prv.c **** 
 611:../generate/sc_drivers/r_riic/src/hld/r_riic_hld_prv.c ****     /* report status */
 612:../generate/sc_drivers/r_riic/src/hld/r_riic_hld_prv.c ****     return (ret);
 613:../generate/sc_drivers/r_riic/src/hld/r_riic_hld_prv.c **** }
 614:../generate/sc_drivers/r_riic/src/hld/r_riic_hld_prv.c **** /*******************************************************************************
 615:../generate/sc_drivers/r_riic/src/hld/r_riic_hld_prv.c ****  End of function transmit_start
 616:../generate/sc_drivers/r_riic/src/hld/r_riic_hld_prv.c ****  *******************************************************************************/
 617:../generate/sc_drivers/r_riic/src/hld/r_riic_hld_prv.c **** 
 618:../generate/sc_drivers/r_riic/src/hld/r_riic_hld_prv.c **** /**
 619:../generate/sc_drivers/r_riic/src/hld/r_riic_hld_prv.c ****  * @brief Make the request to issue a restart condition for the selected channel.
 620:../generate/sc_drivers/r_riic/src/hld/r_riic_hld_prv.c ****  *        Perform the following sequence of actions
 621:../generate/sc_drivers/r_riic/src/hld/r_riic_hld_prv.c ****  *              1: Wait till bus is busy
 622:../generate/sc_drivers/r_riic/src/hld/r_riic_hld_prv.c ****  *              2: Clear Receive data full flag
 623:../generate/sc_drivers/r_riic/src/hld/r_riic_hld_prv.c ****  *              3: Clear transmit end flag
 624:../generate/sc_drivers/r_riic/src/hld/r_riic_hld_prv.c ****  *              4: Clear transmit-data-empty flag
 625:../generate/sc_drivers/r_riic/src/hld/r_riic_hld_prv.c ****  *              5: Request to issue a restart condition
 626:../generate/sc_drivers/r_riic/src/hld/r_riic_hld_prv.c ****  * @param[in] channel   : the device specific channel number (< RIIC_CFG_LLD_NUM_CHANNELS)
 627:../generate/sc_drivers/r_riic/src/hld/r_riic_hld_prv.c ****  * @return    DRV_SUCCESS         : Success of RIIC operation
 628:../generate/sc_drivers/r_riic/src/hld/r_riic_hld_prv.c ****  *            DRV_ERROR           : Failure of RIIC operation
 629:../generate/sc_drivers/r_riic/src/hld/r_riic_hld_prv.c ****  **/
 630:../generate/sc_drivers/r_riic/src/hld/r_riic_hld_prv.c **** static int_t transmit_restart (int_t channel)
 631:../generate/sc_drivers/r_riic/src/hld/r_riic_hld_prv.c **** {
 632:../generate/sc_drivers/r_riic/src/hld/r_riic_hld_prv.c ****     /* Wait for the bus to be busy */
 633:../generate/sc_drivers/r_riic/src/hld/r_riic_hld_prv.c ****     int_t ret = wait_bus_master(channel, RIIC_BUS_MASTERSHIP_WAIT_BUSY);
 634:../generate/sc_drivers/r_riic/src/hld/r_riic_hld_prv.c **** 
 635:../generate/sc_drivers/r_riic/src/hld/r_riic_hld_prv.c ****     /* Start timing for operation */
 636:../generate/sc_drivers/r_riic/src/hld/r_riic_hld_prv.c ****     start_timeout_monitor(channel);
 637:../generate/sc_drivers/r_riic/src/hld/r_riic_hld_prv.c **** 
 638:../generate/sc_drivers/r_riic/src/hld/r_riic_hld_prv.c ****     if (DRV_SUCCESS == ret)
 639:../generate/sc_drivers/r_riic/src/hld/r_riic_hld_prv.c ****     {
 640:../generate/sc_drivers/r_riic/src/hld/r_riic_hld_prv.c ****         /* reset flags */
 641:../generate/sc_drivers/r_riic/src/hld/r_riic_hld_prv.c ****         gs_riic_receive_full_flg[channel] = DRV_FLAG_OFF_PRV_;
 642:../generate/sc_drivers/r_riic/src/hld/r_riic_hld_prv.c ****         gs_riic_transmit_empty_flg[channel] = DRV_FLAG_OFF_PRV_;
 643:../generate/sc_drivers/r_riic/src/hld/r_riic_hld_prv.c ****         gs_riic_transmit_end_flg[channel] = DRV_FLAG_OFF_PRV_;
 644:../generate/sc_drivers/r_riic/src/hld/r_riic_hld_prv.c **** 
 645:../generate/sc_drivers/r_riic/src/hld/r_riic_hld_prv.c ****         /* set restart condition on bus */
 646:../generate/sc_drivers/r_riic/src/hld/r_riic_hld_prv.c ****         R_RIIC_TransmitRestart(channel);
 647:../generate/sc_drivers/r_riic/src/hld/r_riic_hld_prv.c ****     }
 648:../generate/sc_drivers/r_riic/src/hld/r_riic_hld_prv.c **** 
 649:../generate/sc_drivers/r_riic/src/hld/r_riic_hld_prv.c ****     return (ret);
 650:../generate/sc_drivers/r_riic/src/hld/r_riic_hld_prv.c **** }
 651:../generate/sc_drivers/r_riic/src/hld/r_riic_hld_prv.c **** /*******************************************************************************
 652:../generate/sc_drivers/r_riic/src/hld/r_riic_hld_prv.c ****  End of function transmit_restart
 653:../generate/sc_drivers/r_riic/src/hld/r_riic_hld_prv.c ****  *******************************************************************************/
 654:../generate/sc_drivers/r_riic/src/hld/r_riic_hld_prv.c **** 
 655:../generate/sc_drivers/r_riic/src/hld/r_riic_hld_prv.c **** /**
 656:../generate/sc_drivers/r_riic/src/hld/r_riic_hld_prv.c ****  * @brief Read data from device
 657:../generate/sc_drivers/r_riic/src/hld/r_riic_hld_prv.c ****  * @param[in] channel   : the device specific channel number (< RIIC_CFG_LLD_NUM_CHANNELS)
 658:../generate/sc_drivers/r_riic/src/hld/r_riic_hld_prv.c ****  * @param[in] p_transfer          : pointer to transfer parameters
 659:../generate/sc_drivers/r_riic/src/hld/r_riic_hld_prv.c ****  * @return    DRV_SUCCESS         : Success of RIIC operation
 660:../generate/sc_drivers/r_riic/src/hld/r_riic_hld_prv.c ****  *            DRV_ERROR           : Failure of RIIC operation
 661:../generate/sc_drivers/r_riic/src/hld/r_riic_hld_prv.c ****  **/
 662:../generate/sc_drivers/r_riic/src/hld/r_riic_hld_prv.c **** int_t read_data (int_t channel, st_r_drv_riic_transfer_t *p_transfer)
 663:../generate/sc_drivers/r_riic/src/hld/r_riic_hld_prv.c **** {
 664:../generate/sc_drivers/r_riic/src/hld/r_riic_hld_prv.c ****     int_t ret = DRV_ERROR;
 665:../generate/sc_drivers/r_riic/src/hld/r_riic_hld_prv.c ****     uint8_t pw_buffer[10];
 666:../generate/sc_drivers/r_riic/src/hld/r_riic_hld_prv.c ****     uint8_t buffer_count = 0u;
 667:../generate/sc_drivers/r_riic/src/hld/r_riic_hld_prv.c **** 
 668:../generate/sc_drivers/r_riic/src/hld/r_riic_hld_prv.c ****     /* ensure that channel is valid */
 669:../generate/sc_drivers/r_riic/src/hld/r_riic_hld_prv.c ****     ret = validate_channel(channel);
 670:../generate/sc_drivers/r_riic/src/hld/r_riic_hld_prv.c **** 
 671:../generate/sc_drivers/r_riic/src/hld/r_riic_hld_prv.c ****     if (RIIC_SUB_ADDR_MAX <= p_transfer->sub_address_type)
 672:../generate/sc_drivers/r_riic/src/hld/r_riic_hld_prv.c ****     {
 673:../generate/sc_drivers/r_riic/src/hld/r_riic_hld_prv.c ****         /* unrecognised sub-address mode */
 674:../generate/sc_drivers/r_riic/src/hld/r_riic_hld_prv.c ****         ret = DRV_ERROR;
 675:../generate/sc_drivers/r_riic/src/hld/r_riic_hld_prv.c ****     }
 676:../generate/sc_drivers/r_riic/src/hld/r_riic_hld_prv.c **** 
 677:../generate/sc_drivers/r_riic/src/hld/r_riic_hld_prv.c ****     /* Construct header to send sub address (if required) to device & start operation */
 678:../generate/sc_drivers/r_riic/src/hld/r_riic_hld_prv.c ****     if (DRV_SUCCESS == ret)
 679:../generate/sc_drivers/r_riic/src/hld/r_riic_hld_prv.c ****     {
 680:../generate/sc_drivers/r_riic/src/hld/r_riic_hld_prv.c ****         if (RIIC_SUB_ADDR_NONE != p_transfer->sub_address_type)
 681:../generate/sc_drivers/r_riic/src/hld/r_riic_hld_prv.c ****         {
 682:../generate/sc_drivers/r_riic/src/hld/r_riic_hld_prv.c ****             /* Adding device addressing and write control (for sub-address) */
 683:../generate/sc_drivers/r_riic/src/hld/r_riic_hld_prv.c ****             pw_buffer[buffer_count++] =
 684:../generate/sc_drivers/r_riic/src/hld/r_riic_hld_prv.c ****                     (uint8_t) (p_transfer->device_address & ((uint8_t) ( ~SAMPLE_RIIC_RWCODE_PRV_))
 685:../generate/sc_drivers/r_riic/src/hld/r_riic_hld_prv.c **** 
 686:../generate/sc_drivers/r_riic/src/hld/r_riic_hld_prv.c ****             /* Note that 10-bit addressing mode would add an extra byte here to hold the address LS
 687:../generate/sc_drivers/r_riic/src/hld/r_riic_hld_prv.c ****         }
 688:../generate/sc_drivers/r_riic/src/hld/r_riic_hld_prv.c **** 
 689:../generate/sc_drivers/r_riic/src/hld/r_riic_hld_prv.c ****         if (RIIC_SUB_ADDR_WIDTH_8_BITS == p_transfer->sub_address_type)
 690:../generate/sc_drivers/r_riic/src/hld/r_riic_hld_prv.c ****         {
 691:../generate/sc_drivers/r_riic/src/hld/r_riic_hld_prv.c ****             /* 8-bit address to be provided */
 692:../generate/sc_drivers/r_riic/src/hld/r_riic_hld_prv.c ****             pw_buffer[buffer_count++] = (uint8_t) (p_transfer->sub_address & 0x00ff);
 693:../generate/sc_drivers/r_riic/src/hld/r_riic_hld_prv.c ****         }
 694:../generate/sc_drivers/r_riic/src/hld/r_riic_hld_prv.c **** 
 695:../generate/sc_drivers/r_riic/src/hld/r_riic_hld_prv.c ****         if (RIIC_SUB_ADDR_WIDTH_16_BITS == p_transfer->sub_address_type)
 696:../generate/sc_drivers/r_riic/src/hld/r_riic_hld_prv.c ****         {
 697:../generate/sc_drivers/r_riic/src/hld/r_riic_hld_prv.c ****             /* 16-bit address to be provided */
 698:../generate/sc_drivers/r_riic/src/hld/r_riic_hld_prv.c **** 
 699:../generate/sc_drivers/r_riic/src/hld/r_riic_hld_prv.c ****             /* Adding sub-address MSB */
 700:../generate/sc_drivers/r_riic/src/hld/r_riic_hld_prv.c ****             pw_buffer[buffer_count++] = (uint8_t) (p_transfer->sub_address >> 8);
 701:../generate/sc_drivers/r_riic/src/hld/r_riic_hld_prv.c **** 
 702:../generate/sc_drivers/r_riic/src/hld/r_riic_hld_prv.c ****             /* Adding sub-address LSB */
 703:../generate/sc_drivers/r_riic/src/hld/r_riic_hld_prv.c ****             pw_buffer[buffer_count++] = (uint8_t) (p_transfer->sub_address & 0x00ff);
 704:../generate/sc_drivers/r_riic/src/hld/r_riic_hld_prv.c ****         }
 705:../generate/sc_drivers/r_riic/src/hld/r_riic_hld_prv.c **** 
 706:../generate/sc_drivers/r_riic/src/hld/r_riic_hld_prv.c ****         if (RIIC_SUB_ADDR_WIDTH_32_BITS == p_transfer->sub_address_type)
 707:../generate/sc_drivers/r_riic/src/hld/r_riic_hld_prv.c ****         {
 708:../generate/sc_drivers/r_riic/src/hld/r_riic_hld_prv.c ****             /* 32-bit address to be provided */
 709:../generate/sc_drivers/r_riic/src/hld/r_riic_hld_prv.c **** 
 710:../generate/sc_drivers/r_riic/src/hld/r_riic_hld_prv.c ****             /* Adding slave sub-address MSB */
 711:../generate/sc_drivers/r_riic/src/hld/r_riic_hld_prv.c ****             pw_buffer[buffer_count++] = (uint8_t) (p_transfer->sub_address >> 24);
 712:../generate/sc_drivers/r_riic/src/hld/r_riic_hld_prv.c **** 
 713:../generate/sc_drivers/r_riic/src/hld/r_riic_hld_prv.c ****             /* Adding slave sub-address 3rd byte */
 714:../generate/sc_drivers/r_riic/src/hld/r_riic_hld_prv.c ****             pw_buffer[buffer_count++] = (uint8_t) (p_transfer->sub_address >> 16);
 715:../generate/sc_drivers/r_riic/src/hld/r_riic_hld_prv.c **** 
 716:../generate/sc_drivers/r_riic/src/hld/r_riic_hld_prv.c ****             /* Adding sub-address 2nd byte */
 717:../generate/sc_drivers/r_riic/src/hld/r_riic_hld_prv.c ****             pw_buffer[buffer_count++] = (uint8_t) (p_transfer->sub_address >> 8);
 718:../generate/sc_drivers/r_riic/src/hld/r_riic_hld_prv.c **** 
 719:../generate/sc_drivers/r_riic/src/hld/r_riic_hld_prv.c ****             /* Adding sub-address LSB */
 720:../generate/sc_drivers/r_riic/src/hld/r_riic_hld_prv.c ****             pw_buffer[buffer_count++] = (uint8_t) (p_transfer->sub_address & 0x00ff);
 721:../generate/sc_drivers/r_riic/src/hld/r_riic_hld_prv.c ****         }
 722:../generate/sc_drivers/r_riic/src/hld/r_riic_hld_prv.c **** 
 723:../generate/sc_drivers/r_riic/src/hld/r_riic_hld_prv.c ****         /* Setting slave device address and read control */
 724:../generate/sc_drivers/r_riic/src/hld/r_riic_hld_prv.c ****         pw_buffer[buffer_count++] = (uint8_t) (p_transfer->device_address | ((uint8_t) SAMPLE_RIIC_
 725:../generate/sc_drivers/r_riic/src/hld/r_riic_hld_prv.c **** 
 726:../generate/sc_drivers/r_riic/src/hld/r_riic_hld_prv.c ****         /* Note that 10-bit addressing mode would add an extra byte here to hold the address LSB */
 727:../generate/sc_drivers/r_riic/src/hld/r_riic_hld_prv.c ****     }
 728:../generate/sc_drivers/r_riic/src/hld/r_riic_hld_prv.c **** 
 729:../generate/sc_drivers/r_riic/src/hld/r_riic_hld_prv.c ****     if (DRV_SUCCESS == ret)
 730:../generate/sc_drivers/r_riic/src/hld/r_riic_hld_prv.c ****     {
 731:../generate/sc_drivers/r_riic/src/hld/r_riic_hld_prv.c ****         /* wait for bus to be free */
 732:../generate/sc_drivers/r_riic/src/hld/r_riic_hld_prv.c ****         ret = wait_bus_master(channel, RIIC_BUS_MASTERSHIP_WAIT_FREE);
 733:../generate/sc_drivers/r_riic/src/hld/r_riic_hld_prv.c ****     }
 734:../generate/sc_drivers/r_riic/src/hld/r_riic_hld_prv.c **** 
 735:../generate/sc_drivers/r_riic/src/hld/r_riic_hld_prv.c ****     if (DRV_SUCCESS == ret)
 736:../generate/sc_drivers/r_riic/src/hld/r_riic_hld_prv.c ****     {
 737:../generate/sc_drivers/r_riic/src/hld/r_riic_hld_prv.c ****         /* start condition */
 738:../generate/sc_drivers/r_riic/src/hld/r_riic_hld_prv.c ****         ret = transmit_start(channel);
 739:../generate/sc_drivers/r_riic/src/hld/r_riic_hld_prv.c ****     }
 740:../generate/sc_drivers/r_riic/src/hld/r_riic_hld_prv.c **** 
 741:../generate/sc_drivers/r_riic/src/hld/r_riic_hld_prv.c ****     if (RIIC_SUB_ADDR_NONE != p_transfer->sub_address_type)
 742:../generate/sc_drivers/r_riic/src/hld/r_riic_hld_prv.c ****     {
 743:../generate/sc_drivers/r_riic/src/hld/r_riic_hld_prv.c ****         if (DRV_SUCCESS == ret)
 744:../generate/sc_drivers/r_riic/src/hld/r_riic_hld_prv.c ****         {
 745:../generate/sc_drivers/r_riic/src/hld/r_riic_hld_prv.c ****             /* write address header to device if required */
 746:../generate/sc_drivers/r_riic/src/hld/r_riic_hld_prv.c ****             ret = riic_write(channel, pw_buffer, (buffer_count - 1u));
 747:../generate/sc_drivers/r_riic/src/hld/r_riic_hld_prv.c ****         }
 748:../generate/sc_drivers/r_riic/src/hld/r_riic_hld_prv.c **** 
 749:../generate/sc_drivers/r_riic/src/hld/r_riic_hld_prv.c ****         /* Now setup read command */
 750:../generate/sc_drivers/r_riic/src/hld/r_riic_hld_prv.c ****         if (DRV_SUCCESS == ret)
 751:../generate/sc_drivers/r_riic/src/hld/r_riic_hld_prv.c ****         {
 752:../generate/sc_drivers/r_riic/src/hld/r_riic_hld_prv.c ****             ret = transmit_restart(channel);
 753:../generate/sc_drivers/r_riic/src/hld/r_riic_hld_prv.c ****         }
 754:../generate/sc_drivers/r_riic/src/hld/r_riic_hld_prv.c ****     }
 755:../generate/sc_drivers/r_riic/src/hld/r_riic_hld_prv.c **** 
 756:../generate/sc_drivers/r_riic/src/hld/r_riic_hld_prv.c ****     if (DRV_SUCCESS == ret)
 757:../generate/sc_drivers/r_riic/src/hld/r_riic_hld_prv.c ****     {
 758:../generate/sc_drivers/r_riic/src/hld/r_riic_hld_prv.c ****         /* issue read command */
 759:../generate/sc_drivers/r_riic/src/hld/r_riic_hld_prv.c ****         ret = riic_single_write(channel, pw_buffer[(buffer_count - 1u)], RIIC_TEND_WAIT_RECEIVE);
 760:../generate/sc_drivers/r_riic/src/hld/r_riic_hld_prv.c ****     }
 761:../generate/sc_drivers/r_riic/src/hld/r_riic_hld_prv.c **** 
 762:../generate/sc_drivers/r_riic/src/hld/r_riic_hld_prv.c ****     if (DRV_SUCCESS == ret)
 763:../generate/sc_drivers/r_riic/src/hld/r_riic_hld_prv.c ****     {
 764:../generate/sc_drivers/r_riic/src/hld/r_riic_hld_prv.c ****         /* read data */
 765:../generate/sc_drivers/r_riic/src/hld/r_riic_hld_prv.c ****         riic_read(channel, p_transfer->p_data_buffer, p_transfer->number_of_bytes);
 766:../generate/sc_drivers/r_riic/src/hld/r_riic_hld_prv.c ****     }
 767:../generate/sc_drivers/r_riic/src/hld/r_riic_hld_prv.c ****     else
 768:../generate/sc_drivers/r_riic/src/hld/r_riic_hld_prv.c ****     {
 769:../generate/sc_drivers/r_riic/src/hld/r_riic_hld_prv.c ****         gs_riic_stop_flg[channel] = DRV_FLAG_OFF_PRV_;
 770:../generate/sc_drivers/r_riic/src/hld/r_riic_hld_prv.c **** 
 771:../generate/sc_drivers/r_riic/src/hld/r_riic_hld_prv.c ****         /* exit cleanly in event of an error */
 772:../generate/sc_drivers/r_riic/src/hld/r_riic_hld_prv.c ****         R_RIIC_TransmitStop(channel);
 773:../generate/sc_drivers/r_riic/src/hld/r_riic_hld_prv.c ****     }
 774:../generate/sc_drivers/r_riic/src/hld/r_riic_hld_prv.c **** 
 775:../generate/sc_drivers/r_riic/src/hld/r_riic_hld_prv.c ****     return (ret);
 776:../generate/sc_drivers/r_riic/src/hld/r_riic_hld_prv.c **** }
 777:../generate/sc_drivers/r_riic/src/hld/r_riic_hld_prv.c **** /*******************************************************************************
 778:../generate/sc_drivers/r_riic/src/hld/r_riic_hld_prv.c ****  End of function read_data
 779:../generate/sc_drivers/r_riic/src/hld/r_riic_hld_prv.c ****  *******************************************************************************/
 780:../generate/sc_drivers/r_riic/src/hld/r_riic_hld_prv.c **** 
 781:../generate/sc_drivers/r_riic/src/hld/r_riic_hld_prv.c **** /**
 782:../generate/sc_drivers/r_riic/src/hld/r_riic_hld_prv.c ****  * @brief Read data from slave
 783:../generate/sc_drivers/r_riic/src/hld/r_riic_hld_prv.c ****  * @param[in] channel   : the device specific channel number (< RIIC_CFG_LLD_NUM_CHANNELS)
 784:../generate/sc_drivers/r_riic/src/hld/r_riic_hld_prv.c ****  * @param[in] d_adr     : Slave device address
 785:../generate/sc_drivers/r_riic/src/hld/r_riic_hld_prv.c ****  *            r_byte    : Number of bytes
 786:../generate/sc_drivers/r_riic/src/hld/r_riic_hld_prv.c ****  *            pr_buffer : buffer for data
 787:../generate/sc_drivers/r_riic/src/hld/r_riic_hld_prv.c ****  * @return    DRV_SUCCESS         : Success of RIIC operation
 788:../generate/sc_drivers/r_riic/src/hld/r_riic_hld_prv.c ****  *            DRV_ERROR           : Failure of RIIC operation
 789:../generate/sc_drivers/r_riic/src/hld/r_riic_hld_prv.c ****  **/
 790:../generate/sc_drivers/r_riic/src/hld/r_riic_hld_prv.c **** int_t read_next_data (int_t channel, uint8_t d_adr, uint32_t r_byte, uint8_t *pr_buffer)
 791:../generate/sc_drivers/r_riic/src/hld/r_riic_hld_prv.c **** {
 792:../generate/sc_drivers/r_riic/src/hld/r_riic_hld_prv.c ****     int_t ret;
 793:../generate/sc_drivers/r_riic/src/hld/r_riic_hld_prv.c ****     uint8_t pw_buffer;
 794:../generate/sc_drivers/r_riic/src/hld/r_riic_hld_prv.c **** 
 795:../generate/sc_drivers/r_riic/src/hld/r_riic_hld_prv.c ****     /* ensure that channel is valid */
 796:../generate/sc_drivers/r_riic/src/hld/r_riic_hld_prv.c ****     ret = validate_channel(channel);
 797:../generate/sc_drivers/r_riic/src/hld/r_riic_hld_prv.c **** 
 798:../generate/sc_drivers/r_riic/src/hld/r_riic_hld_prv.c ****     /* Setting slave device address and read control */
 799:../generate/sc_drivers/r_riic/src/hld/r_riic_hld_prv.c ****     pw_buffer = (uint8_t) (d_adr | ((uint8_t) SAMPLE_RIIC_RWCODE_PRV_));
 800:../generate/sc_drivers/r_riic/src/hld/r_riic_hld_prv.c **** 
 801:../generate/sc_drivers/r_riic/src/hld/r_riic_hld_prv.c ****     if (DRV_SUCCESS == ret)
 802:../generate/sc_drivers/r_riic/src/hld/r_riic_hld_prv.c ****     {
 803:../generate/sc_drivers/r_riic/src/hld/r_riic_hld_prv.c ****         /* wait for bus to be free */
 804:../generate/sc_drivers/r_riic/src/hld/r_riic_hld_prv.c ****         ret = wait_bus_master(channel, RIIC_BUS_MASTERSHIP_WAIT_FREE);
 805:../generate/sc_drivers/r_riic/src/hld/r_riic_hld_prv.c ****     }
 806:../generate/sc_drivers/r_riic/src/hld/r_riic_hld_prv.c **** 
 807:../generate/sc_drivers/r_riic/src/hld/r_riic_hld_prv.c ****     if (DRV_SUCCESS == ret)
 808:../generate/sc_drivers/r_riic/src/hld/r_riic_hld_prv.c ****     {
 809:../generate/sc_drivers/r_riic/src/hld/r_riic_hld_prv.c ****         /* start condition */
 810:../generate/sc_drivers/r_riic/src/hld/r_riic_hld_prv.c ****         ret = transmit_start(channel);
 811:../generate/sc_drivers/r_riic/src/hld/r_riic_hld_prv.c ****     }
 812:../generate/sc_drivers/r_riic/src/hld/r_riic_hld_prv.c **** 
 813:../generate/sc_drivers/r_riic/src/hld/r_riic_hld_prv.c ****     if (DRV_SUCCESS == ret)
 814:../generate/sc_drivers/r_riic/src/hld/r_riic_hld_prv.c ****     {
 815:../generate/sc_drivers/r_riic/src/hld/r_riic_hld_prv.c ****         ret = riic_single_write(channel, pw_buffer, RIIC_TEND_WAIT_RECEIVE);
 816:../generate/sc_drivers/r_riic/src/hld/r_riic_hld_prv.c ****     }
 817:../generate/sc_drivers/r_riic/src/hld/r_riic_hld_prv.c **** 
 818:../generate/sc_drivers/r_riic/src/hld/r_riic_hld_prv.c ****     if (DRV_SUCCESS == ret)
 819:../generate/sc_drivers/r_riic/src/hld/r_riic_hld_prv.c ****     {
 820:../generate/sc_drivers/r_riic/src/hld/r_riic_hld_prv.c ****         /* read data */
 821:../generate/sc_drivers/r_riic/src/hld/r_riic_hld_prv.c ****         riic_read(channel, pr_buffer, r_byte);
 822:../generate/sc_drivers/r_riic/src/hld/r_riic_hld_prv.c ****     }
 823:../generate/sc_drivers/r_riic/src/hld/r_riic_hld_prv.c ****     else
 824:../generate/sc_drivers/r_riic/src/hld/r_riic_hld_prv.c ****     {
 825:../generate/sc_drivers/r_riic/src/hld/r_riic_hld_prv.c ****         gs_riic_stop_flg[channel] = DRV_FLAG_OFF_PRV_;
 826:../generate/sc_drivers/r_riic/src/hld/r_riic_hld_prv.c **** 
 827:../generate/sc_drivers/r_riic/src/hld/r_riic_hld_prv.c ****         /* exit cleanly in event of an error */
 828:../generate/sc_drivers/r_riic/src/hld/r_riic_hld_prv.c ****         R_RIIC_TransmitStop(channel);
 829:../generate/sc_drivers/r_riic/src/hld/r_riic_hld_prv.c ****     }
 830:../generate/sc_drivers/r_riic/src/hld/r_riic_hld_prv.c **** 
 831:../generate/sc_drivers/r_riic/src/hld/r_riic_hld_prv.c ****     return (ret);
 832:../generate/sc_drivers/r_riic/src/hld/r_riic_hld_prv.c **** }
 833:../generate/sc_drivers/r_riic/src/hld/r_riic_hld_prv.c **** /*******************************************************************************
 834:../generate/sc_drivers/r_riic/src/hld/r_riic_hld_prv.c ****  End of function read_next_data
 835:../generate/sc_drivers/r_riic/src/hld/r_riic_hld_prv.c ****  *******************************************************************************/
 836:../generate/sc_drivers/r_riic/src/hld/r_riic_hld_prv.c **** 
 837:../generate/sc_drivers/r_riic/src/hld/r_riic_hld_prv.c **** /**
 838:../generate/sc_drivers/r_riic/src/hld/r_riic_hld_prv.c ****  * @brief Write data to slave in single byte addressing mode
 839:../generate/sc_drivers/r_riic/src/hld/r_riic_hld_prv.c ****  * @param[in] channel   : the device specific channel number (< RIIC_CFG_LLD_NUM_CHANNELS)
 840:../generate/sc_drivers/r_riic/src/hld/r_riic_hld_prv.c ****  * @param[in] d_adr     : Slave device address
 841:../generate/sc_drivers/r_riic/src/hld/r_riic_hld_prv.c ****  *            w_adr     : Slave sub-address
 842:../generate/sc_drivers/r_riic/src/hld/r_riic_hld_prv.c ****  *            w_byte    : Number of bytes
 843:../generate/sc_drivers/r_riic/src/hld/r_riic_hld_prv.c ****  *            pw_buffer : buffer for data
 844:../generate/sc_drivers/r_riic/src/hld/r_riic_hld_prv.c ****  * @return    DRV_SUCCESS         : Success of RIIC operation
 845:../generate/sc_drivers/r_riic/src/hld/r_riic_hld_prv.c ****  *            DRV_ERROR           : Failure of RIIC operation
 846:../generate/sc_drivers/r_riic/src/hld/r_riic_hld_prv.c ****  *            DRV_ERROR_RIIC_NACK : Failure of RIIC transmission due to
 847:../generate/sc_drivers/r_riic/src/hld/r_riic_hld_prv.c ****  *                                     NACK reception
 848:../generate/sc_drivers/r_riic/src/hld/r_riic_hld_prv.c ****  *            DRV_ERROR   : IIC operation timed out
 849:../generate/sc_drivers/r_riic/src/hld/r_riic_hld_prv.c ****  **/
 850:../generate/sc_drivers/r_riic/src/hld/r_riic_hld_prv.c **** int_t write_data (int_t channel, st_r_drv_riic_transfer_t *p_transfer)
 851:../generate/sc_drivers/r_riic/src/hld/r_riic_hld_prv.c **** {
 852:../generate/sc_drivers/r_riic/src/hld/r_riic_hld_prv.c ****     int_t ret = DRV_ERROR;
 853:../generate/sc_drivers/r_riic/src/hld/r_riic_hld_prv.c ****     uint8_t pw_buffer[10];
 854:../generate/sc_drivers/r_riic/src/hld/r_riic_hld_prv.c ****     uint8_t buffer_count = 0u;
 855:../generate/sc_drivers/r_riic/src/hld/r_riic_hld_prv.c **** 
 856:../generate/sc_drivers/r_riic/src/hld/r_riic_hld_prv.c ****     /* ensure that channel is valid */
 857:../generate/sc_drivers/r_riic/src/hld/r_riic_hld_prv.c ****     ret = validate_channel(channel);
 858:../generate/sc_drivers/r_riic/src/hld/r_riic_hld_prv.c **** 
 859:../generate/sc_drivers/r_riic/src/hld/r_riic_hld_prv.c ****     if (RIIC_SUB_ADDR_MAX <= p_transfer->sub_address_type)
 860:../generate/sc_drivers/r_riic/src/hld/r_riic_hld_prv.c ****     {
 861:../generate/sc_drivers/r_riic/src/hld/r_riic_hld_prv.c ****         /* unrecognised sub-address mode */
 862:../generate/sc_drivers/r_riic/src/hld/r_riic_hld_prv.c ****         ret = DRV_ERROR;
 863:../generate/sc_drivers/r_riic/src/hld/r_riic_hld_prv.c ****     }
 864:../generate/sc_drivers/r_riic/src/hld/r_riic_hld_prv.c **** 
 865:../generate/sc_drivers/r_riic/src/hld/r_riic_hld_prv.c ****     /* Construct header to send sub address (if required) to device & start operation */
 866:../generate/sc_drivers/r_riic/src/hld/r_riic_hld_prv.c ****     if (DRV_SUCCESS == ret)
 867:../generate/sc_drivers/r_riic/src/hld/r_riic_hld_prv.c ****     {
 868:../generate/sc_drivers/r_riic/src/hld/r_riic_hld_prv.c ****         /* Adding device addressing and write control (for sub-address) */
 869:../generate/sc_drivers/r_riic/src/hld/r_riic_hld_prv.c ****         pw_buffer[buffer_count++] = (uint8_t) (p_transfer->device_address & ((uint8_t) ( ~SAMPLE_RI
 870:../generate/sc_drivers/r_riic/src/hld/r_riic_hld_prv.c **** 
 871:../generate/sc_drivers/r_riic/src/hld/r_riic_hld_prv.c ****         /* Note that 10-bit addressing mode would add an extra byte here to hold the address LSB */
 872:../generate/sc_drivers/r_riic/src/hld/r_riic_hld_prv.c **** 
 873:../generate/sc_drivers/r_riic/src/hld/r_riic_hld_prv.c ****         if (RIIC_SUB_ADDR_WIDTH_8_BITS == p_transfer->sub_address_type)
 874:../generate/sc_drivers/r_riic/src/hld/r_riic_hld_prv.c ****         {
 875:../generate/sc_drivers/r_riic/src/hld/r_riic_hld_prv.c ****             /* 8-bit address to be provided */
 876:../generate/sc_drivers/r_riic/src/hld/r_riic_hld_prv.c ****             pw_buffer[buffer_count++] = (uint8_t) (p_transfer->sub_address & 0x00ff);
 877:../generate/sc_drivers/r_riic/src/hld/r_riic_hld_prv.c ****         }
 878:../generate/sc_drivers/r_riic/src/hld/r_riic_hld_prv.c **** 
 879:../generate/sc_drivers/r_riic/src/hld/r_riic_hld_prv.c ****         if (RIIC_SUB_ADDR_WIDTH_16_BITS == p_transfer->sub_address_type)
 880:../generate/sc_drivers/r_riic/src/hld/r_riic_hld_prv.c ****         {
 881:../generate/sc_drivers/r_riic/src/hld/r_riic_hld_prv.c ****             /* 16-bit address to be provided */
 882:../generate/sc_drivers/r_riic/src/hld/r_riic_hld_prv.c **** 
 883:../generate/sc_drivers/r_riic/src/hld/r_riic_hld_prv.c ****             /* Adding sub-address MSB */
 884:../generate/sc_drivers/r_riic/src/hld/r_riic_hld_prv.c ****             pw_buffer[buffer_count++] = (uint8_t) (p_transfer->sub_address >> 8);
 885:../generate/sc_drivers/r_riic/src/hld/r_riic_hld_prv.c **** 
 886:../generate/sc_drivers/r_riic/src/hld/r_riic_hld_prv.c ****             /* Adding sub-address LSB */
 887:../generate/sc_drivers/r_riic/src/hld/r_riic_hld_prv.c ****             pw_buffer[buffer_count++] = (uint8_t) (p_transfer->sub_address & 0x00ff);
 888:../generate/sc_drivers/r_riic/src/hld/r_riic_hld_prv.c ****         }
 889:../generate/sc_drivers/r_riic/src/hld/r_riic_hld_prv.c **** 
 890:../generate/sc_drivers/r_riic/src/hld/r_riic_hld_prv.c ****         if (RIIC_SUB_ADDR_WIDTH_32_BITS == p_transfer->sub_address_type)
 891:../generate/sc_drivers/r_riic/src/hld/r_riic_hld_prv.c ****         {
 892:../generate/sc_drivers/r_riic/src/hld/r_riic_hld_prv.c ****             /* 32-bit address to be provided */
 893:../generate/sc_drivers/r_riic/src/hld/r_riic_hld_prv.c **** 
 894:../generate/sc_drivers/r_riic/src/hld/r_riic_hld_prv.c ****             /* Adding slave sub-address MSB */
 895:../generate/sc_drivers/r_riic/src/hld/r_riic_hld_prv.c ****             pw_buffer[buffer_count++] = (uint8_t) (p_transfer->sub_address >> 24);
 896:../generate/sc_drivers/r_riic/src/hld/r_riic_hld_prv.c **** 
 897:../generate/sc_drivers/r_riic/src/hld/r_riic_hld_prv.c ****             /* Adding slave sub-address 3rd byte */
 898:../generate/sc_drivers/r_riic/src/hld/r_riic_hld_prv.c ****             pw_buffer[buffer_count++] = (uint8_t) (p_transfer->sub_address >> 16);
 899:../generate/sc_drivers/r_riic/src/hld/r_riic_hld_prv.c **** 
 900:../generate/sc_drivers/r_riic/src/hld/r_riic_hld_prv.c ****             /* Adding sub-address 2nd byte */
 901:../generate/sc_drivers/r_riic/src/hld/r_riic_hld_prv.c ****             pw_buffer[buffer_count++] = (uint8_t) (p_transfer->sub_address >> 8);
 902:../generate/sc_drivers/r_riic/src/hld/r_riic_hld_prv.c **** 
 903:../generate/sc_drivers/r_riic/src/hld/r_riic_hld_prv.c ****             /* Adding sub-address LSB */
 904:../generate/sc_drivers/r_riic/src/hld/r_riic_hld_prv.c ****             pw_buffer[buffer_count++] = (uint8_t) (p_transfer->sub_address & 0x00ff);
 905:../generate/sc_drivers/r_riic/src/hld/r_riic_hld_prv.c ****         }
 906:../generate/sc_drivers/r_riic/src/hld/r_riic_hld_prv.c ****     }
 907:../generate/sc_drivers/r_riic/src/hld/r_riic_hld_prv.c **** 
 908:../generate/sc_drivers/r_riic/src/hld/r_riic_hld_prv.c ****     if (DRV_SUCCESS == ret)
 909:../generate/sc_drivers/r_riic/src/hld/r_riic_hld_prv.c ****     {
 910:../generate/sc_drivers/r_riic/src/hld/r_riic_hld_prv.c ****         /* wait for bus to be free */
 911:../generate/sc_drivers/r_riic/src/hld/r_riic_hld_prv.c ****         ret = wait_bus_master(channel, RIIC_BUS_MASTERSHIP_WAIT_FREE);
 912:../generate/sc_drivers/r_riic/src/hld/r_riic_hld_prv.c ****     }
 913:../generate/sc_drivers/r_riic/src/hld/r_riic_hld_prv.c **** 
 914:../generate/sc_drivers/r_riic/src/hld/r_riic_hld_prv.c ****     if (DRV_SUCCESS == ret)
 915:../generate/sc_drivers/r_riic/src/hld/r_riic_hld_prv.c ****     {
 916:../generate/sc_drivers/r_riic/src/hld/r_riic_hld_prv.c ****         /* start condition */
 917:../generate/sc_drivers/r_riic/src/hld/r_riic_hld_prv.c ****         ret = transmit_start(channel);
 918:../generate/sc_drivers/r_riic/src/hld/r_riic_hld_prv.c ****     }
 919:../generate/sc_drivers/r_riic/src/hld/r_riic_hld_prv.c **** 
 920:../generate/sc_drivers/r_riic/src/hld/r_riic_hld_prv.c ****     if (DRV_SUCCESS == ret)
 921:../generate/sc_drivers/r_riic/src/hld/r_riic_hld_prv.c ****     {
 922:../generate/sc_drivers/r_riic/src/hld/r_riic_hld_prv.c ****         /* write address header to device if required */
 923:../generate/sc_drivers/r_riic/src/hld/r_riic_hld_prv.c ****         ret = riic_write(channel, pw_buffer, buffer_count);
 924:../generate/sc_drivers/r_riic/src/hld/r_riic_hld_prv.c ****     }
 925:../generate/sc_drivers/r_riic/src/hld/r_riic_hld_prv.c **** 
 926:../generate/sc_drivers/r_riic/src/hld/r_riic_hld_prv.c ****     if (DRV_SUCCESS == ret)
 927:../generate/sc_drivers/r_riic/src/hld/r_riic_hld_prv.c ****     {
 928:../generate/sc_drivers/r_riic/src/hld/r_riic_hld_prv.c ****         /* write remaining bytes */
 929:../generate/sc_drivers/r_riic/src/hld/r_riic_hld_prv.c ****         ret = riic_write(channel, p_transfer->p_data_buffer, p_transfer->number_of_bytes);
 930:../generate/sc_drivers/r_riic/src/hld/r_riic_hld_prv.c ****     }
 931:../generate/sc_drivers/r_riic/src/hld/r_riic_hld_prv.c **** 
 932:../generate/sc_drivers/r_riic/src/hld/r_riic_hld_prv.c ****     gs_riic_stop_flg[channel] = DRV_FLAG_OFF_PRV_;
 933:../generate/sc_drivers/r_riic/src/hld/r_riic_hld_prv.c **** 
 934:../generate/sc_drivers/r_riic/src/hld/r_riic_hld_prv.c ****     /* stop condition */
 935:../generate/sc_drivers/r_riic/src/hld/r_riic_hld_prv.c ****     R_RIIC_TransmitStop(channel);
 936:../generate/sc_drivers/r_riic/src/hld/r_riic_hld_prv.c **** 
 937:../generate/sc_drivers/r_riic/src/hld/r_riic_hld_prv.c ****     /* wait for finish */
 938:../generate/sc_drivers/r_riic/src/hld/r_riic_hld_prv.c ****     wait_stop(channel);
 939:../generate/sc_drivers/r_riic/src/hld/r_riic_hld_prv.c **** 
 940:../generate/sc_drivers/r_riic/src/hld/r_riic_hld_prv.c ****     return (ret);
 941:../generate/sc_drivers/r_riic/src/hld/r_riic_hld_prv.c **** }
 942:../generate/sc_drivers/r_riic/src/hld/r_riic_hld_prv.c **** /*******************************************************************************
 943:../generate/sc_drivers/r_riic/src/hld/r_riic_hld_prv.c ****  End of function write_data
 944:../generate/sc_drivers/r_riic/src/hld/r_riic_hld_prv.c ****  *******************************************************************************/
 945:../generate/sc_drivers/r_riic/src/hld/r_riic_hld_prv.c **** 
 946:../generate/sc_drivers/r_riic/src/hld/r_riic_hld_prv.c **** /**
 947:../generate/sc_drivers/r_riic/src/hld/r_riic_hld_prv.c ****  * @brief Wait for transmit end flag set for selected channel
 948:../generate/sc_drivers/r_riic/src/hld/r_riic_hld_prv.c ****  * @param[in] channel : the device specific channel number (< RIIC_CFG_LLD_NUM_CHANNELS)
 949:../generate/sc_drivers/r_riic/src/hld/r_riic_hld_prv.c ****  * @param[in] mode    : RIIC_TEND_WAIT_TRANSMIT
 950:../generate/sc_drivers/r_riic/src/hld/r_riic_hld_prv.c ****  *                    : RIIC_TEND_WAIT_RECEIVE
 951:../generate/sc_drivers/r_riic/src/hld/r_riic_hld_prv.c ****  * @return    DRV_ERROR or DRV_SUCCESS
 952:../generate/sc_drivers/r_riic/src/hld/r_riic_hld_prv.c ****  **/
 953:../generate/sc_drivers/r_riic/src/hld/r_riic_hld_prv.c **** static int_t wait_tx_end (int_t channel, uint32_t mode)
 954:../generate/sc_drivers/r_riic/src/hld/r_riic_hld_prv.c **** {
 955:../generate/sc_drivers/r_riic/src/hld/r_riic_hld_prv.c ****     int_t timeout_monitor = DRV_SUCCESS;
 956:../generate/sc_drivers/r_riic/src/hld/r_riic_hld_prv.c **** 
 957:../generate/sc_drivers/r_riic/src/hld/r_riic_hld_prv.c ****     /* Start timing for operation */
 958:../generate/sc_drivers/r_riic/src/hld/r_riic_hld_prv.c ****     start_timeout_monitor(channel);
 959:../generate/sc_drivers/r_riic/src/hld/r_riic_hld_prv.c **** 
 960:../generate/sc_drivers/r_riic/src/hld/r_riic_hld_prv.c ****     if (RIIC_TEND_WAIT_TRANSMIT == mode)
 961:../generate/sc_drivers/r_riic/src/hld/r_riic_hld_prv.c ****     {
 962:../generate/sc_drivers/r_riic/src/hld/r_riic_hld_prv.c ****         /* Wait */
 963:../generate/sc_drivers/r_riic/src/hld/r_riic_hld_prv.c ****         while ((DRV_FLAG_OFF_PRV_ == gs_riic_transmit_end_flg[channel]) && (DRV_SUCCESS == timeout_
 964:../generate/sc_drivers/r_riic/src/hld/r_riic_hld_prv.c ****         {
 965:../generate/sc_drivers/r_riic/src/hld/r_riic_hld_prv.c ****             /* get timeout status */
 966:../generate/sc_drivers/r_riic/src/hld/r_riic_hld_prv.c ****             timeout_monitor = get_timeout_status(channel);
 967:../generate/sc_drivers/r_riic/src/hld/r_riic_hld_prv.c ****         }
 968:../generate/sc_drivers/r_riic/src/hld/r_riic_hld_prv.c ****     }
 969:../generate/sc_drivers/r_riic/src/hld/r_riic_hld_prv.c ****     else
 970:../generate/sc_drivers/r_riic/src/hld/r_riic_hld_prv.c ****     {
 971:../generate/sc_drivers/r_riic/src/hld/r_riic_hld_prv.c ****         /* RIIC_TEND_WAIT_RECEIVE */
 972:../generate/sc_drivers/r_riic/src/hld/r_riic_hld_prv.c ****         while ((DRV_FLAG_OFF_PRV_ == gs_riic_receive_full_flg[channel]) && (DRV_SUCCESS == timeout_
 973:../generate/sc_drivers/r_riic/src/hld/r_riic_hld_prv.c ****         {
 974:../generate/sc_drivers/r_riic/src/hld/r_riic_hld_prv.c ****             /* get timeout status */
 975:../generate/sc_drivers/r_riic/src/hld/r_riic_hld_prv.c ****             timeout_monitor = get_timeout_status(channel);
 976:../generate/sc_drivers/r_riic/src/hld/r_riic_hld_prv.c ****         }
 977:../generate/sc_drivers/r_riic/src/hld/r_riic_hld_prv.c ****     }
 978:../generate/sc_drivers/r_riic/src/hld/r_riic_hld_prv.c **** 
 979:../generate/sc_drivers/r_riic/src/hld/r_riic_hld_prv.c ****     /* Stop timeout monitoring */
 980:../generate/sc_drivers/r_riic/src/hld/r_riic_hld_prv.c ****     stop_timeout_monitor(channel);
 981:../generate/sc_drivers/r_riic/src/hld/r_riic_hld_prv.c **** 
 982:../generate/sc_drivers/r_riic/src/hld/r_riic_hld_prv.c ****     /* return status */
 983:../generate/sc_drivers/r_riic/src/hld/r_riic_hld_prv.c ****     return (timeout_monitor);
 984:../generate/sc_drivers/r_riic/src/hld/r_riic_hld_prv.c **** }
 985:../generate/sc_drivers/r_riic/src/hld/r_riic_hld_prv.c **** /*******************************************************************************
 986:../generate/sc_drivers/r_riic/src/hld/r_riic_hld_prv.c ****  End of function wait_tx_end
 987:../generate/sc_drivers/r_riic/src/hld/r_riic_hld_prv.c ****  ******************************************************************************/
 988:../generate/sc_drivers/r_riic/src/hld/r_riic_hld_prv.c **** 
 989:../generate/sc_drivers/r_riic/src/hld/r_riic_hld_prv.c **** /**
 990:../generate/sc_drivers/r_riic/src/hld/r_riic_hld_prv.c ****  * @brief Wait for receive full flag set for selected channel
 991:../generate/sc_drivers/r_riic/src/hld/r_riic_hld_prv.c ****  * @param[in] channel : the device specific channel number (< RIIC_CFG_LLD_NUM_CHANNELS)
 992:../generate/sc_drivers/r_riic/src/hld/r_riic_hld_prv.c ****  * @return    DRV_ERROR or DRV_SUCCESS
 993:../generate/sc_drivers/r_riic/src/hld/r_riic_hld_prv.c ****  **/
 994:../generate/sc_drivers/r_riic/src/hld/r_riic_hld_prv.c **** static int_t wait_rx_full (int_t channel)
 995:../generate/sc_drivers/r_riic/src/hld/r_riic_hld_prv.c **** {
 996:../generate/sc_drivers/r_riic/src/hld/r_riic_hld_prv.c ****     int_t timeout_monitor = DRV_SUCCESS;
 997:../generate/sc_drivers/r_riic/src/hld/r_riic_hld_prv.c **** 
 998:../generate/sc_drivers/r_riic/src/hld/r_riic_hld_prv.c ****     /* Start timing for operation */
 999:../generate/sc_drivers/r_riic/src/hld/r_riic_hld_prv.c ****     start_timeout_monitor(channel);
1000:../generate/sc_drivers/r_riic/src/hld/r_riic_hld_prv.c **** 
1001:../generate/sc_drivers/r_riic/src/hld/r_riic_hld_prv.c ****     /* Wait */
1002:../generate/sc_drivers/r_riic/src/hld/r_riic_hld_prv.c ****     while ((DRV_FLAG_OFF_PRV_ == gs_riic_receive_full_flg[channel]) && (DRV_SUCCESS == timeout_moni
1003:../generate/sc_drivers/r_riic/src/hld/r_riic_hld_prv.c ****     {
1004:../generate/sc_drivers/r_riic/src/hld/r_riic_hld_prv.c ****         /* get timeout status */
1005:../generate/sc_drivers/r_riic/src/hld/r_riic_hld_prv.c ****         timeout_monitor = get_timeout_status(channel);
1006:../generate/sc_drivers/r_riic/src/hld/r_riic_hld_prv.c ****     }
1007:../generate/sc_drivers/r_riic/src/hld/r_riic_hld_prv.c **** 
1008:../generate/sc_drivers/r_riic/src/hld/r_riic_hld_prv.c ****     /* Stop timeout monitoring */
1009:../generate/sc_drivers/r_riic/src/hld/r_riic_hld_prv.c ****     stop_timeout_monitor(channel);
1010:../generate/sc_drivers/r_riic/src/hld/r_riic_hld_prv.c **** 
1011:../generate/sc_drivers/r_riic/src/hld/r_riic_hld_prv.c ****     /* return status */
1012:../generate/sc_drivers/r_riic/src/hld/r_riic_hld_prv.c ****     return (timeout_monitor);
1013:../generate/sc_drivers/r_riic/src/hld/r_riic_hld_prv.c **** }
1014:../generate/sc_drivers/r_riic/src/hld/r_riic_hld_prv.c **** /*******************************************************************************
1015:../generate/sc_drivers/r_riic/src/hld/r_riic_hld_prv.c ****  End of function wait_rx_full
1016:../generate/sc_drivers/r_riic/src/hld/r_riic_hld_prv.c ****  *******************************************************************************/
1017:../generate/sc_drivers/r_riic/src/hld/r_riic_hld_prv.c **** 
1018:../generate/sc_drivers/r_riic/src/hld/r_riic_hld_prv.c **** /**
1019:../generate/sc_drivers/r_riic/src/hld/r_riic_hld_prv.c ****  * @brief Wait for transmit empty flag set for selected channel
1020:../generate/sc_drivers/r_riic/src/hld/r_riic_hld_prv.c ****  * @param[in] channel : the device specific channel number (< RIIC_CFG_LLD_NUM_CHANNELS)
1021:../generate/sc_drivers/r_riic/src/hld/r_riic_hld_prv.c ****  * @return    DRV_ERROR or DRV_SUCCESS
1022:../generate/sc_drivers/r_riic/src/hld/r_riic_hld_prv.c ****  **/
1023:../generate/sc_drivers/r_riic/src/hld/r_riic_hld_prv.c **** static int_t wait_tx_empty (int_t channel)
1024:../generate/sc_drivers/r_riic/src/hld/r_riic_hld_prv.c **** {
1025:../generate/sc_drivers/r_riic/src/hld/r_riic_hld_prv.c ****     int_t timeout_monitor = DRV_SUCCESS;
1026:../generate/sc_drivers/r_riic/src/hld/r_riic_hld_prv.c **** 
1027:../generate/sc_drivers/r_riic/src/hld/r_riic_hld_prv.c ****     /* Start timing for operation */
1028:../generate/sc_drivers/r_riic/src/hld/r_riic_hld_prv.c ****     start_timeout_monitor(channel);
1029:../generate/sc_drivers/r_riic/src/hld/r_riic_hld_prv.c **** 
1030:../generate/sc_drivers/r_riic/src/hld/r_riic_hld_prv.c ****     /* Wait */
1031:../generate/sc_drivers/r_riic/src/hld/r_riic_hld_prv.c ****     while ((DRV_FLAG_OFF_PRV_ == gs_riic_transmit_empty_flg[channel]) && (DRV_SUCCESS == timeout_mo
1032:../generate/sc_drivers/r_riic/src/hld/r_riic_hld_prv.c ****     {
1033:../generate/sc_drivers/r_riic/src/hld/r_riic_hld_prv.c ****         /* get timeout status */
1034:../generate/sc_drivers/r_riic/src/hld/r_riic_hld_prv.c ****         timeout_monitor = get_timeout_status(channel);
1035:../generate/sc_drivers/r_riic/src/hld/r_riic_hld_prv.c ****     }
1036:../generate/sc_drivers/r_riic/src/hld/r_riic_hld_prv.c **** 
1037:../generate/sc_drivers/r_riic/src/hld/r_riic_hld_prv.c ****     /* Stop timeout monitoring */
1038:../generate/sc_drivers/r_riic/src/hld/r_riic_hld_prv.c ****     stop_timeout_monitor(channel);
1039:../generate/sc_drivers/r_riic/src/hld/r_riic_hld_prv.c **** 
1040:../generate/sc_drivers/r_riic/src/hld/r_riic_hld_prv.c ****     /* return status */
1041:../generate/sc_drivers/r_riic/src/hld/r_riic_hld_prv.c ****     return (timeout_monitor);
1042:../generate/sc_drivers/r_riic/src/hld/r_riic_hld_prv.c **** }
1043:../generate/sc_drivers/r_riic/src/hld/r_riic_hld_prv.c **** /*******************************************************************************
1044:../generate/sc_drivers/r_riic/src/hld/r_riic_hld_prv.c ****  End of function wait_tx_empty
1045:../generate/sc_drivers/r_riic/src/hld/r_riic_hld_prv.c ****  ******************************************************************************/
1046:../generate/sc_drivers/r_riic/src/hld/r_riic_hld_prv.c **** 
1047:../generate/sc_drivers/r_riic/src/hld/r_riic_hld_prv.c **** /**
1048:../generate/sc_drivers/r_riic/src/hld/r_riic_hld_prv.c ****  * @brief Wait for bus busy or bus free state for selected channel
1049:../generate/sc_drivers/r_riic/src/hld/r_riic_hld_prv.c ****  * @param[in] channel : the device specific channel number (< RIIC_CFG_LLD_NUM_CHANNELS)
1050:../generate/sc_drivers/r_riic/src/hld/r_riic_hld_prv.c ****  * @param[in] mode    : RIIC_BUS_MASTERSHIP_WAIT_FREE : wait till bus free
1051:../generate/sc_drivers/r_riic/src/hld/r_riic_hld_prv.c ****  *                    : RIIC_BUS_MASTERSHIP_WAIT_BUSY : wait till bus busy
1052:../generate/sc_drivers/r_riic/src/hld/r_riic_hld_prv.c ****  * @return    DRV_ERROR or DRV_SUCCESS
1053:../generate/sc_drivers/r_riic/src/hld/r_riic_hld_prv.c ****  **/
1054:../generate/sc_drivers/r_riic/src/hld/r_riic_hld_prv.c **** static int_t wait_bus_master (int_t channel, uint32_t mode)
1055:../generate/sc_drivers/r_riic/src/hld/r_riic_hld_prv.c **** {
1056:../generate/sc_drivers/r_riic/src/hld/r_riic_hld_prv.c ****     int_t timeout_monitor = DRV_SUCCESS;
1057:../generate/sc_drivers/r_riic/src/hld/r_riic_hld_prv.c ****     uint8_t level_check = 0u;
1058:../generate/sc_drivers/r_riic/src/hld/r_riic_hld_prv.c **** 
1059:../generate/sc_drivers/r_riic/src/hld/r_riic_hld_prv.c ****     R_RIIC_ReleaseLowHold(channel);
1060:../generate/sc_drivers/r_riic/src/hld/r_riic_hld_prv.c **** 
1061:../generate/sc_drivers/r_riic/src/hld/r_riic_hld_prv.c ****     /* Start timing for operation */
1062:../generate/sc_drivers/r_riic/src/hld/r_riic_hld_prv.c ****     start_timeout_monitor(channel);
1063:../generate/sc_drivers/r_riic/src/hld/r_riic_hld_prv.c **** 
1064:../generate/sc_drivers/r_riic/src/hld/r_riic_hld_prv.c ****     if (RIIC_BUS_MASTERSHIP_WAIT_FREE == mode)
1065:../generate/sc_drivers/r_riic/src/hld/r_riic_hld_prv.c ****     {
1066:../generate/sc_drivers/r_riic/src/hld/r_riic_hld_prv.c ****         level_check = 1u;
1067:../generate/sc_drivers/r_riic/src/hld/r_riic_hld_prv.c ****     }
1068:../generate/sc_drivers/r_riic/src/hld/r_riic_hld_prv.c **** 
1069:../generate/sc_drivers/r_riic/src/hld/r_riic_hld_prv.c ****     while ((R_RIIC_IsBusBusy(channel) == level_check) && (DRV_SUCCESS == timeout_monitor))
1070:../generate/sc_drivers/r_riic/src/hld/r_riic_hld_prv.c ****     {
1071:../generate/sc_drivers/r_riic/src/hld/r_riic_hld_prv.c ****         /* get timeout status */
1072:../generate/sc_drivers/r_riic/src/hld/r_riic_hld_prv.c ****         timeout_monitor = get_timeout_status(channel);
1073:../generate/sc_drivers/r_riic/src/hld/r_riic_hld_prv.c ****     }
1074:../generate/sc_drivers/r_riic/src/hld/r_riic_hld_prv.c **** 
1075:../generate/sc_drivers/r_riic/src/hld/r_riic_hld_prv.c ****     /* Stop timeout monitoring */
1076:../generate/sc_drivers/r_riic/src/hld/r_riic_hld_prv.c ****     stop_timeout_monitor(channel);
1077:../generate/sc_drivers/r_riic/src/hld/r_riic_hld_prv.c **** 
1078:../generate/sc_drivers/r_riic/src/hld/r_riic_hld_prv.c ****     /* return status */
1079:../generate/sc_drivers/r_riic/src/hld/r_riic_hld_prv.c ****     return (timeout_monitor);
1080:../generate/sc_drivers/r_riic/src/hld/r_riic_hld_prv.c **** }
1081:../generate/sc_drivers/r_riic/src/hld/r_riic_hld_prv.c **** /*******************************************************************************
1082:../generate/sc_drivers/r_riic/src/hld/r_riic_hld_prv.c ****  End of function wait_bus_master
1083:../generate/sc_drivers/r_riic/src/hld/r_riic_hld_prv.c ****  ******************************************************************************/
1084:../generate/sc_drivers/r_riic/src/hld/r_riic_hld_prv.c **** 
1085:../generate/sc_drivers/r_riic/src/hld/r_riic_hld_prv.c **** /**
1086:../generate/sc_drivers/r_riic/src/hld/r_riic_hld_prv.c ****  * @brief Wait for stop bit state for selected channel
1087:../generate/sc_drivers/r_riic/src/hld/r_riic_hld_prv.c ****  * @param[in] channel : the device specific channel number (< RIIC_CFG_LLD_NUM_CHANNELS)
1088:../generate/sc_drivers/r_riic/src/hld/r_riic_hld_prv.c ****  * @return    DRV_ERROR or DRV_SUCCESS
1089:../generate/sc_drivers/r_riic/src/hld/r_riic_hld_prv.c ****  **/
1090:../generate/sc_drivers/r_riic/src/hld/r_riic_hld_prv.c **** static int_t wait_stop (int_t channel)
1091:../generate/sc_drivers/r_riic/src/hld/r_riic_hld_prv.c **** {
1092:../generate/sc_drivers/r_riic/src/hld/r_riic_hld_prv.c ****     int_t timeout_monitor = DRV_SUCCESS;
1093:../generate/sc_drivers/r_riic/src/hld/r_riic_hld_prv.c **** 
1094:../generate/sc_drivers/r_riic/src/hld/r_riic_hld_prv.c ****     /* Start timing for operation */
1095:../generate/sc_drivers/r_riic/src/hld/r_riic_hld_prv.c ****     start_timeout_monitor(channel);
1096:../generate/sc_drivers/r_riic/src/hld/r_riic_hld_prv.c **** 
1097:../generate/sc_drivers/r_riic/src/hld/r_riic_hld_prv.c ****     /* Wait */
1098:../generate/sc_drivers/r_riic/src/hld/r_riic_hld_prv.c ****     while ((DRV_FLAG_OFF_PRV_ == gs_riic_stop_flg[channel]) && (DRV_SUCCESS == timeout_monitor))
1099:../generate/sc_drivers/r_riic/src/hld/r_riic_hld_prv.c ****     {
1100:../generate/sc_drivers/r_riic/src/hld/r_riic_hld_prv.c ****         /* get timeout status */
1101:../generate/sc_drivers/r_riic/src/hld/r_riic_hld_prv.c ****         timeout_monitor = get_timeout_status(channel);
1102:../generate/sc_drivers/r_riic/src/hld/r_riic_hld_prv.c ****     }
1103:../generate/sc_drivers/r_riic/src/hld/r_riic_hld_prv.c **** 
1104:../generate/sc_drivers/r_riic/src/hld/r_riic_hld_prv.c ****     /* Stop timeout monitoring */
1105:../generate/sc_drivers/r_riic/src/hld/r_riic_hld_prv.c ****     stop_timeout_monitor(channel);
1106:../generate/sc_drivers/r_riic/src/hld/r_riic_hld_prv.c **** 
1107:../generate/sc_drivers/r_riic/src/hld/r_riic_hld_prv.c ****     /* return status */
1108:../generate/sc_drivers/r_riic/src/hld/r_riic_hld_prv.c ****     return (timeout_monitor);
1109:../generate/sc_drivers/r_riic/src/hld/r_riic_hld_prv.c **** }
1110:../generate/sc_drivers/r_riic/src/hld/r_riic_hld_prv.c **** /*******************************************************************************
1111:../generate/sc_drivers/r_riic/src/hld/r_riic_hld_prv.c ****  End of function wait_stop
1112:../generate/sc_drivers/r_riic/src/hld/r_riic_hld_prv.c ****  *******************************************************************************/
1113:../generate/sc_drivers/r_riic/src/hld/r_riic_hld_prv.c **** 
1114:../generate/sc_drivers/r_riic/src/hld/r_riic_hld_prv.c **** /**
1115:../generate/sc_drivers/r_riic/src/hld/r_riic_hld_prv.c ****  * @brief Enable timeout monitor
1116:../generate/sc_drivers/r_riic/src/hld/r_riic_hld_prv.c ****  * @param[in] channel : the device specific channel number (< RIIC_CFG_LLD_NUM_CHANNELS)
1117:../generate/sc_drivers/r_riic/src/hld/r_riic_hld_prv.c ****  * @return    DRV_ERROR or DRV_SUCCESS
1118:../generate/sc_drivers/r_riic/src/hld/r_riic_hld_prv.c ****  **/
1119:../generate/sc_drivers/r_riic/src/hld/r_riic_hld_prv.c **** static void start_timeout_monitor (int_t channel)
1120:../generate/sc_drivers/r_riic/src/hld/r_riic_hld_prv.c **** {
1121:../generate/sc_drivers/r_riic/src/hld/r_riic_hld_prv.c **** #if (1u == SW_TIMEOUT_ENABLED_PRV_)
1122:../generate/sc_drivers/r_riic/src/hld/r_riic_hld_prv.c ****     gs_sw_timeout_counter = ICC_MAX_TIMEOUT;
1123:../generate/sc_drivers/r_riic/src/hld/r_riic_hld_prv.c **** 
1124:../generate/sc_drivers/r_riic/src/hld/r_riic_hld_prv.c **** #else
1125:../generate/sc_drivers/r_riic/src/hld/r_riic_hld_prv.c **** 
1126:../generate/sc_drivers/r_riic/src/hld/r_riic_hld_prv.c ****     /* reset flag */
1127:../generate/sc_drivers/r_riic/src/hld/r_riic_hld_prv.c ****     gs_riic_timeout_flg[channel] = DRV_FLAG_OFF_PRV_;
1128:../generate/sc_drivers/r_riic/src/hld/r_riic_hld_prv.c **** 
1129:../generate/sc_drivers/r_riic/src/hld/r_riic_hld_prv.c ****     /* start timeout monitor */
1130:../generate/sc_drivers/r_riic/src/hld/r_riic_hld_prv.c ****     R_RIIC_DetectTimeoutStart(channel);
1131:../generate/sc_drivers/r_riic/src/hld/r_riic_hld_prv.c **** 
1132:../generate/sc_drivers/r_riic/src/hld/r_riic_hld_prv.c **** #endif /* SW_TIMEOUT_ENABLED_PRV_ */
1133:../generate/sc_drivers/r_riic/src/hld/r_riic_hld_prv.c **** }
1134:../generate/sc_drivers/r_riic/src/hld/r_riic_hld_prv.c **** /*******************************************************************************
1135:../generate/sc_drivers/r_riic/src/hld/r_riic_hld_prv.c ****  End of function start_timeout_monitor
1136:../generate/sc_drivers/r_riic/src/hld/r_riic_hld_prv.c ****  ******************************************************************************/
1137:../generate/sc_drivers/r_riic/src/hld/r_riic_hld_prv.c **** 
1138:../generate/sc_drivers/r_riic/src/hld/r_riic_hld_prv.c **** /**
1139:../generate/sc_drivers/r_riic/src/hld/r_riic_hld_prv.c ****  * @brief Disable timeout monitor
1140:../generate/sc_drivers/r_riic/src/hld/r_riic_hld_prv.c ****  * @param[in] channel : the device specific channel number (< RIIC_CFG_LLD_NUM_CHANNELS)
1141:../generate/sc_drivers/r_riic/src/hld/r_riic_hld_prv.c ****  * @return    void
1142:../generate/sc_drivers/r_riic/src/hld/r_riic_hld_prv.c ****  **/
1143:../generate/sc_drivers/r_riic/src/hld/r_riic_hld_prv.c **** static void stop_timeout_monitor (int_t channel)
1144:../generate/sc_drivers/r_riic/src/hld/r_riic_hld_prv.c **** {
1145:../generate/sc_drivers/r_riic/src/hld/r_riic_hld_prv.c **** #if (1u == SW_TIMEOUT_ENABLED_PRV_)
1146:../generate/sc_drivers/r_riic/src/hld/r_riic_hld_prv.c ****     /* nothing to do for software timeout */
1147:../generate/sc_drivers/r_riic/src/hld/r_riic_hld_prv.c ****     ;
1148:../generate/sc_drivers/r_riic/src/hld/r_riic_hld_prv.c **** 
1149:../generate/sc_drivers/r_riic/src/hld/r_riic_hld_prv.c **** #else
1150:../generate/sc_drivers/r_riic/src/hld/r_riic_hld_prv.c **** 
1151:../generate/sc_drivers/r_riic/src/hld/r_riic_hld_prv.c ****     /* reset flag */
1152:../generate/sc_drivers/r_riic/src/hld/r_riic_hld_prv.c ****     gs_riic_timeout_flg[channel] = DRV_FLAG_OFF_PRV_;
1153:../generate/sc_drivers/r_riic/src/hld/r_riic_hld_prv.c **** 
1154:../generate/sc_drivers/r_riic/src/hld/r_riic_hld_prv.c ****     /* stop timeout monitor */
1155:../generate/sc_drivers/r_riic/src/hld/r_riic_hld_prv.c ****     R_RIIC_DetectTimeoutStop(channel);
1156:../generate/sc_drivers/r_riic/src/hld/r_riic_hld_prv.c **** 
1157:../generate/sc_drivers/r_riic/src/hld/r_riic_hld_prv.c **** #endif /* SW_TIMEOUT_ENABLED_PRV_ */
1158:../generate/sc_drivers/r_riic/src/hld/r_riic_hld_prv.c **** }
1159:../generate/sc_drivers/r_riic/src/hld/r_riic_hld_prv.c **** /*******************************************************************************
1160:../generate/sc_drivers/r_riic/src/hld/r_riic_hld_prv.c ****  End of function stop_timeout_monitor
1161:../generate/sc_drivers/r_riic/src/hld/r_riic_hld_prv.c ****  ******************************************************************************/
1162:../generate/sc_drivers/r_riic/src/hld/r_riic_hld_prv.c **** 
1163:../generate/sc_drivers/r_riic/src/hld/r_riic_hld_prv.c **** /**
1164:../generate/sc_drivers/r_riic/src/hld/r_riic_hld_prv.c ****  * @brief Determine timeout status
1165:../generate/sc_drivers/r_riic/src/hld/r_riic_hld_prv.c ****  * @param[in] channel : the device specific channel number (< RIIC_CFG_LLD_NUM_CHANNELS)
1166:../generate/sc_drivers/r_riic/src/hld/r_riic_hld_prv.c ****  * @return    DRV_ERROR or DRV_SUCCESS
1167:../generate/sc_drivers/r_riic/src/hld/r_riic_hld_prv.c ****  **/
1168:../generate/sc_drivers/r_riic/src/hld/r_riic_hld_prv.c **** static int_t get_timeout_status (int_t channel)
1169:../generate/sc_drivers/r_riic/src/hld/r_riic_hld_prv.c **** {
  25              		.loc 1 1169 0
  26              		.cfi_startproc
  27              		@ args = 0, pretend = 0, frame = 0
  28              		@ frame_needed = 0, uses_anonymous_args = 0
  29              		@ link register save eliminated.
  30              	.LVL0:
  31 0000 0020A0E1 		mov	r2, r0
  32              	.LVL1:
1170:../generate/sc_drivers/r_riic/src/hld/r_riic_hld_prv.c ****     int_t status = DRV_SUCCESS;
1171:../generate/sc_drivers/r_riic/src/hld/r_riic_hld_prv.c **** 
1172:../generate/sc_drivers/r_riic/src/hld/r_riic_hld_prv.c **** #if (1u == SW_TIMEOUT_ENABLED_PRV_)
1173:../generate/sc_drivers/r_riic/src/hld/r_riic_hld_prv.c **** 
1174:../generate/sc_drivers/r_riic/src/hld/r_riic_hld_prv.c ****     /* decrement timer */
1175:../generate/sc_drivers/r_riic/src/hld/r_riic_hld_prv.c ****     if (gs_sw_timeout_counter)
1176:../generate/sc_drivers/r_riic/src/hld/r_riic_hld_prv.c ****     {
1177:../generate/sc_drivers/r_riic/src/hld/r_riic_hld_prv.c ****         gs_sw_timeout_counter--;
1178:../generate/sc_drivers/r_riic/src/hld/r_riic_hld_prv.c ****     }
1179:../generate/sc_drivers/r_riic/src/hld/r_riic_hld_prv.c **** 
1180:../generate/sc_drivers/r_riic/src/hld/r_riic_hld_prv.c ****     /* check for timeout */
1181:../generate/sc_drivers/r_riic/src/hld/r_riic_hld_prv.c ****     if (0u == gs_sw_timeout_counter)
1182:../generate/sc_drivers/r_riic/src/hld/r_riic_hld_prv.c ****     {
1183:../generate/sc_drivers/r_riic/src/hld/r_riic_hld_prv.c ****         status = DRV_ERROR;
1184:../generate/sc_drivers/r_riic/src/hld/r_riic_hld_prv.c ****     }
1185:../generate/sc_drivers/r_riic/src/hld/r_riic_hld_prv.c **** 
1186:../generate/sc_drivers/r_riic/src/hld/r_riic_hld_prv.c **** #else
1187:../generate/sc_drivers/r_riic/src/hld/r_riic_hld_prv.c **** 
1188:../generate/sc_drivers/r_riic/src/hld/r_riic_hld_prv.c ****     if (DRV_FLAG_OFF_PRV_ != gs_riic_timeout_flg[channel])
  33              		.loc 1 1188 0
  34 0004 003000E3 		movw	r3, #:lower16:.LANCHOR0
  35 0008 003040E3 		movt	r3, #:upper16:.LANCHOR0
  36 000c 0030D3E7 		ldrb	r3, [r3, r0]	@ zero_extendqisi2
  37 0010 FF0013E3 		tst	r3, #255
  38 0014 0500001A 		bne	.L3
1170:../generate/sc_drivers/r_riic/src/hld/r_riic_hld_prv.c ****     int_t status = DRV_SUCCESS;
  39              		.loc 1 1170 0
  40 0018 0000A0E3 		mov	r0, #0
  41              	.LVL2:
  42              	.L2:
1189:../generate/sc_drivers/r_riic/src/hld/r_riic_hld_prv.c ****     {
1190:../generate/sc_drivers/r_riic/src/hld/r_riic_hld_prv.c ****         status = DRV_ERROR;
1191:../generate/sc_drivers/r_riic/src/hld/r_riic_hld_prv.c ****     }
1192:../generate/sc_drivers/r_riic/src/hld/r_riic_hld_prv.c **** 
1193:../generate/sc_drivers/r_riic/src/hld/r_riic_hld_prv.c ****     /* reset flag if set */
1194:../generate/sc_drivers/r_riic/src/hld/r_riic_hld_prv.c ****     gs_riic_timeout_flg[channel] = DRV_FLAG_OFF_PRV_;
  43              		.loc 1 1194 0
  44 001c 003000E3 		movw	r3, #:lower16:.LANCHOR0
  45 0020 003040E3 		movt	r3, #:upper16:.LANCHOR0
  46 0024 0010A0E3 		mov	r1, #0
  47 0028 0210C3E7 		strb	r1, [r3, r2]
1195:../generate/sc_drivers/r_riic/src/hld/r_riic_hld_prv.c **** 
1196:../generate/sc_drivers/r_riic/src/hld/r_riic_hld_prv.c **** #endif /* SW_TIMEOUT_ENABLED_PRV_ */
1197:../generate/sc_drivers/r_riic/src/hld/r_riic_hld_prv.c **** 
1198:../generate/sc_drivers/r_riic/src/hld/r_riic_hld_prv.c ****     /* return status */
1199:../generate/sc_drivers/r_riic/src/hld/r_riic_hld_prv.c ****     return (status);
1200:../generate/sc_drivers/r_riic/src/hld/r_riic_hld_prv.c **** }
  48              		.loc 1 1200 0
  49 002c 1EFF2FE1 		bx	lr
  50              	.LVL3:
  51              	.L3:
1190:../generate/sc_drivers/r_riic/src/hld/r_riic_hld_prv.c ****     }
  52              		.loc 1 1190 0
  53 0030 0000E0E3 		mvn	r0, #0
  54              	.LVL4:
  55 0034 F8FFFFEA 		b	.L2
  56              		.cfi_endproc
  57              	.LFE21:
  59              		.section	.text.riic_setup,"ax",%progbits
  60              		.align	2
  61              		.syntax unified
  62              		.arm
  63              		.fpu neon
  65              	riic_setup:
  66              	.LFB1:
 120:../generate/sc_drivers/r_riic/src/hld/r_riic_hld_prv.c ****     int_t gpio_handle = ( -1);
  67              		.loc 1 120 0
  68              		.cfi_startproc
  69              		@ args = 0, pretend = 0, frame = 0
  70              		@ frame_needed = 0, uses_anonymous_args = 0
  71              	.LVL5:
  72 0000 70402DE9 		push	{r4, r5, r6, lr}
  73              		.cfi_def_cfa_offset 16
  74              		.cfi_offset 4, -16
  75              		.cfi_offset 5, -12
  76              		.cfi_offset 6, -8
  77              		.cfi_offset 14, -4
  78 0004 0050A0E1 		mov	r5, r0
  79              	.LVL6:
 122:../generate/sc_drivers/r_riic/src/hld/r_riic_hld_prv.c **** 
  80              		.loc 1 122 0
  81 0008 0010A0E3 		mov	r1, #0
  82 000c 000000E3 		movw	r0, #:lower16:.LC0
  83              	.LVL7:
  84 0010 000040E3 		movt	r0, #:upper16:.LC0
  85 0014 FEFFFFEB 		bl	direct_open
  86              	.LVL8:
 124:../generate/sc_drivers/r_riic/src/hld/r_riic_hld_prv.c ****     {
  87              		.loc 1 124 0
  88 0018 010070E3 		cmn	r0, #1
  89 001c 0500000A 		beq	.L5
  90 0020 0040A0E1 		mov	r4, r0
 127:../generate/sc_drivers/r_riic/src/hld/r_riic_hld_prv.c ****         direct_close(gpio_handle);
  91              		.loc 1 127 0
  92 0024 382085E2 		add	r2, r5, #56
  93 0028 0410A0E3 		mov	r1, #4
  94 002c FEFFFFEB 		bl	direct_control
  95              	.LVL9:
 128:../generate/sc_drivers/r_riic/src/hld/r_riic_hld_prv.c ****     }
  96              		.loc 1 128 0
  97 0030 0400A0E1 		mov	r0, r4
  98 0034 FEFFFFEB 		bl	direct_close
  99              	.LVL10:
 100              	.L5:
 132:../generate/sc_drivers/r_riic/src/hld/r_riic_hld_prv.c **** /******************************************************************************
 101              		.loc 1 132 0
 102 0038 0000A0E3 		mov	r0, #0
 103 003c 7080BDE8 		pop	{r4, r5, r6, pc}
 104              		.cfi_endproc
 105              	.LFE1:
 107              		.section	.text.start_timeout_monitor,"ax",%progbits
 108              		.align	2
 109              		.syntax unified
 110              		.arm
 111              		.fpu neon
 113              	start_timeout_monitor:
 114              	.LFB19:
1120:../generate/sc_drivers/r_riic/src/hld/r_riic_hld_prv.c **** #if (1u == SW_TIMEOUT_ENABLED_PRV_)
 115              		.loc 1 1120 0
 116              		.cfi_startproc
 117              		@ args = 0, pretend = 0, frame = 0
 118              		@ frame_needed = 0, uses_anonymous_args = 0
 119              	.LVL11:
 120 0000 10402DE9 		push	{r4, lr}
 121              		.cfi_def_cfa_offset 8
 122              		.cfi_offset 4, -8
 123              		.cfi_offset 14, -4
1127:../generate/sc_drivers/r_riic/src/hld/r_riic_hld_prv.c **** 
 124              		.loc 1 1127 0
 125 0004 003000E3 		movw	r3, #:lower16:.LANCHOR0
 126 0008 003040E3 		movt	r3, #:upper16:.LANCHOR0
 127 000c 0010A0E3 		mov	r1, #0
 128 0010 0010C3E7 		strb	r1, [r3, r0]
1130:../generate/sc_drivers/r_riic/src/hld/r_riic_hld_prv.c **** 
 129              		.loc 1 1130 0
 130 0014 FEFFFFEB 		bl	R_RIIC_DetectTimeoutStart
 131              	.LVL12:
 132 0018 1080BDE8 		pop	{r4, pc}
 133              		.cfi_endproc
 134              	.LFE19:
 136              		.section	.text.stop_timeout_monitor,"ax",%progbits
 137              		.align	2
 138              		.syntax unified
 139              		.arm
 140              		.fpu neon
 142              	stop_timeout_monitor:
 143              	.LFB20:
1144:../generate/sc_drivers/r_riic/src/hld/r_riic_hld_prv.c **** #if (1u == SW_TIMEOUT_ENABLED_PRV_)
 144              		.loc 1 1144 0
 145              		.cfi_startproc
 146              		@ args = 0, pretend = 0, frame = 0
 147              		@ frame_needed = 0, uses_anonymous_args = 0
 148              	.LVL13:
 149 0000 10402DE9 		push	{r4, lr}
 150              		.cfi_def_cfa_offset 8
 151              		.cfi_offset 4, -8
 152              		.cfi_offset 14, -4
1152:../generate/sc_drivers/r_riic/src/hld/r_riic_hld_prv.c **** 
 153              		.loc 1 1152 0
 154 0004 003000E3 		movw	r3, #:lower16:.LANCHOR0
 155 0008 003040E3 		movt	r3, #:upper16:.LANCHOR0
 156 000c 0010A0E3 		mov	r1, #0
 157 0010 0010C3E7 		strb	r1, [r3, r0]
1155:../generate/sc_drivers/r_riic/src/hld/r_riic_hld_prv.c **** 
 158              		.loc 1 1155 0
 159 0014 FEFFFFEB 		bl	R_RIIC_DetectTimeoutStop
 160              	.LVL14:
 161 0018 1080BDE8 		pop	{r4, pc}
 162              		.cfi_endproc
 163              	.LFE20:
 165              		.section	.text.wait_bus_master,"ax",%progbits
 166              		.align	2
 167              		.syntax unified
 168              		.arm
 169              		.fpu neon
 171              	wait_bus_master:
 172              	.LFB17:
1055:../generate/sc_drivers/r_riic/src/hld/r_riic_hld_prv.c ****     int_t timeout_monitor = DRV_SUCCESS;
 173              		.loc 1 1055 0
 174              		.cfi_startproc
 175              		@ args = 0, pretend = 0, frame = 0
 176              		@ frame_needed = 0, uses_anonymous_args = 0
 177              	.LVL15:
 178 0000 70402DE9 		push	{r4, r5, r6, lr}
 179              		.cfi_def_cfa_offset 16
 180              		.cfi_offset 4, -16
 181              		.cfi_offset 5, -12
 182              		.cfi_offset 6, -8
 183              		.cfi_offset 14, -4
 184 0004 0040A0E1 		mov	r4, r0
 185 0008 0150A0E1 		mov	r5, r1
 186              	.LVL16:
1059:../generate/sc_drivers/r_riic/src/hld/r_riic_hld_prv.c **** 
 187              		.loc 1 1059 0
 188 000c FEFFFFEB 		bl	R_RIIC_ReleaseLowHold
 189              	.LVL17:
1062:../generate/sc_drivers/r_riic/src/hld/r_riic_hld_prv.c **** 
 190              		.loc 1 1062 0
 191 0010 0400A0E1 		mov	r0, r4
 192 0014 FEFFFFEB 		bl	start_timeout_monitor
 193              	.LVL18:
1064:../generate/sc_drivers/r_riic/src/hld/r_riic_hld_prv.c ****     {
 194              		.loc 1 1064 0
 195 0018 000055E3 		cmp	r5, #0
 196 001c 0200000A 		beq	.L16
1057:../generate/sc_drivers/r_riic/src/hld/r_riic_hld_prv.c **** 
 197              		.loc 1 1057 0
 198 0020 0060A0E3 		mov	r6, #0
 199              	.L12:
 200 0024 0050A0E3 		mov	r5, #0
 201              	.LVL19:
 202 0028 040000EA 		b	.L13
 203              	.LVL20:
 204              	.L16:
1066:../generate/sc_drivers/r_riic/src/hld/r_riic_hld_prv.c ****     }
 205              		.loc 1 1066 0
 206 002c 0160A0E3 		mov	r6, #1
 207 0030 FBFFFFEA 		b	.L12
 208              	.LVL21:
 209              	.L15:
1072:../generate/sc_drivers/r_riic/src/hld/r_riic_hld_prv.c ****     }
 210              		.loc 1 1072 0
 211 0034 0400A0E1 		mov	r0, r4
 212 0038 FEFFFFEB 		bl	get_timeout_status
 213              	.LVL22:
 214 003c 0050A0E1 		mov	r5, r0
 215              	.LVL23:
 216              	.L13:
1069:../generate/sc_drivers/r_riic/src/hld/r_riic_hld_prv.c ****     {
 217              		.loc 1 1069 0
 218 0040 0400A0E1 		mov	r0, r4
 219 0044 FEFFFFEB 		bl	R_RIIC_IsBusBusy
 220              	.LVL24:
 221 0048 000056E1 		cmp	r6, r0
 222 004c 0100001A 		bne	.L14
1069:../generate/sc_drivers/r_riic/src/hld/r_riic_hld_prv.c ****     {
 223              		.loc 1 1069 0 is_stmt 0 discriminator 1
 224 0050 000055E3 		cmp	r5, #0
 225 0054 F6FFFF0A 		beq	.L15
 226              	.L14:
1076:../generate/sc_drivers/r_riic/src/hld/r_riic_hld_prv.c **** 
 227              		.loc 1 1076 0 is_stmt 1
 228 0058 0400A0E1 		mov	r0, r4
 229 005c FEFFFFEB 		bl	stop_timeout_monitor
 230              	.LVL25:
1080:../generate/sc_drivers/r_riic/src/hld/r_riic_hld_prv.c **** /*******************************************************************************
 231              		.loc 1 1080 0
 232 0060 0500A0E1 		mov	r0, r5
 233 0064 7080BDE8 		pop	{r4, r5, r6, pc}
 234              		.cfi_endproc
 235              	.LFE17:
 237              		.section	.text.wait_tx_empty,"ax",%progbits
 238              		.align	2
 239              		.syntax unified
 240              		.arm
 241              		.fpu neon
 243              	wait_tx_empty:
 244              	.LFB16:
1024:../generate/sc_drivers/r_riic/src/hld/r_riic_hld_prv.c ****     int_t timeout_monitor = DRV_SUCCESS;
 245              		.loc 1 1024 0
 246              		.cfi_startproc
 247              		@ args = 0, pretend = 0, frame = 0
 248              		@ frame_needed = 0, uses_anonymous_args = 0
 249              	.LVL26:
 250 0000 70402DE9 		push	{r4, r5, r6, lr}
 251              		.cfi_def_cfa_offset 16
 252              		.cfi_offset 4, -16
 253              		.cfi_offset 5, -12
 254              		.cfi_offset 6, -8
 255              		.cfi_offset 14, -4
 256 0004 0040A0E1 		mov	r4, r0
 257              	.LVL27:
1028:../generate/sc_drivers/r_riic/src/hld/r_riic_hld_prv.c **** 
 258              		.loc 1 1028 0
 259 0008 FEFFFFEB 		bl	start_timeout_monitor
 260              	.LVL28:
1025:../generate/sc_drivers/r_riic/src/hld/r_riic_hld_prv.c **** 
 261              		.loc 1 1025 0
 262 000c 0050A0E3 		mov	r5, #0
1031:../generate/sc_drivers/r_riic/src/hld/r_riic_hld_prv.c ****     {
 263              		.loc 1 1031 0
 264 0010 020000EA 		b	.L19
 265              	.LVL29:
 266              	.L21:
1034:../generate/sc_drivers/r_riic/src/hld/r_riic_hld_prv.c ****     }
 267              		.loc 1 1034 0
 268 0014 0400A0E1 		mov	r0, r4
 269 0018 FEFFFFEB 		bl	get_timeout_status
 270              	.LVL30:
 271 001c 0050A0E1 		mov	r5, r0
 272              	.LVL31:
 273              	.L19:
1031:../generate/sc_drivers/r_riic/src/hld/r_riic_hld_prv.c ****     {
 274              		.loc 1 1031 0
 275 0020 003000E3 		movw	r3, #:lower16:.LANCHOR1
 276 0024 003040E3 		movt	r3, #:upper16:.LANCHOR1
 277 0028 0430D3E7 		ldrb	r3, [r3, r4]	@ zero_extendqisi2
 278 002c FF0013E3 		tst	r3, #255
 279 0030 0100001A 		bne	.L20
1031:../generate/sc_drivers/r_riic/src/hld/r_riic_hld_prv.c ****     {
 280              		.loc 1 1031 0 is_stmt 0 discriminator 1
 281 0034 000055E3 		cmp	r5, #0
 282 0038 F5FFFF0A 		beq	.L21
 283              	.L20:
1038:../generate/sc_drivers/r_riic/src/hld/r_riic_hld_prv.c **** 
 284              		.loc 1 1038 0 is_stmt 1
 285 003c 0400A0E1 		mov	r0, r4
 286 0040 FEFFFFEB 		bl	stop_timeout_monitor
 287              	.LVL32:
1042:../generate/sc_drivers/r_riic/src/hld/r_riic_hld_prv.c **** /*******************************************************************************
 288              		.loc 1 1042 0
 289 0044 0500A0E1 		mov	r0, r5
 290 0048 7080BDE8 		pop	{r4, r5, r6, pc}
 291              		.cfi_endproc
 292              	.LFE16:
 294              		.section	.text.wait_tx_end,"ax",%progbits
 295              		.align	2
 296              		.syntax unified
 297              		.arm
 298              		.fpu neon
 300              	wait_tx_end:
 301              	.LFB14:
 954:../generate/sc_drivers/r_riic/src/hld/r_riic_hld_prv.c ****     int_t timeout_monitor = DRV_SUCCESS;
 302              		.loc 1 954 0
 303              		.cfi_startproc
 304              		@ args = 0, pretend = 0, frame = 0
 305              		@ frame_needed = 0, uses_anonymous_args = 0
 306              	.LVL33:
 307 0000 70402DE9 		push	{r4, r5, r6, lr}
 308              		.cfi_def_cfa_offset 16
 309              		.cfi_offset 4, -16
 310              		.cfi_offset 5, -12
 311              		.cfi_offset 6, -8
 312              		.cfi_offset 14, -4
 313 0004 0040A0E1 		mov	r4, r0
 314 0008 0150A0E1 		mov	r5, r1
 315              	.LVL34:
 958:../generate/sc_drivers/r_riic/src/hld/r_riic_hld_prv.c **** 
 316              		.loc 1 958 0
 317 000c FEFFFFEB 		bl	start_timeout_monitor
 318              	.LVL35:
 960:../generate/sc_drivers/r_riic/src/hld/r_riic_hld_prv.c ****     {
 319              		.loc 1 960 0
 320 0010 000055E3 		cmp	r5, #0
 321 0014 0F00000A 		beq	.L29
 322 0018 0050A0E3 		mov	r5, #0
 323              	.LVL36:
 324 001c 120000EA 		b	.L25
 325              	.LVL37:
 326              	.L27:
 966:../generate/sc_drivers/r_riic/src/hld/r_riic_hld_prv.c ****         }
 327              		.loc 1 966 0
 328 0020 0400A0E1 		mov	r0, r4
 329 0024 FEFFFFEB 		bl	get_timeout_status
 330              	.LVL38:
 331 0028 0050A0E1 		mov	r5, r0
 332              	.LVL39:
 333              	.L24:
 963:../generate/sc_drivers/r_riic/src/hld/r_riic_hld_prv.c ****         {
 334              		.loc 1 963 0
 335 002c 003000E3 		movw	r3, #:lower16:.LANCHOR2
 336 0030 003040E3 		movt	r3, #:upper16:.LANCHOR2
 337 0034 0430D3E7 		ldrb	r3, [r3, r4]	@ zero_extendqisi2
 338 0038 FF0013E3 		tst	r3, #255
 339 003c 0100001A 		bne	.L26
 963:../generate/sc_drivers/r_riic/src/hld/r_riic_hld_prv.c ****         {
 340              		.loc 1 963 0 is_stmt 0 discriminator 1
 341 0040 000055E3 		cmp	r5, #0
 342 0044 F5FFFF0A 		beq	.L27
 343              	.L26:
 980:../generate/sc_drivers/r_riic/src/hld/r_riic_hld_prv.c **** 
 344              		.loc 1 980 0 is_stmt 1
 345 0048 0400A0E1 		mov	r0, r4
 346 004c FEFFFFEB 		bl	stop_timeout_monitor
 347              	.LVL40:
 984:../generate/sc_drivers/r_riic/src/hld/r_riic_hld_prv.c **** /*******************************************************************************
 348              		.loc 1 984 0
 349 0050 0500A0E1 		mov	r0, r5
 350 0054 7080BDE8 		pop	{r4, r5, r6, pc}
 351              	.LVL41:
 352              	.L29:
 353 0058 0050A0E3 		mov	r5, #0
 354              	.LVL42:
 355 005c F2FFFFEA 		b	.L24
 356              	.LVL43:
 357              	.L28:
 975:../generate/sc_drivers/r_riic/src/hld/r_riic_hld_prv.c ****         }
 358              		.loc 1 975 0
 359 0060 0400A0E1 		mov	r0, r4
 360 0064 FEFFFFEB 		bl	get_timeout_status
 361              	.LVL44:
 362 0068 0050A0E1 		mov	r5, r0
 363              	.LVL45:
 364              	.L25:
 972:../generate/sc_drivers/r_riic/src/hld/r_riic_hld_prv.c ****         {
 365              		.loc 1 972 0
 366 006c 003000E3 		movw	r3, #:lower16:.LANCHOR3
 367 0070 003040E3 		movt	r3, #:upper16:.LANCHOR3
 368 0074 0430D3E7 		ldrb	r3, [r3, r4]	@ zero_extendqisi2
 369 0078 FF0013E3 		tst	r3, #255
 370 007c F1FFFF1A 		bne	.L26
 972:../generate/sc_drivers/r_riic/src/hld/r_riic_hld_prv.c ****         {
 371              		.loc 1 972 0 is_stmt 0 discriminator 1
 372 0080 000055E3 		cmp	r5, #0
 373 0084 F5FFFF0A 		beq	.L28
 374 0088 EEFFFFEA 		b	.L26
 375              		.cfi_endproc
 376              	.LFE14:
 378              		.section	.text.wait_rx_full,"ax",%progbits
 379              		.align	2
 380              		.syntax unified
 381              		.arm
 382              		.fpu neon
 384              	wait_rx_full:
 385              	.LFB15:
 995:../generate/sc_drivers/r_riic/src/hld/r_riic_hld_prv.c ****     int_t timeout_monitor = DRV_SUCCESS;
 386              		.loc 1 995 0 is_stmt 1
 387              		.cfi_startproc
 388              		@ args = 0, pretend = 0, frame = 0
 389              		@ frame_needed = 0, uses_anonymous_args = 0
 390              	.LVL46:
 391 0000 70402DE9 		push	{r4, r5, r6, lr}
 392              		.cfi_def_cfa_offset 16
 393              		.cfi_offset 4, -16
 394              		.cfi_offset 5, -12
 395              		.cfi_offset 6, -8
 396              		.cfi_offset 14, -4
 397 0004 0040A0E1 		mov	r4, r0
 398              	.LVL47:
 999:../generate/sc_drivers/r_riic/src/hld/r_riic_hld_prv.c **** 
 399              		.loc 1 999 0
 400 0008 FEFFFFEB 		bl	start_timeout_monitor
 401              	.LVL48:
 996:../generate/sc_drivers/r_riic/src/hld/r_riic_hld_prv.c **** 
 402              		.loc 1 996 0
 403 000c 0050A0E3 		mov	r5, #0
1002:../generate/sc_drivers/r_riic/src/hld/r_riic_hld_prv.c ****     {
 404              		.loc 1 1002 0
 405 0010 020000EA 		b	.L32
 406              	.LVL49:
 407              	.L34:
1005:../generate/sc_drivers/r_riic/src/hld/r_riic_hld_prv.c ****     }
 408              		.loc 1 1005 0
 409 0014 0400A0E1 		mov	r0, r4
 410 0018 FEFFFFEB 		bl	get_timeout_status
 411              	.LVL50:
 412 001c 0050A0E1 		mov	r5, r0
 413              	.LVL51:
 414              	.L32:
1002:../generate/sc_drivers/r_riic/src/hld/r_riic_hld_prv.c ****     {
 415              		.loc 1 1002 0
 416 0020 003000E3 		movw	r3, #:lower16:.LANCHOR3
 417 0024 003040E3 		movt	r3, #:upper16:.LANCHOR3
 418 0028 0430D3E7 		ldrb	r3, [r3, r4]	@ zero_extendqisi2
 419 002c FF0013E3 		tst	r3, #255
 420 0030 0100001A 		bne	.L33
1002:../generate/sc_drivers/r_riic/src/hld/r_riic_hld_prv.c ****     {
 421              		.loc 1 1002 0 is_stmt 0 discriminator 1
 422 0034 000055E3 		cmp	r5, #0
 423 0038 F5FFFF0A 		beq	.L34
 424              	.L33:
1009:../generate/sc_drivers/r_riic/src/hld/r_riic_hld_prv.c **** 
 425              		.loc 1 1009 0 is_stmt 1
 426 003c 0400A0E1 		mov	r0, r4
 427 0040 FEFFFFEB 		bl	stop_timeout_monitor
 428              	.LVL52:
1013:../generate/sc_drivers/r_riic/src/hld/r_riic_hld_prv.c **** /*******************************************************************************
 429              		.loc 1 1013 0
 430 0044 0500A0E1 		mov	r0, r5
 431 0048 7080BDE8 		pop	{r4, r5, r6, pc}
 432              		.cfi_endproc
 433              	.LFE15:
 435              		.section	.text.wait_stop,"ax",%progbits
 436              		.align	2
 437              		.syntax unified
 438              		.arm
 439              		.fpu neon
 441              	wait_stop:
 442              	.LFB18:
1091:../generate/sc_drivers/r_riic/src/hld/r_riic_hld_prv.c ****     int_t timeout_monitor = DRV_SUCCESS;
 443              		.loc 1 1091 0
 444              		.cfi_startproc
 445              		@ args = 0, pretend = 0, frame = 0
 446              		@ frame_needed = 0, uses_anonymous_args = 0
 447              	.LVL53:
 448 0000 70402DE9 		push	{r4, r5, r6, lr}
 449              		.cfi_def_cfa_offset 16
 450              		.cfi_offset 4, -16
 451              		.cfi_offset 5, -12
 452              		.cfi_offset 6, -8
 453              		.cfi_offset 14, -4
 454 0004 0040A0E1 		mov	r4, r0
 455              	.LVL54:
1095:../generate/sc_drivers/r_riic/src/hld/r_riic_hld_prv.c **** 
 456              		.loc 1 1095 0
 457 0008 FEFFFFEB 		bl	start_timeout_monitor
 458              	.LVL55:
1092:../generate/sc_drivers/r_riic/src/hld/r_riic_hld_prv.c **** 
 459              		.loc 1 1092 0
 460 000c 0050A0E3 		mov	r5, #0
1098:../generate/sc_drivers/r_riic/src/hld/r_riic_hld_prv.c ****     {
 461              		.loc 1 1098 0
 462 0010 020000EA 		b	.L37
 463              	.LVL56:
 464              	.L39:
1101:../generate/sc_drivers/r_riic/src/hld/r_riic_hld_prv.c ****     }
 465              		.loc 1 1101 0
 466 0014 0400A0E1 		mov	r0, r4
 467 0018 FEFFFFEB 		bl	get_timeout_status
 468              	.LVL57:
 469 001c 0050A0E1 		mov	r5, r0
 470              	.LVL58:
 471              	.L37:
1098:../generate/sc_drivers/r_riic/src/hld/r_riic_hld_prv.c ****     {
 472              		.loc 1 1098 0
 473 0020 003000E3 		movw	r3, #:lower16:.LANCHOR4
 474 0024 003040E3 		movt	r3, #:upper16:.LANCHOR4
 475 0028 0430D3E7 		ldrb	r3, [r3, r4]	@ zero_extendqisi2
 476 002c FF0013E3 		tst	r3, #255
 477 0030 0100001A 		bne	.L38
1098:../generate/sc_drivers/r_riic/src/hld/r_riic_hld_prv.c ****     {
 478              		.loc 1 1098 0 is_stmt 0 discriminator 1
 479 0034 000055E3 		cmp	r5, #0
 480 0038 F5FFFF0A 		beq	.L39
 481              	.L38:
1105:../generate/sc_drivers/r_riic/src/hld/r_riic_hld_prv.c **** 
 482              		.loc 1 1105 0 is_stmt 1
 483 003c 0400A0E1 		mov	r0, r4
 484 0040 FEFFFFEB 		bl	stop_timeout_monitor
 485              	.LVL59:
1109:../generate/sc_drivers/r_riic/src/hld/r_riic_hld_prv.c **** /*******************************************************************************
 486              		.loc 1 1109 0
 487 0044 0500A0E1 		mov	r0, r5
 488 0048 7080BDE8 		pop	{r4, r5, r6, pc}
 489              		.cfi_endproc
 490              	.LFE18:
 492              		.section	.text.transmit_start,"ax",%progbits
 493              		.align	2
 494              		.syntax unified
 495              		.arm
 496              		.fpu neon
 498              	transmit_start:
 499              	.LFB9:
 593:../generate/sc_drivers/r_riic/src/hld/r_riic_hld_prv.c ****     /* Wait for the bus to be free */
 500              		.loc 1 593 0
 501              		.cfi_startproc
 502              		@ args = 0, pretend = 0, frame = 0
 503              		@ frame_needed = 0, uses_anonymous_args = 0
 504              	.LVL60:
 505 0000 70402DE9 		push	{r4, r5, r6, lr}
 506              		.cfi_def_cfa_offset 16
 507              		.cfi_offset 4, -16
 508              		.cfi_offset 5, -12
 509              		.cfi_offset 6, -8
 510              		.cfi_offset 14, -4
 511 0004 0040A0E1 		mov	r4, r0
 595:../generate/sc_drivers/r_riic/src/hld/r_riic_hld_prv.c **** 
 512              		.loc 1 595 0
 513 0008 0010A0E3 		mov	r1, #0
 514 000c FEFFFFEB 		bl	wait_bus_master
 515              	.LVL61:
 516 0010 0050A0E1 		mov	r5, r0
 517              	.LVL62:
 598:../generate/sc_drivers/r_riic/src/hld/r_riic_hld_prv.c **** 
 518              		.loc 1 598 0
 519 0014 0400A0E1 		mov	r0, r4
 520              	.LVL63:
 521 0018 FEFFFFEB 		bl	start_timeout_monitor
 522              	.LVL64:
 600:../generate/sc_drivers/r_riic/src/hld/r_riic_hld_prv.c ****     {
 523              		.loc 1 600 0
 524 001c 000055E3 		cmp	r5, #0
 525 0020 0100000A 		beq	.L44
 526              	.L41:
 613:../generate/sc_drivers/r_riic/src/hld/r_riic_hld_prv.c **** /*******************************************************************************
 527              		.loc 1 613 0
 528 0024 0500A0E1 		mov	r0, r5
 529 0028 7080BDE8 		pop	{r4, r5, r6, pc}
 530              	.L44:
 603:../generate/sc_drivers/r_riic/src/hld/r_riic_hld_prv.c ****         gs_riic_transmit_empty_flg[channel] = DRV_FLAG_OFF_PRV_;
 531              		.loc 1 603 0
 532 002c 003000E3 		movw	r3, #:lower16:.LANCHOR3
 533 0030 003040E3 		movt	r3, #:upper16:.LANCHOR3
 534 0034 0020A0E3 		mov	r2, #0
 535 0038 0420C3E7 		strb	r2, [r3, r4]
 604:../generate/sc_drivers/r_riic/src/hld/r_riic_hld_prv.c ****         gs_riic_transmit_end_flg[channel] = DRV_FLAG_OFF_PRV_;
 536              		.loc 1 604 0
 537 003c 003000E3 		movw	r3, #:lower16:.LANCHOR1
 538 0040 003040E3 		movt	r3, #:upper16:.LANCHOR1
 539 0044 0420C3E7 		strb	r2, [r3, r4]
 605:../generate/sc_drivers/r_riic/src/hld/r_riic_hld_prv.c **** 
 540              		.loc 1 605 0
 541 0048 003000E3 		movw	r3, #:lower16:.LANCHOR2
 542 004c 003040E3 		movt	r3, #:upper16:.LANCHOR2
 543 0050 0420C3E7 		strb	r2, [r3, r4]
 608:../generate/sc_drivers/r_riic/src/hld/r_riic_hld_prv.c ****     }
 544              		.loc 1 608 0
 545 0054 0400A0E1 		mov	r0, r4
 546 0058 FEFFFFEB 		bl	R_RIIC_TransmitStart
 547              	.LVL65:
 612:../generate/sc_drivers/r_riic/src/hld/r_riic_hld_prv.c **** }
 548              		.loc 1 612 0
 549 005c F0FFFFEA 		b	.L41
 550              		.cfi_endproc
 551              	.LFE9:
 553              		.section	.text.riic_transmit,"ax",%progbits
 554              		.align	2
 555              		.syntax unified
 556              		.arm
 557              		.fpu neon
 559              	riic_transmit:
 560              	.LFB8:
 541:../generate/sc_drivers/r_riic/src/hld/r_riic_hld_prv.c ****     int_t ret = DRV_ERROR;
 561              		.loc 1 541 0
 562              		.cfi_startproc
 563              		@ args = 0, pretend = 0, frame = 0
 564              		@ frame_needed = 0, uses_anonymous_args = 0
 565              	.LVL66:
 566 0000 70402DE9 		push	{r4, r5, r6, lr}
 567              		.cfi_def_cfa_offset 16
 568              		.cfi_offset 4, -16
 569              		.cfi_offset 5, -12
 570              		.cfi_offset 6, -8
 571              		.cfi_offset 14, -4
 572              	.LVL67:
 545:../generate/sc_drivers/r_riic/src/hld/r_riic_hld_prv.c ****     {
 573              		.loc 1 545 0
 574 0004 003000E3 		movw	r3, #:lower16:.LANCHOR5
 575 0008 003040E3 		movt	r3, #:upper16:.LANCHOR5
 576 000c 0030D3E7 		ldrb	r3, [r3, r0]	@ zero_extendqisi2
 577 0010 FF0013E3 		tst	r3, #255
 578 0014 0800000A 		beq	.L48
 555:../generate/sc_drivers/r_riic/src/hld/r_riic_hld_prv.c ****         ret = DRV_ERROR;
 579              		.loc 1 555 0
 580 0018 003000E3 		movw	r3, #:lower16:.LANCHOR5
 581 001c 003040E3 		movt	r3, #:upper16:.LANCHOR5
 582 0020 0020A0E3 		mov	r2, #0
 583 0024 0020C3E7 		strb	r2, [r3, r0]
 556:../generate/sc_drivers/r_riic/src/hld/r_riic_hld_prv.c ****     }
 584              		.loc 1 556 0
 585 0028 0050E0E3 		mvn	r5, #0
 586              	.L46:
 587              	.LVL68:
 559:../generate/sc_drivers/r_riic/src/hld/r_riic_hld_prv.c ****     {
 588              		.loc 1 559 0
 589 002c 000055E3 		cmp	r5, #0
 590 0030 0300000A 		beq	.L50
 591              	.LVL69:
 592              	.L45:
 575:../generate/sc_drivers/r_riic/src/hld/r_riic_hld_prv.c **** /*******************************************************************************
 593              		.loc 1 575 0
 594 0034 0500A0E1 		mov	r0, r5
 595 0038 7080BDE8 		pop	{r4, r5, r6, pc}
 596              	.LVL70:
 597              	.L48:
 548:../generate/sc_drivers/r_riic/src/hld/r_riic_hld_prv.c ****     }
 598              		.loc 1 548 0
 599 003c 0050A0E3 		mov	r5, #0
 600 0040 F9FFFFEA 		b	.L46
 601              	.LVL71:
 602              	.L50:
 603 0044 0160A0E1 		mov	r6, r1
 604 0048 0040A0E1 		mov	r4, r0
 562:../generate/sc_drivers/r_riic/src/hld/r_riic_hld_prv.c **** 
 605              		.loc 1 562 0
 606 004c FEFFFFEB 		bl	wait_tx_empty
 607              	.LVL72:
 564:../generate/sc_drivers/r_riic/src/hld/r_riic_hld_prv.c ****         {
 608              		.loc 1 564 0
 609 0050 005050E2 		subs	r5, r0, #0
 610 0054 F6FFFF1A 		bne	.L45
 567:../generate/sc_drivers/r_riic/src/hld/r_riic_hld_prv.c **** 
 611              		.loc 1 567 0
 612 0058 003000E3 		movw	r3, #:lower16:.LANCHOR1
 613 005c 003040E3 		movt	r3, #:upper16:.LANCHOR1
 614 0060 0020A0E3 		mov	r2, #0
 615 0064 0420C3E7 		strb	r2, [r3, r4]
 570:../generate/sc_drivers/r_riic/src/hld/r_riic_hld_prv.c ****         }
 616              		.loc 1 570 0
 617 0068 0610A0E1 		mov	r1, r6
 618 006c 0400A0E1 		mov	r0, r4
 619              	.LVL73:
 620 0070 FEFFFFEB 		bl	R_RIIC_WriteByte
 621              	.LVL74:
 574:../generate/sc_drivers/r_riic/src/hld/r_riic_hld_prv.c **** }
 622              		.loc 1 574 0
 623 0074 EEFFFFEA 		b	.L45
 624              		.cfi_endproc
 625              	.LFE8:
 627              		.section	.text.riic_write,"ax",%progbits
 628              		.align	2
 629              		.syntax unified
 630              		.arm
 631              		.fpu neon
 633              	riic_write:
 634              	.LFB5:
 280:../generate/sc_drivers/r_riic/src/hld/r_riic_hld_prv.c ****     uint32_t offset;
 635              		.loc 1 280 0
 636              		.cfi_startproc
 637              		@ args = 0, pretend = 0, frame = 0
 638              		@ frame_needed = 0, uses_anonymous_args = 0
 639              	.LVL75:
 640 0000 F0412DE9 		push	{r4, r5, r6, r7, r8, lr}
 641              		.cfi_def_cfa_offset 24
 642              		.cfi_offset 4, -24
 643              		.cfi_offset 5, -20
 644              		.cfi_offset 6, -16
 645              		.cfi_offset 7, -12
 646              		.cfi_offset 8, -8
 647              		.cfi_offset 14, -4
 648              	.LVL76:
 284:../generate/sc_drivers/r_riic/src/hld/r_riic_hld_prv.c ****     {
 649              		.loc 1 284 0
 650 0004 005052E2 		subs	r5, r2, #0
 651 0008 0400000A 		beq	.L60
 652 000c 0170A0E1 		mov	r7, r1
 653 0010 0060A0E1 		mov	r6, r0
 654 0014 0000A0E3 		mov	r0, #0
 655              	.LVL77:
 656 0018 0040A0E1 		mov	r4, r0
 657 001c 020000EA 		b	.L52
 658              	.LVL78:
 659              	.L60:
 282:../generate/sc_drivers/r_riic/src/hld/r_riic_hld_prv.c **** 
 660              		.loc 1 282 0
 661 0020 0000A0E3 		mov	r0, #0
 662              	.LVL79:
 663 0024 F081BDE8 		pop	{r4, r5, r6, r7, r8, pc}
 664              	.LVL80:
 665              	.L54:
 286:../generate/sc_drivers/r_riic/src/hld/r_riic_hld_prv.c ****         {
 666              		.loc 1 286 0 discriminator 2
 667 0028 014084E2 		add	r4, r4, #1
 668              	.LVL81:
 669              	.L52:
 286:../generate/sc_drivers/r_riic/src/hld/r_riic_hld_prv.c ****         {
 670              		.loc 1 286 0 is_stmt 0 discriminator 1
 671 002c 050054E1 		cmp	r4, r5
 672 0030 0500002A 		bcs	.L61
 289:../generate/sc_drivers/r_riic/src/hld/r_riic_hld_prv.c **** 
 673              		.loc 1 289 0 is_stmt 1
 674 0034 0410D7E7 		ldrb	r1, [r7, r4]	@ zero_extendqisi2
 675 0038 0600A0E1 		mov	r0, r6
 676              	.LVL82:
 677 003c FEFFFFEB 		bl	riic_transmit
 678              	.LVL83:
 291:../generate/sc_drivers/r_riic/src/hld/r_riic_hld_prv.c ****             {
 679              		.loc 1 291 0
 680 0040 000050E3 		cmp	r0, #0
 294:../generate/sc_drivers/r_riic/src/hld/r_riic_hld_prv.c ****             }
 681              		.loc 1 294 0
 682 0044 0540A011 		movne	r4, r5
 683              	.LVL84:
 684 0048 F6FFFFEA 		b	.L54
 685              	.LVL85:
 686              	.L61:
 298:../generate/sc_drivers/r_riic/src/hld/r_riic_hld_prv.c ****         {
 687              		.loc 1 298 0
 688 004c 000050E3 		cmp	r0, #0
 689 0050 F081BD18 		popne	{r4, r5, r6, r7, r8, pc}
 300:../generate/sc_drivers/r_riic/src/hld/r_riic_hld_prv.c ****             if (DRV_SUCCESS == ret)
 690              		.loc 1 300 0
 691 0054 0010A0E3 		mov	r1, #0
 692 0058 0600A0E1 		mov	r0, r6
 693              	.LVL86:
 694 005c FEFFFFEB 		bl	wait_tx_end
 695              	.LVL87:
 301:../generate/sc_drivers/r_riic/src/hld/r_riic_hld_prv.c ****             {
 696              		.loc 1 301 0
 697 0060 000050E3 		cmp	r0, #0
 698 0064 F081BD18 		popne	{r4, r5, r6, r7, r8, pc}
 304:../generate/sc_drivers/r_riic/src/hld/r_riic_hld_prv.c **** 
 699              		.loc 1 304 0
 700 0068 003000E3 		movw	r3, #:lower16:.LANCHOR2
 701 006c 003040E3 		movt	r3, #:upper16:.LANCHOR2
 702 0070 0020A0E3 		mov	r2, #0
 703 0074 0620C3E7 		strb	r2, [r3, r6]
 307:../generate/sc_drivers/r_riic/src/hld/r_riic_hld_prv.c ****                 {
 704              		.loc 1 307 0
 705 0078 003000E3 		movw	r3, #:lower16:.LANCHOR5
 706 007c 003040E3 		movt	r3, #:upper16:.LANCHOR5
 707 0080 0630D3E7 		ldrb	r3, [r3, r6]	@ zero_extendqisi2
 708 0084 FF0013E3 		tst	r3, #255
 709 0088 0100001A 		bne	.L62
 310:../generate/sc_drivers/r_riic/src/hld/r_riic_hld_prv.c ****                 }
 710              		.loc 1 310 0
 711 008c 0000A0E3 		mov	r0, #0
 712              	.LVL88:
 326:../generate/sc_drivers/r_riic/src/hld/r_riic_hld_prv.c **** /******************************************************************************
 713              		.loc 1 326 0
 714 0090 F081BDE8 		pop	{r4, r5, r6, r7, r8, pc}
 715              	.LVL89:
 716              	.L62:
 317:../generate/sc_drivers/r_riic/src/hld/r_riic_hld_prv.c ****                     ret = DRV_ERROR;
 717              		.loc 1 317 0
 718 0094 003000E3 		movw	r3, #:lower16:.LANCHOR5
 719 0098 003040E3 		movt	r3, #:upper16:.LANCHOR5
 720 009c 0620C3E7 		strb	r2, [r3, r6]
 721              	.LVL90:
 318:../generate/sc_drivers/r_riic/src/hld/r_riic_hld_prv.c ****                 }
 722              		.loc 1 318 0
 723 00a0 0000E0E3 		mvn	r0, #0
 724 00a4 F081BDE8 		pop	{r4, r5, r6, r7, r8, pc}
 725              		.cfi_endproc
 726              	.LFE5:
 728              		.section	.text.riic_single_write,"ax",%progbits
 729              		.align	2
 730              		.syntax unified
 731              		.arm
 732              		.fpu neon
 734              	riic_single_write:
 735              	.LFB4:
 234:../generate/sc_drivers/r_riic/src/hld/r_riic_hld_prv.c ****     int_t ret;
 736              		.loc 1 234 0
 737              		.cfi_startproc
 738              		@ args = 0, pretend = 0, frame = 0
 739              		@ frame_needed = 0, uses_anonymous_args = 0
 740              	.LVL91:
 741 0000 70402DE9 		push	{r4, r5, r6, lr}
 742              		.cfi_def_cfa_offset 16
 743              		.cfi_offset 4, -16
 744              		.cfi_offset 5, -12
 745              		.cfi_offset 6, -8
 746              		.cfi_offset 14, -4
 747 0004 0040A0E1 		mov	r4, r0
 748 0008 0250A0E1 		mov	r5, r2
 238:../generate/sc_drivers/r_riic/src/hld/r_riic_hld_prv.c **** 
 749              		.loc 1 238 0
 750 000c FEFFFFEB 		bl	riic_transmit
 751              	.LVL92:
 240:../generate/sc_drivers/r_riic/src/hld/r_riic_hld_prv.c ****     {
 752              		.loc 1 240 0
 753 0010 000050E3 		cmp	r0, #0
 754 0014 7080BD18 		popne	{r4, r5, r6, pc}
 243:../generate/sc_drivers/r_riic/src/hld/r_riic_hld_prv.c **** 
 755              		.loc 1 243 0
 756 0018 0510A0E1 		mov	r1, r5
 757 001c 0400A0E1 		mov	r0, r4
 758              	.LVL93:
 759 0020 FEFFFFEB 		bl	wait_tx_end
 760              	.LVL94:
 245:../generate/sc_drivers/r_riic/src/hld/r_riic_hld_prv.c ****         {
 761              		.loc 1 245 0
 762 0024 000050E3 		cmp	r0, #0
 763 0028 7080BD18 		popne	{r4, r5, r6, pc}
 248:../generate/sc_drivers/r_riic/src/hld/r_riic_hld_prv.c ****             {
 764              		.loc 1 248 0
 765 002c 003000E3 		movw	r3, #:lower16:.LANCHOR5
 766 0030 003040E3 		movt	r3, #:upper16:.LANCHOR5
 767 0034 0430D3E7 		ldrb	r3, [r3, r4]	@ zero_extendqisi2
 768 0038 FF0013E3 		tst	r3, #255
 769 003c 0100001A 		bne	.L67
 251:../generate/sc_drivers/r_riic/src/hld/r_riic_hld_prv.c ****             }
 770              		.loc 1 251 0
 771 0040 0000A0E3 		mov	r0, #0
 772              	.LVL95:
 263:../generate/sc_drivers/r_riic/src/hld/r_riic_hld_prv.c **** /******************************************************************************
 773              		.loc 1 263 0
 774 0044 7080BDE8 		pop	{r4, r5, r6, pc}
 775              	.LVL96:
 776              	.L67:
 256:../generate/sc_drivers/r_riic/src/hld/r_riic_hld_prv.c ****                 ret = DRV_ERROR;
 777              		.loc 1 256 0
 778 0048 003000E3 		movw	r3, #:lower16:.LANCHOR5
 779 004c 003040E3 		movt	r3, #:upper16:.LANCHOR5
 780 0050 0020A0E3 		mov	r2, #0
 781 0054 0420C3E7 		strb	r2, [r3, r4]
 782              	.LVL97:
 257:../generate/sc_drivers/r_riic/src/hld/r_riic_hld_prv.c ****             }
 783              		.loc 1 257 0
 784 0058 0000E0E3 		mvn	r0, #0
 785 005c 7080BDE8 		pop	{r4, r5, r6, pc}
 786              		.cfi_endproc
 787              	.LFE4:
 789              		.section	.text.transmit_restart,"ax",%progbits
 790              		.align	2
 791              		.syntax unified
 792              		.arm
 793              		.fpu neon
 795              	transmit_restart:
 796              	.LFB10:
 631:../generate/sc_drivers/r_riic/src/hld/r_riic_hld_prv.c ****     /* Wait for the bus to be busy */
 797              		.loc 1 631 0
 798              		.cfi_startproc
 799              		@ args = 0, pretend = 0, frame = 0
 800              		@ frame_needed = 0, uses_anonymous_args = 0
 801              	.LVL98:
 802 0000 70402DE9 		push	{r4, r5, r6, lr}
 803              		.cfi_def_cfa_offset 16
 804              		.cfi_offset 4, -16
 805              		.cfi_offset 5, -12
 806              		.cfi_offset 6, -8
 807              		.cfi_offset 14, -4
 808 0004 0040A0E1 		mov	r4, r0
 633:../generate/sc_drivers/r_riic/src/hld/r_riic_hld_prv.c **** 
 809              		.loc 1 633 0
 810 0008 0110A0E3 		mov	r1, #1
 811 000c FEFFFFEB 		bl	wait_bus_master
 812              	.LVL99:
 813 0010 0050A0E1 		mov	r5, r0
 814              	.LVL100:
 636:../generate/sc_drivers/r_riic/src/hld/r_riic_hld_prv.c **** 
 815              		.loc 1 636 0
 816 0014 0400A0E1 		mov	r0, r4
 817              	.LVL101:
 818 0018 FEFFFFEB 		bl	start_timeout_monitor
 819              	.LVL102:
 638:../generate/sc_drivers/r_riic/src/hld/r_riic_hld_prv.c ****     {
 820              		.loc 1 638 0
 821 001c 000055E3 		cmp	r5, #0
 822 0020 0100000A 		beq	.L71
 823              	.L68:
 650:../generate/sc_drivers/r_riic/src/hld/r_riic_hld_prv.c **** /*******************************************************************************
 824              		.loc 1 650 0
 825 0024 0500A0E1 		mov	r0, r5
 826 0028 7080BDE8 		pop	{r4, r5, r6, pc}
 827              	.L71:
 641:../generate/sc_drivers/r_riic/src/hld/r_riic_hld_prv.c ****         gs_riic_transmit_empty_flg[channel] = DRV_FLAG_OFF_PRV_;
 828              		.loc 1 641 0
 829 002c 003000E3 		movw	r3, #:lower16:.LANCHOR3
 830 0030 003040E3 		movt	r3, #:upper16:.LANCHOR3
 831 0034 0020A0E3 		mov	r2, #0
 832 0038 0420C3E7 		strb	r2, [r3, r4]
 642:../generate/sc_drivers/r_riic/src/hld/r_riic_hld_prv.c ****         gs_riic_transmit_end_flg[channel] = DRV_FLAG_OFF_PRV_;
 833              		.loc 1 642 0
 834 003c 003000E3 		movw	r3, #:lower16:.LANCHOR1
 835 0040 003040E3 		movt	r3, #:upper16:.LANCHOR1
 836 0044 0420C3E7 		strb	r2, [r3, r4]
 643:../generate/sc_drivers/r_riic/src/hld/r_riic_hld_prv.c **** 
 837              		.loc 1 643 0
 838 0048 003000E3 		movw	r3, #:lower16:.LANCHOR2
 839 004c 003040E3 		movt	r3, #:upper16:.LANCHOR2
 840 0050 0420C3E7 		strb	r2, [r3, r4]
 646:../generate/sc_drivers/r_riic/src/hld/r_riic_hld_prv.c ****     }
 841              		.loc 1 646 0
 842 0054 0400A0E1 		mov	r0, r4
 843 0058 FEFFFFEB 		bl	R_RIIC_TransmitRestart
 844              	.LVL103:
 649:../generate/sc_drivers/r_riic/src/hld/r_riic_hld_prv.c **** }
 845              		.loc 1 649 0
 846 005c F0FFFFEA 		b	.L68
 847              		.cfi_endproc
 848              	.LFE10:
 850              		.section	.text.riic_receive,"ax",%progbits
 851              		.align	2
 852              		.syntax unified
 853              		.arm
 854              		.fpu neon
 856              	riic_receive:
 857              	.LFB7:
 463:../generate/sc_drivers/r_riic/src/hld/r_riic_hld_prv.c ****     int_t ret;
 858              		.loc 1 463 0
 859              		.cfi_startproc
 860              		@ args = 0, pretend = 0, frame = 0
 861              		@ frame_needed = 0, uses_anonymous_args = 0
 862              	.LVL104:
 863 0000 F0412DE9 		push	{r4, r5, r6, r7, r8, lr}
 864              		.cfi_def_cfa_offset 24
 865              		.cfi_offset 4, -24
 866              		.cfi_offset 5, -20
 867              		.cfi_offset 6, -16
 868              		.cfi_offset 7, -12
 869              		.cfi_offset 8, -8
 870              		.cfi_offset 14, -4
 871 0004 0040A0E1 		mov	r4, r0
 872 0008 0150A0E1 		mov	r5, r1
 873 000c 0270A0E1 		mov	r7, r2
 468:../generate/sc_drivers/r_riic/src/hld/r_riic_hld_prv.c **** 
 874              		.loc 1 468 0
 875 0010 FEFFFFEB 		bl	wait_rx_full
 876              	.LVL105:
 470:../generate/sc_drivers/r_riic/src/hld/r_riic_hld_prv.c ****     {
 877              		.loc 1 470 0
 878 0014 006050E2 		subs	r6, r0, #0
 879 0018 0F00001A 		bne	.L72
 473:../generate/sc_drivers/r_riic/src/hld/r_riic_hld_prv.c **** 
 880              		.loc 1 473 0
 881 001c 003000E3 		movw	r3, #:lower16:.LANCHOR3
 882 0020 003040E3 		movt	r3, #:upper16:.LANCHOR3
 883 0024 0020A0E3 		mov	r2, #0
 884 0028 0420C3E7 		strb	r2, [r3, r4]
 475:../generate/sc_drivers/r_riic/src/hld/r_riic_hld_prv.c ****         {
 885              		.loc 1 475 0
 886 002c 040055E3 		cmp	r5, #4
 887 0030 05F19F97 		ldrls	pc, [pc, r5, asl #2]
 888 0034 1A0000EA 		b	.L81
 889              	.L76:
 890 0038 4C000000 		.word	.L75
 891 003c 64000000 		.word	.L77
 892 0040 70000000 		.word	.L78
 893 0044 7C000000 		.word	.L79
 894 0048 88000000 		.word	.L80
 895              	.L75:
 510:../generate/sc_drivers/r_riic/src/hld/r_riic_hld_prv.c ****             }
 896              		.loc 1 510 0
 897 004c 0060A0E3 		mov	r6, #0
 898              	.LVL106:
 899              	.L74:
 522:../generate/sc_drivers/r_riic/src/hld/r_riic_hld_prv.c ****     }
 900              		.loc 1 522 0
 901 0050 0400A0E1 		mov	r0, r4
 902 0054 FEFFFFEB 		bl	R_RIIC_ReadByte
 903              	.LVL107:
 904 0058 0000C7E5 		strb	r0, [r7]
 905              	.L72:
 527:../generate/sc_drivers/r_riic/src/hld/r_riic_hld_prv.c **** /*******************************************************************************
 906              		.loc 1 527 0
 907 005c 0600A0E1 		mov	r0, r6
 908 0060 F081BDE8 		pop	{r4, r5, r6, r7, r8, pc}
 909              	.LVL108:
 910              	.L77:
 480:../generate/sc_drivers/r_riic/src/hld/r_riic_hld_prv.c ****             }
 911              		.loc 1 480 0
 912 0064 0400A0E1 		mov	r0, r4
 913              	.LVL109:
 914 0068 FEFFFFEB 		bl	R_RIIC_TransmitAck
 915              	.LVL110:
 482:../generate/sc_drivers/r_riic/src/hld/r_riic_hld_prv.c **** 
 916              		.loc 1 482 0
 917 006c F7FFFFEA 		b	.L74
 918              	.LVL111:
 919              	.L78:
 488:../generate/sc_drivers/r_riic/src/hld/r_riic_hld_prv.c ****             }
 920              		.loc 1 488 0
 921 0070 0400A0E1 		mov	r0, r4
 922              	.LVL112:
 923 0074 FEFFFFEB 		bl	R_RIIC_AssertLowHold
 924              	.LVL113:
 490:../generate/sc_drivers/r_riic/src/hld/r_riic_hld_prv.c **** 
 925              		.loc 1 490 0
 926 0078 F4FFFFEA 		b	.L74
 927              	.LVL114:
 928              	.L79:
 495:../generate/sc_drivers/r_riic/src/hld/r_riic_hld_prv.c ****             }
 929              		.loc 1 495 0
 930 007c 0400A0E1 		mov	r0, r4
 931              	.LVL115:
 932 0080 FEFFFFEB 		bl	R_RIIC_TransmitNack
 933              	.LVL116:
 497:../generate/sc_drivers/r_riic/src/hld/r_riic_hld_prv.c **** 
 934              		.loc 1 497 0
 935 0084 F1FFFFEA 		b	.L74
 936              	.LVL117:
 937              	.L80:
 501:../generate/sc_drivers/r_riic/src/hld/r_riic_hld_prv.c **** 
 938              		.loc 1 501 0
 939 0088 003000E3 		movw	r3, #:lower16:.LANCHOR4
 940 008c 003040E3 		movt	r3, #:upper16:.LANCHOR4
 941 0090 0020A0E3 		mov	r2, #0
 942 0094 0420C3E7 		strb	r2, [r3, r4]
 504:../generate/sc_drivers/r_riic/src/hld/r_riic_hld_prv.c ****             }
 943              		.loc 1 504 0
 944 0098 0400A0E1 		mov	r0, r4
 945              	.LVL118:
 946 009c FEFFFFEB 		bl	R_RIIC_TransmitStop
 947              	.LVL119:
 506:../generate/sc_drivers/r_riic/src/hld/r_riic_hld_prv.c ****             case RIIC_RX_MODE_NORMAL:
 948              		.loc 1 506 0
 949 00a0 EAFFFFEA 		b	.L74
 950              	.LVL120:
 951              	.L81:
 516:../generate/sc_drivers/r_riic/src/hld/r_riic_hld_prv.c ****             }
 952              		.loc 1 516 0
 953 00a4 0060E0E3 		mvn	r6, #0
 954 00a8 E8FFFFEA 		b	.L74
 955              		.cfi_endproc
 956              	.LFE7:
 958              		.section	.text.riic_read,"ax",%progbits
 959              		.align	2
 960              		.syntax unified
 961              		.arm
 962              		.fpu neon
 964              	riic_read:
 965              	.LFB6:
 341:../generate/sc_drivers/r_riic/src/hld/r_riic_hld_prv.c ****     uint8_t *p_buffer2;
 966              		.loc 1 341 0
 967              		.cfi_startproc
 968              		@ args = 0, pretend = 0, frame = 0
 969              		@ frame_needed = 0, uses_anonymous_args = 0
 970              	.LVL121:
 971 0000 F0412DE9 		push	{r4, r5, r6, r7, r8, lr}
 972              		.cfi_def_cfa_offset 24
 973              		.cfi_offset 4, -24
 974              		.cfi_offset 5, -20
 975              		.cfi_offset 6, -16
 976              		.cfi_offset 7, -12
 977              		.cfi_offset 8, -8
 978              		.cfi_offset 14, -4
 346:../generate/sc_drivers/r_riic/src/hld/r_riic_hld_prv.c ****     {
 979              		.loc 1 346 0
 980 0004 004052E2 		subs	r4, r2, #0
 981 0008 4500000A 		beq	.L93
 982 000c 0070A0E1 		mov	r7, r0
 983 0010 0150A0E1 		mov	r5, r1
 984              	.LVL122:
 354:../generate/sc_drivers/r_riic/src/hld/r_riic_hld_prv.c ****     {
 985              		.loc 1 354 0
 986 0014 010054E3 		cmp	r4, #1
 987 0018 1500000A 		beq	.L95
 378:../generate/sc_drivers/r_riic/src/hld/r_riic_hld_prv.c ****         {
 988              		.loc 1 378 0
 989 001c 020054E3 		cmp	r4, #2
 990 0020 2100000A 		beq	.L96
 386:../generate/sc_drivers/r_riic/src/hld/r_riic_hld_prv.c ****         }
 991              		.loc 1 386 0
 992 0024 0120A0E1 		mov	r2, r1
 993              	.LVL123:
 994 0028 0110A0E3 		mov	r1, #1
 995              	.LVL124:
 996 002c FEFFFFEB 		bl	riic_receive
 997              	.LVL125:
 998 0030 0060A0E1 		mov	r6, r0
 999              	.LVL126:
 1000              	.L88:
 389:../generate/sc_drivers/r_riic/src/hld/r_riic_hld_prv.c ****         {
 1001              		.loc 1 389 0
 1002 0034 000056E3 		cmp	r6, #0
 1003 0038 3A00001A 		bne	.L83
 1004              	.LVL127:
 1005              	.L89:
 395:../generate/sc_drivers/r_riic/src/hld/r_riic_hld_prv.c ****         {
 1006              		.loc 1 395 0
 1007 003c 020054E3 		cmp	r4, #2
 1008 0040 2400009A 		bls	.L97
 397:../generate/sc_drivers/r_riic/src/hld/r_riic_hld_prv.c ****             {
 1009              		.loc 1 397 0
 1010 0044 030054E3 		cmp	r4, #3
 1011 0048 1C00000A 		beq	.L98
 405:../generate/sc_drivers/r_riic/src/hld/r_riic_hld_prv.c ****             }
 1012              		.loc 1 405 0
 1013 004c 0520A0E1 		mov	r2, r5
 1014 0050 0110A0E3 		mov	r1, #1
 1015 0054 0700A0E1 		mov	r0, r7
 1016              	.LVL128:
 1017 0058 FEFFFFEB 		bl	riic_receive
 1018              	.LVL129:
 1019 005c 0060A0E1 		mov	r6, r0
 1020              	.LVL130:
 1021              	.L91:
 408:../generate/sc_drivers/r_riic/src/hld/r_riic_hld_prv.c ****             {
 1022              		.loc 1 408 0
 1023 0060 000056E3 		cmp	r6, #0
 1024 0064 2F00001A 		bne	.L83
 413:../generate/sc_drivers/r_riic/src/hld/r_riic_hld_prv.c ****             byte--;
 1025              		.loc 1 413 0
 1026 0068 015085E2 		add	r5, r5, #1
 1027              	.LVL131:
 414:../generate/sc_drivers/r_riic/src/hld/r_riic_hld_prv.c ****         }
 1028              		.loc 1 414 0
 1029 006c 014044E2 		sub	r4, r4, #1
 1030              	.LVL132:
 1031 0070 F1FFFFEA 		b	.L89
 1032              	.LVL133:
 1033              	.L95:
 356:../generate/sc_drivers/r_riic/src/hld/r_riic_hld_prv.c **** 
 1034              		.loc 1 356 0
 1035 0074 FEFFFFEB 		bl	R_RIIC_AssertLowHold
 1036              	.LVL134:
 359:../generate/sc_drivers/r_riic/src/hld/r_riic_hld_prv.c **** 
 1037              		.loc 1 359 0
 1038 0078 0520A0E1 		mov	r2, r5
 1039 007c 0310A0E3 		mov	r1, #3
 1040 0080 0700A0E1 		mov	r0, r7
 1041 0084 FEFFFFEB 		bl	riic_receive
 1042              	.LVL135:
 361:../generate/sc_drivers/r_riic/src/hld/r_riic_hld_prv.c ****         {
 1043              		.loc 1 361 0
 1044 0088 006050E2 		subs	r6, r0, #0
 1045 008c 2500001A 		bne	.L83
 367:../generate/sc_drivers/r_riic/src/hld/r_riic_hld_prv.c **** 
 1046              		.loc 1 367 0
 1047 0090 0520A0E1 		mov	r2, r5
 1048 0094 0410A0E3 		mov	r1, #4
 1049 0098 0700A0E1 		mov	r0, r7
 1050              	.LVL136:
 1051 009c FEFFFFEB 		bl	riic_receive
 1052              	.LVL137:
 369:../generate/sc_drivers/r_riic/src/hld/r_riic_hld_prv.c ****         {
 1053              		.loc 1 369 0
 1054 00a0 006050E2 		subs	r6, r0, #0
 1055 00a4 1600000A 		beq	.L86
 1056 00a8 1E0000EA 		b	.L83
 1057              	.LVL138:
 1058              	.L96:
 381:../generate/sc_drivers/r_riic/src/hld/r_riic_hld_prv.c ****         }
 1059              		.loc 1 381 0
 1060 00ac 0120A0E1 		mov	r2, r1
 1061              	.LVL139:
 1062 00b0 0210A0E3 		mov	r1, #2
 1063              	.LVL140:
 1064 00b4 FEFFFFEB 		bl	riic_receive
 1065              	.LVL141:
 1066 00b8 0060A0E1 		mov	r6, r0
 1067              	.LVL142:
 1068 00bc DCFFFFEA 		b	.L88
 1069              	.LVL143:
 1070              	.L98:
 400:../generate/sc_drivers/r_riic/src/hld/r_riic_hld_prv.c ****             }
 1071              		.loc 1 400 0
 1072 00c0 0520A0E1 		mov	r2, r5
 1073 00c4 0210A0E3 		mov	r1, #2
 1074 00c8 0700A0E1 		mov	r0, r7
 1075              	.LVL144:
 1076 00cc FEFFFFEB 		bl	riic_receive
 1077              	.LVL145:
 1078 00d0 0060A0E1 		mov	r6, r0
 1079              	.LVL146:
 1080 00d4 E1FFFFEA 		b	.L91
 1081              	.L97:
 418:../generate/sc_drivers/r_riic/src/hld/r_riic_hld_prv.c ****         if (DRV_SUCCESS != ret)
 1082              		.loc 1 418 0
 1083 00d8 0520A0E1 		mov	r2, r5
 1084 00dc 0310A0E3 		mov	r1, #3
 1085 00e0 0700A0E1 		mov	r0, r7
 1086              	.LVL147:
 1087 00e4 FEFFFFEB 		bl	riic_receive
 1088              	.LVL148:
 419:../generate/sc_drivers/r_riic/src/hld/r_riic_hld_prv.c ****         {
 1089              		.loc 1 419 0
 1090 00e8 006050E2 		subs	r6, r0, #0
 1091 00ec 0D00001A 		bne	.L83
 1092              	.LVL149:
 430:../generate/sc_drivers/r_riic/src/hld/r_riic_hld_prv.c ****         }
 1093              		.loc 1 430 0
 1094 00f0 012085E2 		add	r2, r5, #1
 1095              	.LVL150:
 1096 00f4 0410A0E3 		mov	r1, #4
 1097 00f8 0700A0E1 		mov	r0, r7
 1098              	.LVL151:
 1099 00fc FEFFFFEB 		bl	riic_receive
 1100              	.LVL152:
 1101 0100 0060A0E1 		mov	r6, r0
 1102              	.LVL153:
 1103              	.L86:
 435:../generate/sc_drivers/r_riic/src/hld/r_riic_hld_prv.c **** 
 1104              		.loc 1 435 0
 1105 0104 0700A0E1 		mov	r0, r7
 1106              	.LVL154:
 1107 0108 FEFFFFEB 		bl	R_RIIC_ReleaseLowHold
 1108              	.LVL155:
 437:../generate/sc_drivers/r_riic/src/hld/r_riic_hld_prv.c ****     {
 1109              		.loc 1 437 0
 1110 010c 000056E3 		cmp	r6, #0
 1111 0110 0400001A 		bne	.L83
 440:../generate/sc_drivers/r_riic/src/hld/r_riic_hld_prv.c ****     }
 1112              		.loc 1 440 0
 1113 0114 0700A0E1 		mov	r0, r7
 1114 0118 FEFFFFEB 		bl	wait_stop
 1115              	.LVL156:
 1116 011c 0060A0E1 		mov	r6, r0
 1117              	.LVL157:
 1118 0120 000000EA 		b	.L83
 1119              	.LVL158:
 1120              	.L93:
 348:../generate/sc_drivers/r_riic/src/hld/r_riic_hld_prv.c ****     }
 1121              		.loc 1 348 0
 1122 0124 0060A0E3 		mov	r6, #0
 1123              	.LVL159:
 1124              	.L83:
 444:../generate/sc_drivers/r_riic/src/hld/r_riic_hld_prv.c **** /******************************************************************************
 1125              		.loc 1 444 0
 1126 0128 0600A0E1 		mov	r0, r6
 1127 012c F081BDE8 		pop	{r4, r5, r6, r7, r8, pc}
 1128              		.cfi_endproc
 1129              	.LFE6:
 1131              		.section	.text.open_channel,"ax",%progbits
 1132              		.align	2
 1133              		.global	open_channel
 1134              		.syntax unified
 1135              		.arm
 1136              		.fpu neon
 1138              	open_channel:
 1139              	.LFB2:
 145:../generate/sc_drivers/r_riic/src/hld/r_riic_hld_prv.c ****     int_t retval = DRV_ERROR;
 1140              		.loc 1 145 0
 1141              		.cfi_startproc
 1142              		@ args = 0, pretend = 0, frame = 0
 1143              		@ frame_needed = 0, uses_anonymous_args = 0
 1144              	.LVL160:
 1145 0000 10402DE9 		push	{r4, lr}
 1146              		.cfi_def_cfa_offset 8
 1147              		.cfi_offset 4, -8
 1148              		.cfi_offset 14, -4
 1149 0004 0040A0E1 		mov	r4, r0
 1150              	.LVL161:
 148:../generate/sc_drivers/r_riic/src/hld/r_riic_hld_prv.c ****     int_t sc_table_size = (sizeof(RIIC_SC_TABLE)) / (sizeof(st_r_drv_riic_sc_config_t));
 1151              		.loc 1 148 0
 1152 0008 0030A0E3 		mov	r3, #0
 151:../generate/sc_drivers/r_riic/src/hld/r_riic_hld_prv.c ****     {
 1153              		.loc 1 151 0
 1154 000c 03E0A0E1 		mov	lr, r3
 146:../generate/sc_drivers/r_riic/src/hld/r_riic_hld_prv.c ****     int_t sc_index = 0;
 1155              		.loc 1 146 0
 1156 0010 0000E0E3 		mvn	r0, #0
 1157              	.LVL162:
 151:../generate/sc_drivers/r_riic/src/hld/r_riic_hld_prv.c ****     {
 1158              		.loc 1 151 0
 1159 0014 000000EA 		b	.L100
 1160              	.LVL163:
 1161              	.L101:
 151:../generate/sc_drivers/r_riic/src/hld/r_riic_hld_prv.c ****     {
 1162              		.loc 1 151 0 is_stmt 0 discriminator 2
 1163 0018 013083E2 		add	r3, r3, #1
 1164              	.LVL164:
 1165              	.L100:
 151:../generate/sc_drivers/r_riic/src/hld/r_riic_hld_prv.c ****     {
 1166              		.loc 1 151 0 discriminator 1
 1167 001c 010053E3 		cmp	r3, #1
 1168 0020 080000CA 		bgt	.L106
 153:../generate/sc_drivers/r_riic/src/hld/r_riic_hld_prv.c ****         {
 1169              		.loc 1 153 0 is_stmt 1
 1170 0024 002000E3 		movw	r2, #:lower16:.LANCHOR6
 1171 0028 002040E3 		movt	r2, #:upper16:.LANCHOR6
 1172 002c 03C283E0 		add	ip, r3, r3, lsl #4
 1173 0030 0C11A0E1 		lsl	r1, ip, #2
 1174 0034 012092E7 		ldr	r2, [r2, r1]
 1175 0038 040052E1 		cmp	r2, r4
 155:../generate/sc_drivers/r_riic/src/hld/r_riic_hld_prv.c ****             retval = DRV_SUCCESS;
 1176              		.loc 1 155 0
 1177 003c 03E0A001 		moveq	lr, r3
 1178              	.LVL165:
 156:../generate/sc_drivers/r_riic/src/hld/r_riic_hld_prv.c ****         }
 1179              		.loc 1 156 0
 1180 0040 0000A003 		moveq	r0, #0
 1181              	.LVL166:
 1182 0044 F3FFFFEA 		b	.L101
 1183              	.LVL167:
 1184              	.L106:
 160:../generate/sc_drivers/r_riic/src/hld/r_riic_hld_prv.c ****     {
 1185              		.loc 1 160 0
 1186 0048 000050E3 		cmp	r0, #0
 1187 004c 1080BD18 		popne	{r4, pc}
 163:../generate/sc_drivers/r_riic/src/hld/r_riic_hld_prv.c **** 
 1188              		.loc 1 163 0
 1189 0050 003000E3 		movw	r3, #:lower16:.LANCHOR6
 1190              	.LVL168:
 1191 0054 003040E3 		movt	r3, #:upper16:.LANCHOR6
 1192 0058 0EE28EE0 		add	lr, lr, lr, lsl #4
 1193              	.LVL169:
 1194 005c 0E01A0E1 		lsl	r0, lr, #2
 1195              	.LVL170:
 1196 0060 000083E0 		add	r0, r3, r0
 1197 0064 FEFFFFEB 		bl	riic_setup
 1198              	.LVL171:
 166:../generate/sc_drivers/r_riic/src/hld/r_riic_hld_prv.c ****         gs_riic_transmit_empty_flg[channel] = DRV_FLAG_OFF_PRV_;
 1199              		.loc 1 166 0
 1200 0068 002000E3 		movw	r2, #:lower16:.LANCHOR3
 1201 006c 002040E3 		movt	r2, #:upper16:.LANCHOR3
 1202 0070 0030A0E3 		mov	r3, #0
 1203 0074 0430C2E7 		strb	r3, [r2, r4]
 167:../generate/sc_drivers/r_riic/src/hld/r_riic_hld_prv.c ****         gs_riic_transmit_end_flg[channel] = DRV_FLAG_OFF_PRV_;
 1204              		.loc 1 167 0
 1205 0078 002000E3 		movw	r2, #:lower16:.LANCHOR1
 1206 007c 002040E3 		movt	r2, #:upper16:.LANCHOR1
 1207 0080 0430C2E7 		strb	r3, [r2, r4]
 168:../generate/sc_drivers/r_riic/src/hld/r_riic_hld_prv.c ****         gs_riic_stop_flg[channel] = DRV_FLAG_OFF_PRV_;
 1208              		.loc 1 168 0
 1209 0084 002000E3 		movw	r2, #:lower16:.LANCHOR2
 1210 0088 002040E3 		movt	r2, #:upper16:.LANCHOR2
 1211 008c 0430C2E7 		strb	r3, [r2, r4]
 169:../generate/sc_drivers/r_riic/src/hld/r_riic_hld_prv.c ****         gs_riic_start_flg[channel] = DRV_FLAG_OFF_PRV_;
 1212              		.loc 1 169 0
 1213 0090 002000E3 		movw	r2, #:lower16:.LANCHOR4
 1214 0094 002040E3 		movt	r2, #:upper16:.LANCHOR4
 1215 0098 0430C2E7 		strb	r3, [r2, r4]
 170:../generate/sc_drivers/r_riic/src/hld/r_riic_hld_prv.c ****         gs_riic_nack_flg[channel] = DRV_FLAG_OFF_PRV_;
 1216              		.loc 1 170 0
 1217 009c 002000E3 		movw	r2, #:lower16:.LANCHOR7
 1218 00a0 002040E3 		movt	r2, #:upper16:.LANCHOR7
 1219 00a4 0430C2E7 		strb	r3, [r2, r4]
 171:../generate/sc_drivers/r_riic/src/hld/r_riic_hld_prv.c ****         gs_riic_arbitration_flg[channel] = DRV_FLAG_OFF_PRV_;
 1220              		.loc 1 171 0
 1221 00a8 002000E3 		movw	r2, #:lower16:.LANCHOR5
 1222 00ac 002040E3 		movt	r2, #:upper16:.LANCHOR5
 1223 00b0 0430C2E7 		strb	r3, [r2, r4]
 172:../generate/sc_drivers/r_riic/src/hld/r_riic_hld_prv.c ****         gs_riic_timeout_flg[channel] = DRV_FLAG_OFF_PRV_;
 1224              		.loc 1 172 0
 1225 00b4 002000E3 		movw	r2, #:lower16:.LANCHOR8
 1226 00b8 002040E3 		movt	r2, #:upper16:.LANCHOR8
 1227 00bc 0430C2E7 		strb	r3, [r2, r4]
 173:../generate/sc_drivers/r_riic/src/hld/r_riic_hld_prv.c ****     }
 1228              		.loc 1 173 0
 1229 00c0 002000E3 		movw	r2, #:lower16:.LANCHOR0
 1230 00c4 002040E3 		movt	r2, #:upper16:.LANCHOR0
 1231 00c8 0430C2E7 		strb	r3, [r2, r4]
 178:../generate/sc_drivers/r_riic/src/hld/r_riic_hld_prv.c **** /*******************************************************************************
 1232              		.loc 1 178 0
 1233 00cc 1080BDE8 		pop	{r4, pc}
 1234              		.cfi_endproc
 1235              	.LFE2:
 1237              		.section	.text.close_channel,"ax",%progbits
 1238              		.align	2
 1239              		.global	close_channel
 1240              		.syntax unified
 1241              		.arm
 1242              		.fpu neon
 1244              	close_channel:
 1245              	.LFB3:
 188:../generate/sc_drivers/r_riic/src/hld/r_riic_hld_prv.c ****     uint32_t loop;
 1246              		.loc 1 188 0
 1247              		.cfi_startproc
 1248              		@ args = 0, pretend = 0, frame = 0
 1249              		@ frame_needed = 0, uses_anonymous_args = 0
 1250              	.LVL172:
 1251 0000 70402DE9 		push	{r4, r5, r6, lr}
 1252              		.cfi_def_cfa_offset 16
 1253              		.cfi_offset 4, -16
 1254              		.cfi_offset 5, -12
 1255              		.cfi_offset 6, -8
 1256              		.cfi_offset 14, -4
 1257 0004 0050A0E1 		mov	r5, r0
 1258              	.LVL173:
 193:../generate/sc_drivers/r_riic/src/hld/r_riic_hld_prv.c **** 
 1259              		.loc 1 193 0
 1260 0008 FEFFFFEB 		bl	validate_channel
 1261              	.LVL174:
 195:../generate/sc_drivers/r_riic/src/hld/r_riic_hld_prv.c ****     {
 1262              		.loc 1 195 0
 1263 000c 000050E3 		cmp	r0, #0
 1264 0010 7080BD18 		popne	{r4, r5, r6, pc}
 198:../generate/sc_drivers/r_riic/src/hld/r_riic_hld_prv.c **** 
 1265              		.loc 1 198 0
 1266 0014 003000E3 		movw	r3, #:lower16:.LANCHOR9
 1267 0018 003040E3 		movt	r3, #:upper16:.LANCHOR9
 1268 001c 0040A0E3 		mov	r4, #0
 1269 0020 054183E7 		str	r4, [r3, r5, lsl #2]
 201:../generate/sc_drivers/r_riic/src/hld/r_riic_hld_prv.c **** 
 1270              		.loc 1 201 0
 1271 0024 0500A0E1 		mov	r0, r5
 1272              	.LVL175:
 1273 0028 FEFFFFEB 		bl	R_RIIC_CloseChannel
 1274              	.LVL176:
 204:../generate/sc_drivers/r_riic/src/hld/r_riic_hld_prv.c ****         {
 1275              		.loc 1 204 0
 1276 002c 0430A0E1 		mov	r3, r4
 1277 0030 000000EA 		b	.L109
 1278              	.LVL177:
 1279              	.L110:
 1280 0034 013083E2 		add	r3, r3, #1
 1281              	.LVL178:
 1282              	.L109:
 204:../generate/sc_drivers/r_riic/src/hld/r_riic_hld_prv.c ****         {
 1283              		.loc 1 204 0 is_stmt 0 discriminator 1
 1284 0038 030053E3 		cmp	r3, #3
 1285 003c FCFFFF9A 		bls	.L110
 1286 0040 7080BDE8 		pop	{r4, r5, r6, pc}
 1287              		.cfi_endproc
 1288              	.LFE3:
 1290              		.section	.text.read_data,"ax",%progbits
 1291              		.align	2
 1292              		.global	read_data
 1293              		.syntax unified
 1294              		.arm
 1295              		.fpu neon
 1297              	read_data:
 1298              	.LFB11:
 663:../generate/sc_drivers/r_riic/src/hld/r_riic_hld_prv.c ****     int_t ret = DRV_ERROR;
 1299              		.loc 1 663 0 is_stmt 1
 1300              		.cfi_startproc
 1301              		@ args = 0, pretend = 0, frame = 16
 1302              		@ frame_needed = 0, uses_anonymous_args = 0
 1303              	.LVL179:
 1304 0000 F0402DE9 		push	{r4, r5, r6, r7, lr}
 1305              		.cfi_def_cfa_offset 20
 1306              		.cfi_offset 4, -20
 1307              		.cfi_offset 5, -16
 1308              		.cfi_offset 6, -12
 1309              		.cfi_offset 7, -8
 1310              		.cfi_offset 14, -4
 1311 0004 14D04DE2 		sub	sp, sp, #20
 1312              		.cfi_def_cfa_offset 40
 1313 0008 0060A0E1 		mov	r6, r0
 1314 000c 0150A0E1 		mov	r5, r1
 1315              	.LVL180:
 669:../generate/sc_drivers/r_riic/src/hld/r_riic_hld_prv.c **** 
 1316              		.loc 1 669 0
 1317 0010 FEFFFFEB 		bl	validate_channel
 1318              	.LVL181:
 1319 0014 0040A0E1 		mov	r4, r0
 1320              	.LVL182:
 671:../generate/sc_drivers/r_riic/src/hld/r_riic_hld_prv.c ****     {
 1321              		.loc 1 671 0
 1322 0018 0220D5E5 		ldrb	r2, [r5, #2]	@ zero_extendqisi2
 1323 001c 030052E3 		cmp	r2, #3
 674:../generate/sc_drivers/r_riic/src/hld/r_riic_hld_prv.c ****     }
 1324              		.loc 1 674 0
 1325 0020 0040E083 		mvnhi	r4, #0
 1326              	.L113:
 1327              	.LVL183:
 678:../generate/sc_drivers/r_riic/src/hld/r_riic_hld_prv.c ****     {
 1328              		.loc 1 678 0
 1329 0024 000054E3 		cmp	r4, #0
 1330 0028 5900001A 		bne	.L127
 680:../generate/sc_drivers/r_riic/src/hld/r_riic_hld_prv.c ****         {
 1331              		.loc 1 680 0
 1332 002c 000052E3 		cmp	r2, #0
 1333 0030 2A00000A 		beq	.L128
 1334              	.LVL184:
 684:../generate/sc_drivers/r_riic/src/hld/r_riic_hld_prv.c **** 
 1335              		.loc 1 684 0
 1336 0034 B030D5E1 		ldrh	r3, [r5]
 1337 0038 FE3003E2 		and	r3, r3, #254
 683:../generate/sc_drivers/r_riic/src/hld/r_riic_hld_prv.c ****                     (uint8_t) (p_transfer->device_address & ((uint8_t) ( ~SAMPLE_RIIC_RWCODE_PRV_))
 1338              		.loc 1 683 0
 1339 003c 0430CDE5 		strb	r3, [sp, #4]
 1340 0040 0130A0E3 		mov	r3, #1
 1341              	.LVL185:
 1342              	.L115:
 689:../generate/sc_drivers/r_riic/src/hld/r_riic_hld_prv.c ****         {
 1343              		.loc 1 689 0
 1344 0044 010052E3 		cmp	r2, #1
 1345 0048 2600000A 		beq	.L130
 1346              	.LVL186:
 1347              	.L116:
 695:../generate/sc_drivers/r_riic/src/hld/r_riic_hld_prv.c ****         {
 1348              		.loc 1 695 0
 1349 004c 0220D5E5 		ldrb	r2, [r5, #2]	@ zero_extendqisi2
 1350 0050 020052E3 		cmp	r2, #2
 1351 0054 2A00000A 		beq	.L131
 1352              	.L117:
 706:../generate/sc_drivers/r_riic/src/hld/r_riic_hld_prv.c ****         {
 1353              		.loc 1 706 0
 1354 0058 0220D5E5 		ldrb	r2, [r5, #2]	@ zero_extendqisi2
 1355 005c 030052E3 		cmp	r2, #3
 1356 0060 3400000A 		beq	.L132
 1357              	.L118:
 724:../generate/sc_drivers/r_riic/src/hld/r_riic_hld_prv.c **** 
 1358              		.loc 1 724 0
 1359 0064 017083E2 		add	r7, r3, #1
 1360 0068 7770EFE6 		uxtb	r7, r7
 1361              	.LVL187:
 1362 006c B020D5E1 		ldrh	r2, [r5]
 1363 0070 012082E3 		orr	r2, r2, #1
 1364 0074 10108DE2 		add	r1, sp, #16
 1365 0078 033081E0 		add	r3, r1, r3
 1366 007c 0C2043E5 		strb	r2, [r3, #-12]
 1367              	.LVL188:
 1368              	.L114:
 729:../generate/sc_drivers/r_riic/src/hld/r_riic_hld_prv.c ****     {
 1369              		.loc 1 729 0
 1370 0080 000054E3 		cmp	r4, #0
 1371 0084 4400000A 		beq	.L133
 1372              	.L119:
 735:../generate/sc_drivers/r_riic/src/hld/r_riic_hld_prv.c ****     {
 1373              		.loc 1 735 0
 1374 0088 000054E3 		cmp	r4, #0
 1375 008c 4700000A 		beq	.L134
 1376              	.L120:
 741:../generate/sc_drivers/r_riic/src/hld/r_riic_hld_prv.c ****     {
 1377              		.loc 1 741 0
 1378 0090 0230D5E5 		ldrb	r3, [r5, #2]	@ zero_extendqisi2
 1379 0094 000053E3 		cmp	r3, #0
 1380 0098 0300000A 		beq	.L121
 743:../generate/sc_drivers/r_riic/src/hld/r_riic_hld_prv.c ****         {
 1381              		.loc 1 743 0
 1382 009c 000054E3 		cmp	r4, #0
 1383 00a0 4600000A 		beq	.L135
 1384              	.L122:
 750:../generate/sc_drivers/r_riic/src/hld/r_riic_hld_prv.c ****         {
 1385              		.loc 1 750 0
 1386 00a4 000054E3 		cmp	r4, #0
 1387 00a8 4A00000A 		beq	.L136
 1388              	.L121:
 756:../generate/sc_drivers/r_riic/src/hld/r_riic_hld_prv.c ****     {
 1389              		.loc 1 756 0
 1390 00ac 000054E3 		cmp	r4, #0
 1391 00b0 4C00000A 		beq	.L137
 1392              	.LVL189:
 1393              	.L123:
 762:../generate/sc_drivers/r_riic/src/hld/r_riic_hld_prv.c ****     {
 1394              		.loc 1 762 0
 1395 00b4 000054E3 		cmp	r4, #0
 1396 00b8 5300000A 		beq	.L138
 769:../generate/sc_drivers/r_riic/src/hld/r_riic_hld_prv.c **** 
 1397              		.loc 1 769 0
 1398 00bc 003000E3 		movw	r3, #:lower16:.LANCHOR4
 1399 00c0 003040E3 		movt	r3, #:upper16:.LANCHOR4
 1400 00c4 0020A0E3 		mov	r2, #0
 1401 00c8 0620C3E7 		strb	r2, [r3, r6]
 772:../generate/sc_drivers/r_riic/src/hld/r_riic_hld_prv.c ****     }
 1402              		.loc 1 772 0
 1403 00cc 0600A0E1 		mov	r0, r6
 1404 00d0 FEFFFFEB 		bl	R_RIIC_TransmitStop
 1405              	.LVL190:
 1406              	.L112:
 776:../generate/sc_drivers/r_riic/src/hld/r_riic_hld_prv.c **** /*******************************************************************************
 1407              		.loc 1 776 0
 1408 00d4 0400A0E1 		mov	r0, r4
 1409 00d8 14D08DE2 		add	sp, sp, #20
 1410              		.cfi_remember_state
 1411              		.cfi_def_cfa_offset 20
 1412              		@ sp needed
 1413 00dc F080BDE8 		pop	{r4, r5, r6, r7, pc}
 1414              	.LVL191:
 1415              	.L128:
 1416              		.cfi_restore_state
 666:../generate/sc_drivers/r_riic/src/hld/r_riic_hld_prv.c **** 
 1417              		.loc 1 666 0
 1418 00e0 0030A0E3 		mov	r3, #0
 1419 00e4 D6FFFFEA 		b	.L115
 1420              	.LVL192:
 1421              	.L130:
 692:../generate/sc_drivers/r_riic/src/hld/r_riic_hld_prv.c ****         }
 1422              		.loc 1 692 0
 1423 00e8 012083E2 		add	r2, r3, #1
 1424              	.LVL193:
 1425 00ec 0410D5E5 		ldrb	r1, [r5, #4]	@ zero_extendqisi2
 1426 00f0 10008DE2 		add	r0, sp, #16
 1427 00f4 033080E0 		add	r3, r0, r3
 1428 00f8 0C1043E5 		strb	r1, [r3, #-12]
 1429 00fc 7230EFE6 		uxtb	r3, r2
 1430 0100 D1FFFFEA 		b	.L116
 1431              	.LVL194:
 1432              	.L131:
 700:../generate/sc_drivers/r_riic/src/hld/r_riic_hld_prv.c **** 
 1433              		.loc 1 700 0
 1434 0104 012083E2 		add	r2, r3, #1
 1435 0108 7220EFE6 		uxtb	r2, r2
 1436              	.LVL195:
 1437 010c 041095E5 		ldr	r1, [r5, #4]
 1438 0110 51C4E7E7 		ubfx	ip, r1, #8, #8
 1439 0114 10008DE2 		add	r0, sp, #16
 1440 0118 030080E0 		add	r0, r0, r3
 1441 011c 0CC040E5 		strb	ip, [r0, #-12]
 703:../generate/sc_drivers/r_riic/src/hld/r_riic_hld_prv.c ****         }
 1442              		.loc 1 703 0
 1443 0120 023083E2 		add	r3, r3, #2
 1444 0124 7330EFE6 		uxtb	r3, r3
 1445              	.LVL196:
 1446 0128 10008DE2 		add	r0, sp, #16
 1447 012c 022080E0 		add	r2, r0, r2
 1448 0130 0C1042E5 		strb	r1, [r2, #-12]
 1449 0134 C7FFFFEA 		b	.L117
 1450              	.L132:
 711:../generate/sc_drivers/r_riic/src/hld/r_riic_hld_prv.c **** 
 1451              		.loc 1 711 0
 1452 0138 012083E2 		add	r2, r3, #1
 1453 013c 7220EFE6 		uxtb	r2, r2
 1454              	.LVL197:
 1455 0140 040095E5 		ldr	r0, [r5, #4]
 1456 0144 20CCA0E1 		lsr	ip, r0, #24
 1457 0148 10108DE2 		add	r1, sp, #16
 1458 014c 031081E0 		add	r1, r1, r3
 1459 0150 0CC041E5 		strb	ip, [r1, #-12]
 714:../generate/sc_drivers/r_riic/src/hld/r_riic_hld_prv.c **** 
 1460              		.loc 1 714 0
 1461 0154 021083E2 		add	r1, r3, #2
 1462 0158 7110EFE6 		uxtb	r1, r1
 1463              	.LVL198:
 1464 015c 50C8E7E7 		ubfx	ip, r0, #16, #8
 1465 0160 10E08DE2 		add	lr, sp, #16
 1466 0164 02208EE0 		add	r2, lr, r2
 1467 0168 0CC042E5 		strb	ip, [r2, #-12]
 717:../generate/sc_drivers/r_riic/src/hld/r_riic_hld_prv.c **** 
 1468              		.loc 1 717 0
 1469 016c 032083E2 		add	r2, r3, #3
 1470 0170 7220EFE6 		uxtb	r2, r2
 1471              	.LVL199:
 1472 0174 50C4E7E7 		ubfx	ip, r0, #8, #8
 1473 0178 01108EE0 		add	r1, lr, r1
 1474 017c 0CC041E5 		strb	ip, [r1, #-12]
 720:../generate/sc_drivers/r_riic/src/hld/r_riic_hld_prv.c ****         }
 1475              		.loc 1 720 0
 1476 0180 043083E2 		add	r3, r3, #4
 1477 0184 7330EFE6 		uxtb	r3, r3
 1478              	.LVL200:
 1479 0188 02208EE0 		add	r2, lr, r2
 1480 018c 0C0042E5 		strb	r0, [r2, #-12]
 1481 0190 B3FFFFEA 		b	.L118
 1482              	.LVL201:
 1483              	.L127:
 666:../generate/sc_drivers/r_riic/src/hld/r_riic_hld_prv.c **** 
 1484              		.loc 1 666 0
 1485 0194 0070A0E3 		mov	r7, #0
 1486 0198 B8FFFFEA 		b	.L114
 1487              	.LVL202:
 1488              	.L133:
 732:../generate/sc_drivers/r_riic/src/hld/r_riic_hld_prv.c ****     }
 1489              		.loc 1 732 0
 1490 019c 0010A0E3 		mov	r1, #0
 1491 01a0 0600A0E1 		mov	r0, r6
 1492 01a4 FEFFFFEB 		bl	wait_bus_master
 1493              	.LVL203:
 1494 01a8 0040A0E1 		mov	r4, r0
 1495              	.LVL204:
 1496 01ac B5FFFFEA 		b	.L119
 1497              	.LVL205:
 1498              	.L134:
 738:../generate/sc_drivers/r_riic/src/hld/r_riic_hld_prv.c ****     }
 1499              		.loc 1 738 0
 1500 01b0 0600A0E1 		mov	r0, r6
 1501 01b4 FEFFFFEB 		bl	transmit_start
 1502              	.LVL206:
 1503 01b8 0040A0E1 		mov	r4, r0
 1504              	.LVL207:
 1505 01bc B3FFFFEA 		b	.L120
 1506              	.LVL208:
 1507              	.L135:
 746:../generate/sc_drivers/r_riic/src/hld/r_riic_hld_prv.c ****         }
 1508              		.loc 1 746 0
 1509 01c0 012047E2 		sub	r2, r7, #1
 1510 01c4 04108DE2 		add	r1, sp, #4
 1511 01c8 0600A0E1 		mov	r0, r6
 1512 01cc FEFFFFEB 		bl	riic_write
 1513              	.LVL209:
 1514 01d0 0040A0E1 		mov	r4, r0
 1515              	.LVL210:
 1516 01d4 B2FFFFEA 		b	.L122
 1517              	.LVL211:
 1518              	.L136:
 752:../generate/sc_drivers/r_riic/src/hld/r_riic_hld_prv.c ****         }
 1519              		.loc 1 752 0
 1520 01d8 0600A0E1 		mov	r0, r6
 1521 01dc FEFFFFEB 		bl	transmit_restart
 1522              	.LVL212:
 1523 01e0 0040A0E1 		mov	r4, r0
 1524              	.LVL213:
 1525 01e4 B0FFFFEA 		b	.L121
 1526              	.LVL214:
 1527              	.L137:
 759:../generate/sc_drivers/r_riic/src/hld/r_riic_hld_prv.c ****     }
 1528              		.loc 1 759 0
 1529 01e8 017047E2 		sub	r7, r7, #1
 1530              	.LVL215:
 1531 01ec 10308DE2 		add	r3, sp, #16
 1532 01f0 077083E0 		add	r7, r3, r7
 1533 01f4 0120A0E3 		mov	r2, #1
 1534 01f8 0C1057E5 		ldrb	r1, [r7, #-12]	@ zero_extendqisi2
 1535 01fc 0600A0E1 		mov	r0, r6
 1536 0200 FEFFFFEB 		bl	riic_single_write
 1537              	.LVL216:
 1538 0204 0040A0E1 		mov	r4, r0
 1539              	.LVL217:
 1540 0208 A9FFFFEA 		b	.L123
 1541              	.LVL218:
 1542              	.L138:
 765:../generate/sc_drivers/r_riic/src/hld/r_riic_hld_prv.c ****     }
 1543              		.loc 1 765 0
 1544 020c 082095E5 		ldr	r2, [r5, #8]
 1545 0210 0C1095E5 		ldr	r1, [r5, #12]
 1546 0214 0600A0E1 		mov	r0, r6
 1547 0218 FEFFFFEB 		bl	riic_read
 1548              	.LVL219:
 1549 021c ACFFFFEA 		b	.L112
 1550              		.cfi_endproc
 1551              	.LFE11:
 1553              		.section	.text.read_next_data,"ax",%progbits
 1554              		.align	2
 1555              		.global	read_next_data
 1556              		.syntax unified
 1557              		.arm
 1558              		.fpu neon
 1560              	read_next_data:
 1561              	.LFB12:
 791:../generate/sc_drivers/r_riic/src/hld/r_riic_hld_prv.c ****     int_t ret;
 1562              		.loc 1 791 0
 1563              		.cfi_startproc
 1564              		@ args = 0, pretend = 0, frame = 0
 1565              		@ frame_needed = 0, uses_anonymous_args = 0
 1566              	.LVL220:
 1567 0000 F0412DE9 		push	{r4, r5, r6, r7, r8, lr}
 1568              		.cfi_def_cfa_offset 24
 1569              		.cfi_offset 4, -24
 1570              		.cfi_offset 5, -20
 1571              		.cfi_offset 6, -16
 1572              		.cfi_offset 7, -12
 1573              		.cfi_offset 8, -8
 1574              		.cfi_offset 14, -4
 1575 0004 0050A0E1 		mov	r5, r0
 1576 0008 0160A0E1 		mov	r6, r1
 1577 000c 0280A0E1 		mov	r8, r2
 1578 0010 0370A0E1 		mov	r7, r3
 796:../generate/sc_drivers/r_riic/src/hld/r_riic_hld_prv.c **** 
 1579              		.loc 1 796 0
 1580 0014 FEFFFFEB 		bl	validate_channel
 1581              	.LVL221:
 799:../generate/sc_drivers/r_riic/src/hld/r_riic_hld_prv.c **** 
 1582              		.loc 1 799 0
 1583 0018 016086E3 		orr	r6, r6, #1
 1584              	.LVL222:
 801:../generate/sc_drivers/r_riic/src/hld/r_riic_hld_prv.c ****     {
 1585              		.loc 1 801 0
 1586 001c 004050E2 		subs	r4, r0, #0
 1587 0020 0D00000A 		beq	.L146
 1588              	.L140:
 807:../generate/sc_drivers/r_riic/src/hld/r_riic_hld_prv.c ****     {
 1589              		.loc 1 807 0
 1590 0024 000054E3 		cmp	r4, #0
 1591 0028 1000000A 		beq	.L147
 1592              	.L141:
 813:../generate/sc_drivers/r_riic/src/hld/r_riic_hld_prv.c ****     {
 1593              		.loc 1 813 0
 1594 002c 000054E3 		cmp	r4, #0
 1595 0030 1200000A 		beq	.L148
 1596              	.L142:
 818:../generate/sc_drivers/r_riic/src/hld/r_riic_hld_prv.c ****     {
 1597              		.loc 1 818 0
 1598 0034 000054E3 		cmp	r4, #0
 1599 0038 1600000A 		beq	.L149
 825:../generate/sc_drivers/r_riic/src/hld/r_riic_hld_prv.c **** 
 1600              		.loc 1 825 0
 1601 003c 003000E3 		movw	r3, #:lower16:.LANCHOR4
 1602 0040 003040E3 		movt	r3, #:upper16:.LANCHOR4
 1603 0044 0020A0E3 		mov	r2, #0
 1604 0048 0520C3E7 		strb	r2, [r3, r5]
 828:../generate/sc_drivers/r_riic/src/hld/r_riic_hld_prv.c ****     }
 1605              		.loc 1 828 0
 1606 004c 0500A0E1 		mov	r0, r5
 1607              	.LVL223:
 1608 0050 FEFFFFEB 		bl	R_RIIC_TransmitStop
 1609              	.LVL224:
 1610              	.L139:
 832:../generate/sc_drivers/r_riic/src/hld/r_riic_hld_prv.c **** /*******************************************************************************
 1611              		.loc 1 832 0
 1612 0054 0400A0E1 		mov	r0, r4
 1613 0058 F081BDE8 		pop	{r4, r5, r6, r7, r8, pc}
 1614              	.LVL225:
 1615              	.L146:
 804:../generate/sc_drivers/r_riic/src/hld/r_riic_hld_prv.c ****     }
 1616              		.loc 1 804 0
 1617 005c 0010A0E3 		mov	r1, #0
 1618 0060 0500A0E1 		mov	r0, r5
 1619              	.LVL226:
 1620 0064 FEFFFFEB 		bl	wait_bus_master
 1621              	.LVL227:
 1622 0068 0040A0E1 		mov	r4, r0
 1623              	.LVL228:
 1624 006c ECFFFFEA 		b	.L140
 1625              	.L147:
 810:../generate/sc_drivers/r_riic/src/hld/r_riic_hld_prv.c ****     }
 1626              		.loc 1 810 0
 1627 0070 0500A0E1 		mov	r0, r5
 1628              	.LVL229:
 1629 0074 FEFFFFEB 		bl	transmit_start
 1630              	.LVL230:
 1631 0078 0040A0E1 		mov	r4, r0
 1632              	.LVL231:
 1633 007c EAFFFFEA 		b	.L141
 1634              	.L148:
 815:../generate/sc_drivers/r_riic/src/hld/r_riic_hld_prv.c ****     }
 1635              		.loc 1 815 0
 1636 0080 0120A0E3 		mov	r2, #1
 1637 0084 0610A0E1 		mov	r1, r6
 1638 0088 0500A0E1 		mov	r0, r5
 1639              	.LVL232:
 1640 008c FEFFFFEB 		bl	riic_single_write
 1641              	.LVL233:
 1642 0090 0040A0E1 		mov	r4, r0
 1643              	.LVL234:
 1644 0094 E6FFFFEA 		b	.L142
 1645              	.L149:
 821:../generate/sc_drivers/r_riic/src/hld/r_riic_hld_prv.c ****     }
 1646              		.loc 1 821 0
 1647 0098 0820A0E1 		mov	r2, r8
 1648 009c 0710A0E1 		mov	r1, r7
 1649 00a0 0500A0E1 		mov	r0, r5
 1650              	.LVL235:
 1651 00a4 FEFFFFEB 		bl	riic_read
 1652              	.LVL236:
 1653 00a8 E9FFFFEA 		b	.L139
 1654              		.cfi_endproc
 1655              	.LFE12:
 1657              		.section	.text.write_data,"ax",%progbits
 1658              		.align	2
 1659              		.global	write_data
 1660              		.syntax unified
 1661              		.arm
 1662              		.fpu neon
 1664              	write_data:
 1665              	.LFB13:
 851:../generate/sc_drivers/r_riic/src/hld/r_riic_hld_prv.c ****     int_t ret = DRV_ERROR;
 1666              		.loc 1 851 0
 1667              		.cfi_startproc
 1668              		@ args = 0, pretend = 0, frame = 16
 1669              		@ frame_needed = 0, uses_anonymous_args = 0
 1670              	.LVL237:
 1671 0000 F0402DE9 		push	{r4, r5, r6, r7, lr}
 1672              		.cfi_def_cfa_offset 20
 1673              		.cfi_offset 4, -20
 1674              		.cfi_offset 5, -16
 1675              		.cfi_offset 6, -12
 1676              		.cfi_offset 7, -8
 1677              		.cfi_offset 14, -4
 1678 0004 14D04DE2 		sub	sp, sp, #20
 1679              		.cfi_def_cfa_offset 40
 1680 0008 0050A0E1 		mov	r5, r0
 1681 000c 0160A0E1 		mov	r6, r1
 1682              	.LVL238:
 857:../generate/sc_drivers/r_riic/src/hld/r_riic_hld_prv.c **** 
 1683              		.loc 1 857 0
 1684 0010 FEFFFFEB 		bl	validate_channel
 1685              	.LVL239:
 1686 0014 0040A0E1 		mov	r4, r0
 1687              	.LVL240:
 859:../generate/sc_drivers/r_riic/src/hld/r_riic_hld_prv.c ****     {
 1688              		.loc 1 859 0
 1689 0018 0230D6E5 		ldrb	r3, [r6, #2]	@ zero_extendqisi2
 1690 001c 030053E3 		cmp	r3, #3
 862:../generate/sc_drivers/r_riic/src/hld/r_riic_hld_prv.c ****     }
 1691              		.loc 1 862 0
 1692 0020 0040E083 		mvnhi	r4, #0
 1693              	.L151:
 1694              	.LVL241:
 866:../generate/sc_drivers/r_riic/src/hld/r_riic_hld_prv.c ****     {
 1695              		.loc 1 866 0
 1696 0024 000054E3 		cmp	r4, #0
 1697 0028 3200001A 		bne	.L160
 1698              	.LVL242:
 869:../generate/sc_drivers/r_riic/src/hld/r_riic_hld_prv.c **** 
 1699              		.loc 1 869 0
 1700 002c B020D6E1 		ldrh	r2, [r6]
 1701 0030 FE2002E2 		and	r2, r2, #254
 1702 0034 0420CDE5 		strb	r2, [sp, #4]
 873:../generate/sc_drivers/r_riic/src/hld/r_riic_hld_prv.c ****         {
 1703              		.loc 1 873 0
 1704 0038 010053E3 		cmp	r3, #1
 1705 003c 1C00000A 		beq	.L163
 869:../generate/sc_drivers/r_riic/src/hld/r_riic_hld_prv.c **** 
 1706              		.loc 1 869 0
 1707 0040 0170A0E3 		mov	r7, #1
 1708              	.LVL243:
 1709              	.L153:
 879:../generate/sc_drivers/r_riic/src/hld/r_riic_hld_prv.c ****         {
 1710              		.loc 1 879 0
 1711 0044 020053E3 		cmp	r3, #2
 1712 0048 1D00000A 		beq	.L164
 1713              	.L154:
 890:../generate/sc_drivers/r_riic/src/hld/r_riic_hld_prv.c ****         {
 1714              		.loc 1 890 0
 1715 004c 0230D6E5 		ldrb	r3, [r6, #2]	@ zero_extendqisi2
 1716 0050 030053E3 		cmp	r3, #3
 1717 0054 2800001A 		bne	.L152
 895:../generate/sc_drivers/r_riic/src/hld/r_riic_hld_prv.c **** 
 1718              		.loc 1 895 0
 1719 0058 013087E2 		add	r3, r7, #1
 1720 005c 7330EFE6 		uxtb	r3, r3
 1721              	.LVL244:
 1722 0060 041096E5 		ldr	r1, [r6, #4]
 1723 0064 210CA0E1 		lsr	r0, r1, #24
 1724 0068 10208DE2 		add	r2, sp, #16
 1725 006c 072082E0 		add	r2, r2, r7
 1726 0070 0C0042E5 		strb	r0, [r2, #-12]
 898:../generate/sc_drivers/r_riic/src/hld/r_riic_hld_prv.c **** 
 1727              		.loc 1 898 0
 1728 0074 022087E2 		add	r2, r7, #2
 1729 0078 7220EFE6 		uxtb	r2, r2
 1730              	.LVL245:
 1731 007c 5108E7E7 		ubfx	r0, r1, #16, #8
 1732 0080 10C08DE2 		add	ip, sp, #16
 1733 0084 03308CE0 		add	r3, ip, r3
 1734 0088 0C0043E5 		strb	r0, [r3, #-12]
 901:../generate/sc_drivers/r_riic/src/hld/r_riic_hld_prv.c **** 
 1735              		.loc 1 901 0
 1736 008c 033087E2 		add	r3, r7, #3
 1737 0090 7330EFE6 		uxtb	r3, r3
 1738              	.LVL246:
 1739 0094 5104E7E7 		ubfx	r0, r1, #8, #8
 1740 0098 02208CE0 		add	r2, ip, r2
 1741 009c 0C0042E5 		strb	r0, [r2, #-12]
 904:../generate/sc_drivers/r_riic/src/hld/r_riic_hld_prv.c ****         }
 1742              		.loc 1 904 0
 1743 00a0 047087E2 		add	r7, r7, #4
 1744 00a4 7770EFE6 		uxtb	r7, r7
 1745              	.LVL247:
 1746 00a8 03308CE0 		add	r3, ip, r3
 1747 00ac 0C1043E5 		strb	r1, [r3, #-12]
 1748 00b0 110000EA 		b	.L152
 1749              	.LVL248:
 1750              	.L163:
 876:../generate/sc_drivers/r_riic/src/hld/r_riic_hld_prv.c ****         }
 1751              		.loc 1 876 0
 1752 00b4 0420D6E5 		ldrb	r2, [r6, #4]	@ zero_extendqisi2
 1753 00b8 0520CDE5 		strb	r2, [sp, #5]
 1754 00bc 0270A0E3 		mov	r7, #2
 1755 00c0 DFFFFFEA 		b	.L153
 1756              	.LVL249:
 1757              	.L164:
 884:../generate/sc_drivers/r_riic/src/hld/r_riic_hld_prv.c **** 
 1758              		.loc 1 884 0
 1759 00c4 013087E2 		add	r3, r7, #1
 1760 00c8 7330EFE6 		uxtb	r3, r3
 1761              	.LVL250:
 1762 00cc 042096E5 		ldr	r2, [r6, #4]
 1763 00d0 5204E7E7 		ubfx	r0, r2, #8, #8
 1764 00d4 10108DE2 		add	r1, sp, #16
 1765 00d8 071081E0 		add	r1, r1, r7
 1766 00dc 0C0041E5 		strb	r0, [r1, #-12]
 887:../generate/sc_drivers/r_riic/src/hld/r_riic_hld_prv.c ****         }
 1767              		.loc 1 887 0
 1768 00e0 027087E2 		add	r7, r7, #2
 1769 00e4 7770EFE6 		uxtb	r7, r7
 1770              	.LVL251:
 1771 00e8 10108DE2 		add	r1, sp, #16
 1772 00ec 033081E0 		add	r3, r1, r3
 1773 00f0 0C2043E5 		strb	r2, [r3, #-12]
 1774 00f4 D4FFFFEA 		b	.L154
 1775              	.LVL252:
 1776              	.L160:
 854:../generate/sc_drivers/r_riic/src/hld/r_riic_hld_prv.c **** 
 1777              		.loc 1 854 0
 1778 00f8 0070A0E3 		mov	r7, #0
 1779              	.LVL253:
 1780              	.L152:
 908:../generate/sc_drivers/r_riic/src/hld/r_riic_hld_prv.c ****     {
 1781              		.loc 1 908 0
 1782 00fc 000054E3 		cmp	r4, #0
 1783 0100 1000000A 		beq	.L165
 1784              	.L155:
 914:../generate/sc_drivers/r_riic/src/hld/r_riic_hld_prv.c ****     {
 1785              		.loc 1 914 0
 1786 0104 000054E3 		cmp	r4, #0
 1787 0108 1300000A 		beq	.L166
 1788              	.L156:
 920:../generate/sc_drivers/r_riic/src/hld/r_riic_hld_prv.c ****     {
 1789              		.loc 1 920 0
 1790 010c 000054E3 		cmp	r4, #0
 1791 0110 1500000A 		beq	.L167
 1792              	.L157:
 926:../generate/sc_drivers/r_riic/src/hld/r_riic_hld_prv.c ****     {
 1793              		.loc 1 926 0
 1794 0114 000054E3 		cmp	r4, #0
 1795 0118 1900000A 		beq	.L168
 1796              	.L158:
 932:../generate/sc_drivers/r_riic/src/hld/r_riic_hld_prv.c **** 
 1797              		.loc 1 932 0
 1798 011c 003000E3 		movw	r3, #:lower16:.LANCHOR4
 1799 0120 003040E3 		movt	r3, #:upper16:.LANCHOR4
 1800 0124 0020A0E3 		mov	r2, #0
 1801 0128 0520C3E7 		strb	r2, [r3, r5]
 935:../generate/sc_drivers/r_riic/src/hld/r_riic_hld_prv.c **** 
 1802              		.loc 1 935 0
 1803 012c 0500A0E1 		mov	r0, r5
 1804 0130 FEFFFFEB 		bl	R_RIIC_TransmitStop
 1805              	.LVL254:
 938:../generate/sc_drivers/r_riic/src/hld/r_riic_hld_prv.c **** 
 1806              		.loc 1 938 0
 1807 0134 0500A0E1 		mov	r0, r5
 1808 0138 FEFFFFEB 		bl	wait_stop
 1809              	.LVL255:
 941:../generate/sc_drivers/r_riic/src/hld/r_riic_hld_prv.c **** /*******************************************************************************
 1810              		.loc 1 941 0
 1811 013c 0400A0E1 		mov	r0, r4
 1812 0140 14D08DE2 		add	sp, sp, #20
 1813              		.cfi_remember_state
 1814              		.cfi_def_cfa_offset 20
 1815              		@ sp needed
 1816 0144 F080BDE8 		pop	{r4, r5, r6, r7, pc}
 1817              	.LVL256:
 1818              	.L165:
 1819              		.cfi_restore_state
 911:../generate/sc_drivers/r_riic/src/hld/r_riic_hld_prv.c ****     }
 1820              		.loc 1 911 0
 1821 0148 0010A0E3 		mov	r1, #0
 1822 014c 0500A0E1 		mov	r0, r5
 1823 0150 FEFFFFEB 		bl	wait_bus_master
 1824              	.LVL257:
 1825 0154 0040A0E1 		mov	r4, r0
 1826              	.LVL258:
 1827 0158 E9FFFFEA 		b	.L155
 1828              	.LVL259:
 1829              	.L166:
 917:../generate/sc_drivers/r_riic/src/hld/r_riic_hld_prv.c ****     }
 1830              		.loc 1 917 0
 1831 015c 0500A0E1 		mov	r0, r5
 1832 0160 FEFFFFEB 		bl	transmit_start
 1833              	.LVL260:
 1834 0164 0040A0E1 		mov	r4, r0
 1835              	.LVL261:
 1836 0168 E7FFFFEA 		b	.L156
 1837              	.LVL262:
 1838              	.L167:
 923:../generate/sc_drivers/r_riic/src/hld/r_riic_hld_prv.c ****     }
 1839              		.loc 1 923 0
 1840 016c 0720A0E1 		mov	r2, r7
 1841 0170 04108DE2 		add	r1, sp, #4
 1842 0174 0500A0E1 		mov	r0, r5
 1843 0178 FEFFFFEB 		bl	riic_write
 1844              	.LVL263:
 1845 017c 0040A0E1 		mov	r4, r0
 1846              	.LVL264:
 1847 0180 E3FFFFEA 		b	.L157
 1848              	.LVL265:
 1849              	.L168:
 929:../generate/sc_drivers/r_riic/src/hld/r_riic_hld_prv.c ****     }
 1850              		.loc 1 929 0
 1851 0184 082096E5 		ldr	r2, [r6, #8]
 1852 0188 0C1096E5 		ldr	r1, [r6, #12]
 1853 018c 0500A0E1 		mov	r0, r5
 1854 0190 FEFFFFEB 		bl	riic_write
 1855              	.LVL266:
 1856 0194 0040A0E1 		mov	r4, r0
 1857              	.LVL267:
 1858 0198 DFFFFFEA 		b	.L158
 1859              		.cfi_endproc
 1860              	.LFE13:
 1862              		.section	.text.r_riic_hld_set_rx_full,"ax",%progbits
 1863              		.align	2
 1864              		.global	r_riic_hld_set_rx_full
 1865              		.syntax unified
 1866              		.arm
 1867              		.fpu neon
 1869              	r_riic_hld_set_rx_full:
 1870              	.LFB22:
1201:../generate/sc_drivers/r_riic/src/hld/r_riic_hld_prv.c **** /*******************************************************************************
1202:../generate/sc_drivers/r_riic/src/hld/r_riic_hld_prv.c ****  End of function get_timeout_status
1203:../generate/sc_drivers/r_riic/src/hld/r_riic_hld_prv.c ****  ******************************************************************************/
1204:../generate/sc_drivers/r_riic/src/hld/r_riic_hld_prv.c **** 
1205:../generate/sc_drivers/r_riic/src/hld/r_riic_hld_prv.c **** /**
1206:../generate/sc_drivers/r_riic/src/hld/r_riic_hld_prv.c ****  * @brief Hook for low level driver to indicate receive full for selected
1207:../generate/sc_drivers/r_riic/src/hld/r_riic_hld_prv.c ****  *        channel to the high level driver
1208:../generate/sc_drivers/r_riic/src/hld/r_riic_hld_prv.c ****  * @param[in] channel : the device specific channel number (< RIIC_CFG_LLD_NUM_CHANNELS)
1209:../generate/sc_drivers/r_riic/src/hld/r_riic_hld_prv.c ****  **/
1210:../generate/sc_drivers/r_riic/src/hld/r_riic_hld_prv.c **** void r_riic_hld_set_rx_full (int_t channel)
1211:../generate/sc_drivers/r_riic/src/hld/r_riic_hld_prv.c **** {
 1871              		.loc 1 1211 0
 1872              		.cfi_startproc
 1873              		@ args = 0, pretend = 0, frame = 0
 1874              		@ frame_needed = 0, uses_anonymous_args = 0
 1875              		@ link register save eliminated.
 1876              	.LVL268:
1212:../generate/sc_drivers/r_riic/src/hld/r_riic_hld_prv.c ****     gs_riic_receive_full_flg[channel] = DRV_FLAG_ON_PRV_;
 1877              		.loc 1 1212 0
 1878 0000 003000E3 		movw	r3, #:lower16:.LANCHOR3
 1879 0004 003040E3 		movt	r3, #:upper16:.LANCHOR3
 1880 0008 0120A0E3 		mov	r2, #1
 1881 000c 0020C3E7 		strb	r2, [r3, r0]
 1882 0010 1EFF2FE1 		bx	lr
 1883              		.cfi_endproc
 1884              	.LFE22:
 1886              		.section	.text.r_riic_hld_set_tx_empty,"ax",%progbits
 1887              		.align	2
 1888              		.global	r_riic_hld_set_tx_empty
 1889              		.syntax unified
 1890              		.arm
 1891              		.fpu neon
 1893              	r_riic_hld_set_tx_empty:
 1894              	.LFB23:
1213:../generate/sc_drivers/r_riic/src/hld/r_riic_hld_prv.c **** }
1214:../generate/sc_drivers/r_riic/src/hld/r_riic_hld_prv.c **** /*******************************************************************************
1215:../generate/sc_drivers/r_riic/src/hld/r_riic_hld_prv.c ****  End of function r_riic_hld_set_rx_full
1216:../generate/sc_drivers/r_riic/src/hld/r_riic_hld_prv.c ****  *******************************************************************************/
1217:../generate/sc_drivers/r_riic/src/hld/r_riic_hld_prv.c **** 
1218:../generate/sc_drivers/r_riic/src/hld/r_riic_hld_prv.c **** /**
1219:../generate/sc_drivers/r_riic/src/hld/r_riic_hld_prv.c ****  * @brief Hook for the low level driver to indicate transmit empty for selected
1220:../generate/sc_drivers/r_riic/src/hld/r_riic_hld_prv.c ****  *        channel to the high level driver
1221:../generate/sc_drivers/r_riic/src/hld/r_riic_hld_prv.c ****  * @param[in] channel : the device specific channel number (< RIIC_CFG_LLD_NUM_CHANNELS)
1222:../generate/sc_drivers/r_riic/src/hld/r_riic_hld_prv.c ****  **/
1223:../generate/sc_drivers/r_riic/src/hld/r_riic_hld_prv.c **** void r_riic_hld_set_tx_empty (int_t channel)
1224:../generate/sc_drivers/r_riic/src/hld/r_riic_hld_prv.c **** {
 1895              		.loc 1 1224 0
 1896              		.cfi_startproc
 1897              		@ args = 0, pretend = 0, frame = 0
 1898              		@ frame_needed = 0, uses_anonymous_args = 0
 1899              		@ link register save eliminated.
 1900              	.LVL269:
1225:../generate/sc_drivers/r_riic/src/hld/r_riic_hld_prv.c ****     gs_riic_transmit_empty_flg[channel] = DRV_FLAG_ON_PRV_;
 1901              		.loc 1 1225 0
 1902 0000 003000E3 		movw	r3, #:lower16:.LANCHOR1
 1903 0004 003040E3 		movt	r3, #:upper16:.LANCHOR1
 1904 0008 0120A0E3 		mov	r2, #1
 1905 000c 0020C3E7 		strb	r2, [r3, r0]
 1906 0010 1EFF2FE1 		bx	lr
 1907              		.cfi_endproc
 1908              	.LFE23:
 1910              		.section	.text.r_riic_hld_set_tx_end,"ax",%progbits
 1911              		.align	2
 1912              		.global	r_riic_hld_set_tx_end
 1913              		.syntax unified
 1914              		.arm
 1915              		.fpu neon
 1917              	r_riic_hld_set_tx_end:
 1918              	.LFB24:
1226:../generate/sc_drivers/r_riic/src/hld/r_riic_hld_prv.c **** }
1227:../generate/sc_drivers/r_riic/src/hld/r_riic_hld_prv.c **** /*******************************************************************************
1228:../generate/sc_drivers/r_riic/src/hld/r_riic_hld_prv.c ****  End of function r_riic_hld_set_tx_empty
1229:../generate/sc_drivers/r_riic/src/hld/r_riic_hld_prv.c ****  *******************************************************************************/
1230:../generate/sc_drivers/r_riic/src/hld/r_riic_hld_prv.c **** 
1231:../generate/sc_drivers/r_riic/src/hld/r_riic_hld_prv.c **** /**
1232:../generate/sc_drivers/r_riic/src/hld/r_riic_hld_prv.c ****  * @brief Hook for the low level driver to indicate transmit end for selected
1233:../generate/sc_drivers/r_riic/src/hld/r_riic_hld_prv.c ****  *        channel to the high level driver
1234:../generate/sc_drivers/r_riic/src/hld/r_riic_hld_prv.c ****  * @param[in] channel : the device specific channel number (< RIIC_CFG_LLD_NUM_CHANNELS)
1235:../generate/sc_drivers/r_riic/src/hld/r_riic_hld_prv.c ****  **/
1236:../generate/sc_drivers/r_riic/src/hld/r_riic_hld_prv.c **** void r_riic_hld_set_tx_end (int_t channel)
1237:../generate/sc_drivers/r_riic/src/hld/r_riic_hld_prv.c **** {
 1919              		.loc 1 1237 0
 1920              		.cfi_startproc
 1921              		@ args = 0, pretend = 0, frame = 0
 1922              		@ frame_needed = 0, uses_anonymous_args = 0
 1923              		@ link register save eliminated.
 1924              	.LVL270:
1238:../generate/sc_drivers/r_riic/src/hld/r_riic_hld_prv.c ****     gs_riic_transmit_end_flg[channel] = DRV_FLAG_ON_PRV_;
 1925              		.loc 1 1238 0
 1926 0000 003000E3 		movw	r3, #:lower16:.LANCHOR2
 1927 0004 003040E3 		movt	r3, #:upper16:.LANCHOR2
 1928 0008 0120A0E3 		mov	r2, #1
 1929 000c 0020C3E7 		strb	r2, [r3, r0]
 1930 0010 1EFF2FE1 		bx	lr
 1931              		.cfi_endproc
 1932              	.LFE24:
 1934              		.section	.text.r_riic_hld_set_stop_asserted,"ax",%progbits
 1935              		.align	2
 1936              		.global	r_riic_hld_set_stop_asserted
 1937              		.syntax unified
 1938              		.arm
 1939              		.fpu neon
 1941              	r_riic_hld_set_stop_asserted:
 1942              	.LFB25:
1239:../generate/sc_drivers/r_riic/src/hld/r_riic_hld_prv.c **** }
1240:../generate/sc_drivers/r_riic/src/hld/r_riic_hld_prv.c **** /*******************************************************************************
1241:../generate/sc_drivers/r_riic/src/hld/r_riic_hld_prv.c ****  End of function r_riic_hld_set_tx_end
1242:../generate/sc_drivers/r_riic/src/hld/r_riic_hld_prv.c ****  *******************************************************************************/
1243:../generate/sc_drivers/r_riic/src/hld/r_riic_hld_prv.c **** 
1244:../generate/sc_drivers/r_riic/src/hld/r_riic_hld_prv.c **** /**
1245:../generate/sc_drivers/r_riic/src/hld/r_riic_hld_prv.c ****  * @brief Function to inform high layer driver when the RIIC channel's stop bit
1246:../generate/sc_drivers/r_riic/src/hld/r_riic_hld_prv.c ****  * has been asserted. This function should be called by the low layer
1247:../generate/sc_drivers/r_riic/src/hld/r_riic_hld_prv.c ****  * driver in it's stop bit asserted interrupt service routine for each channel
1248:../generate/sc_drivers/r_riic/src/hld/r_riic_hld_prv.c ****  * in use.
1249:../generate/sc_drivers/r_riic/src/hld/r_riic_hld_prv.c ****  * It informs the high layer driver that a stop bit has been detected and to
1250:../generate/sc_drivers/r_riic/src/hld/r_riic_hld_prv.c ****  * act appropriately.
1251:../generate/sc_drivers/r_riic/src/hld/r_riic_hld_prv.c ****  *
1252:../generate/sc_drivers/r_riic/src/hld/r_riic_hld_prv.c ****  * @param[in] channel RIIC channel (< RIIC_CFG_LLD_NUM_CHANNELS)
1253:../generate/sc_drivers/r_riic/src/hld/r_riic_hld_prv.c ****  * @return Nothing
1254:../generate/sc_drivers/r_riic/src/hld/r_riic_hld_prv.c ****  */
1255:../generate/sc_drivers/r_riic/src/hld/r_riic_hld_prv.c **** void r_riic_hld_set_stop_asserted (int_t channel)
1256:../generate/sc_drivers/r_riic/src/hld/r_riic_hld_prv.c **** {
 1943              		.loc 1 1256 0
 1944              		.cfi_startproc
 1945              		@ args = 0, pretend = 0, frame = 0
 1946              		@ frame_needed = 0, uses_anonymous_args = 0
 1947              		@ link register save eliminated.
 1948              	.LVL271:
1257:../generate/sc_drivers/r_riic/src/hld/r_riic_hld_prv.c ****     gs_riic_stop_flg[channel] = DRV_FLAG_ON_PRV_;
 1949              		.loc 1 1257 0
 1950 0000 003000E3 		movw	r3, #:lower16:.LANCHOR4
 1951 0004 003040E3 		movt	r3, #:upper16:.LANCHOR4
 1952 0008 0120A0E3 		mov	r2, #1
 1953 000c 0020C3E7 		strb	r2, [r3, r0]
 1954 0010 1EFF2FE1 		bx	lr
 1955              		.cfi_endproc
 1956              	.LFE25:
 1958              		.section	.text.r_riic_hld_set_start_asserted,"ax",%progbits
 1959              		.align	2
 1960              		.global	r_riic_hld_set_start_asserted
 1961              		.syntax unified
 1962              		.arm
 1963              		.fpu neon
 1965              	r_riic_hld_set_start_asserted:
 1966              	.LFB26:
1258:../generate/sc_drivers/r_riic/src/hld/r_riic_hld_prv.c **** }
1259:../generate/sc_drivers/r_riic/src/hld/r_riic_hld_prv.c **** /*******************************************************************************
1260:../generate/sc_drivers/r_riic/src/hld/r_riic_hld_prv.c ****  End of function r_riic_hld_set_stop_asserted
1261:../generate/sc_drivers/r_riic/src/hld/r_riic_hld_prv.c ****  ******************************************************************************/
1262:../generate/sc_drivers/r_riic/src/hld/r_riic_hld_prv.c **** 
1263:../generate/sc_drivers/r_riic/src/hld/r_riic_hld_prv.c **** /**
1264:../generate/sc_drivers/r_riic/src/hld/r_riic_hld_prv.c ****  * @brief Function to inform high layer driver when the RIIC channel's start bit
1265:../generate/sc_drivers/r_riic/src/hld/r_riic_hld_prv.c ****  * has been asserted. This function should be called by the low layer
1266:../generate/sc_drivers/r_riic/src/hld/r_riic_hld_prv.c ****  * driver in it's start bit asserted interrupt service routine for each channel
1267:../generate/sc_drivers/r_riic/src/hld/r_riic_hld_prv.c ****  * in use.
1268:../generate/sc_drivers/r_riic/src/hld/r_riic_hld_prv.c ****  * It informs the high layer driver that a start bit has been detected and to
1269:../generate/sc_drivers/r_riic/src/hld/r_riic_hld_prv.c ****  * act appropriately.
1270:../generate/sc_drivers/r_riic/src/hld/r_riic_hld_prv.c ****  *
1271:../generate/sc_drivers/r_riic/src/hld/r_riic_hld_prv.c ****  * @param[in] channel RIIC channel (< RIIC_CFG_LLD_NUM_CHANNELS)
1272:../generate/sc_drivers/r_riic/src/hld/r_riic_hld_prv.c ****  * @return Nothing
1273:../generate/sc_drivers/r_riic/src/hld/r_riic_hld_prv.c ****  */
1274:../generate/sc_drivers/r_riic/src/hld/r_riic_hld_prv.c **** void r_riic_hld_set_start_asserted (int_t channel)
1275:../generate/sc_drivers/r_riic/src/hld/r_riic_hld_prv.c **** {
 1967              		.loc 1 1275 0
 1968              		.cfi_startproc
 1969              		@ args = 0, pretend = 0, frame = 0
 1970              		@ frame_needed = 0, uses_anonymous_args = 0
 1971              		@ link register save eliminated.
 1972              	.LVL272:
1276:../generate/sc_drivers/r_riic/src/hld/r_riic_hld_prv.c ****     gs_riic_start_flg[channel] = DRV_FLAG_ON_PRV_;
 1973              		.loc 1 1276 0
 1974 0000 003000E3 		movw	r3, #:lower16:.LANCHOR7
 1975 0004 003040E3 		movt	r3, #:upper16:.LANCHOR7
 1976 0008 0120A0E3 		mov	r2, #1
 1977 000c 0020C3E7 		strb	r2, [r3, r0]
 1978 0010 1EFF2FE1 		bx	lr
 1979              		.cfi_endproc
 1980              	.LFE26:
 1982              		.section	.text.r_riic_hld_set_nack_asserted,"ax",%progbits
 1983              		.align	2
 1984              		.global	r_riic_hld_set_nack_asserted
 1985              		.syntax unified
 1986              		.arm
 1987              		.fpu neon
 1989              	r_riic_hld_set_nack_asserted:
 1990              	.LFB27:
1277:../generate/sc_drivers/r_riic/src/hld/r_riic_hld_prv.c **** }
1278:../generate/sc_drivers/r_riic/src/hld/r_riic_hld_prv.c **** /*******************************************************************************
1279:../generate/sc_drivers/r_riic/src/hld/r_riic_hld_prv.c ****  End of function r_riic_hld_set_start_asserted
1280:../generate/sc_drivers/r_riic/src/hld/r_riic_hld_prv.c ****  ******************************************************************************/
1281:../generate/sc_drivers/r_riic/src/hld/r_riic_hld_prv.c **** 
1282:../generate/sc_drivers/r_riic/src/hld/r_riic_hld_prv.c **** /**
1283:../generate/sc_drivers/r_riic/src/hld/r_riic_hld_prv.c ****  * @brief Function to inform high layer driver when the RIIC channel's NACK
1284:../generate/sc_drivers/r_riic/src/hld/r_riic_hld_prv.c ****  * has been asserted. This function should be called by the low layer
1285:../generate/sc_drivers/r_riic/src/hld/r_riic_hld_prv.c ****  * driver in it's NACK interrupt service routine for each channel
1286:../generate/sc_drivers/r_riic/src/hld/r_riic_hld_prv.c ****  * in use.
1287:../generate/sc_drivers/r_riic/src/hld/r_riic_hld_prv.c ****  * It informs the high layer driver that a NACK has been detected and to
1288:../generate/sc_drivers/r_riic/src/hld/r_riic_hld_prv.c ****  * act appropriately.
1289:../generate/sc_drivers/r_riic/src/hld/r_riic_hld_prv.c ****  *
1290:../generate/sc_drivers/r_riic/src/hld/r_riic_hld_prv.c ****  * @param[in] channel RIIC channel (< RIIC_CFG_LLD_NUM_CHANNELS)
1291:../generate/sc_drivers/r_riic/src/hld/r_riic_hld_prv.c ****  * @return Nothing
1292:../generate/sc_drivers/r_riic/src/hld/r_riic_hld_prv.c ****  */
1293:../generate/sc_drivers/r_riic/src/hld/r_riic_hld_prv.c **** void r_riic_hld_set_nack_asserted (int_t channel)
1294:../generate/sc_drivers/r_riic/src/hld/r_riic_hld_prv.c **** {
 1991              		.loc 1 1294 0
 1992              		.cfi_startproc
 1993              		@ args = 0, pretend = 0, frame = 0
 1994              		@ frame_needed = 0, uses_anonymous_args = 0
 1995              		@ link register save eliminated.
 1996              	.LVL273:
1295:../generate/sc_drivers/r_riic/src/hld/r_riic_hld_prv.c ****     gs_riic_nack_flg[channel] = DRV_FLAG_ON_PRV_;
 1997              		.loc 1 1295 0
 1998 0000 003000E3 		movw	r3, #:lower16:.LANCHOR5
 1999 0004 003040E3 		movt	r3, #:upper16:.LANCHOR5
 2000 0008 0120A0E3 		mov	r2, #1
 2001 000c 0020C3E7 		strb	r2, [r3, r0]
 2002 0010 1EFF2FE1 		bx	lr
 2003              		.cfi_endproc
 2004              	.LFE27:
 2006              		.section	.text.r_riic_hld_set_arbitrate_assert,"ax",%progbits
 2007              		.align	2
 2008              		.global	r_riic_hld_set_arbitrate_assert
 2009              		.syntax unified
 2010              		.arm
 2011              		.fpu neon
 2013              	r_riic_hld_set_arbitrate_assert:
 2014              	.LFB28:
1296:../generate/sc_drivers/r_riic/src/hld/r_riic_hld_prv.c **** }
1297:../generate/sc_drivers/r_riic/src/hld/r_riic_hld_prv.c **** /*******************************************************************************
1298:../generate/sc_drivers/r_riic/src/hld/r_riic_hld_prv.c ****  End of function r_riic_hld_set_nack_asserted
1299:../generate/sc_drivers/r_riic/src/hld/r_riic_hld_prv.c ****  ******************************************************************************/
1300:../generate/sc_drivers/r_riic/src/hld/r_riic_hld_prv.c **** 
1301:../generate/sc_drivers/r_riic/src/hld/r_riic_hld_prv.c **** /**
1302:../generate/sc_drivers/r_riic/src/hld/r_riic_hld_prv.c ****  * @brief Function to inform high layer driver when a RIIC channel
1303:../generate/sc_drivers/r_riic/src/hld/r_riic_hld_prv.c ****  * arbitration failure has been detected. This function should be called
1304:../generate/sc_drivers/r_riic/src/hld/r_riic_hld_prv.c ****  * by the low layer driver in it's arbitration failure interrupt service
1305:../generate/sc_drivers/r_riic/src/hld/r_riic_hld_prv.c ****  * routine for each channel in use.
1306:../generate/sc_drivers/r_riic/src/hld/r_riic_hld_prv.c ****  * It informs the high layer driver that a arbitration failure has been
1307:../generate/sc_drivers/r_riic/src/hld/r_riic_hld_prv.c ****  * detected and to act appropriately.
1308:../generate/sc_drivers/r_riic/src/hld/r_riic_hld_prv.c ****  *
1309:../generate/sc_drivers/r_riic/src/hld/r_riic_hld_prv.c ****  * @param[in] channel RIIC channel (< RIIC_CFG_LLD_NUM_CHANNELS)
1310:../generate/sc_drivers/r_riic/src/hld/r_riic_hld_prv.c ****  * @return Nothing
1311:../generate/sc_drivers/r_riic/src/hld/r_riic_hld_prv.c ****  */
1312:../generate/sc_drivers/r_riic/src/hld/r_riic_hld_prv.c **** void r_riic_hld_set_arbitrate_assert (int_t channel)
1313:../generate/sc_drivers/r_riic/src/hld/r_riic_hld_prv.c **** {
 2015              		.loc 1 1313 0
 2016              		.cfi_startproc
 2017              		@ args = 0, pretend = 0, frame = 0
 2018              		@ frame_needed = 0, uses_anonymous_args = 0
 2019              		@ link register save eliminated.
 2020              	.LVL274:
1314:../generate/sc_drivers/r_riic/src/hld/r_riic_hld_prv.c ****     gs_riic_arbitration_flg[channel] = DRV_FLAG_ON_PRV_;
 2021              		.loc 1 1314 0
 2022 0000 003000E3 		movw	r3, #:lower16:.LANCHOR8
 2023 0004 003040E3 		movt	r3, #:upper16:.LANCHOR8
 2024 0008 0120A0E3 		mov	r2, #1
 2025 000c 0020C3E7 		strb	r2, [r3, r0]
 2026 0010 1EFF2FE1 		bx	lr
 2027              		.cfi_endproc
 2028              	.LFE28:
 2030              		.section	.text.r_riic_hld_set_timeout_asserted,"ax",%progbits
 2031              		.align	2
 2032              		.global	r_riic_hld_set_timeout_asserted
 2033              		.syntax unified
 2034              		.arm
 2035              		.fpu neon
 2037              	r_riic_hld_set_timeout_asserted:
 2038              	.LFB29:
1315:../generate/sc_drivers/r_riic/src/hld/r_riic_hld_prv.c **** }
1316:../generate/sc_drivers/r_riic/src/hld/r_riic_hld_prv.c **** /*******************************************************************************
1317:../generate/sc_drivers/r_riic/src/hld/r_riic_hld_prv.c ****  End of function r_riic_hld_set_arbitrate_assert
1318:../generate/sc_drivers/r_riic/src/hld/r_riic_hld_prv.c ****  ******************************************************************************/
1319:../generate/sc_drivers/r_riic/src/hld/r_riic_hld_prv.c **** 
1320:../generate/sc_drivers/r_riic/src/hld/r_riic_hld_prv.c **** /**
1321:../generate/sc_drivers/r_riic/src/hld/r_riic_hld_prv.c ****  * @brief Function to inform high layer driver when a RIIC channel
1322:../generate/sc_drivers/r_riic/src/hld/r_riic_hld_prv.c ****  * timeout has occurred. This function should be called
1323:../generate/sc_drivers/r_riic/src/hld/r_riic_hld_prv.c ****  * by the low layer driver in it's timeout interrupt service
1324:../generate/sc_drivers/r_riic/src/hld/r_riic_hld_prv.c ****  * routine for each channel in use.
1325:../generate/sc_drivers/r_riic/src/hld/r_riic_hld_prv.c ****  * It informs the high layer driver that a timeout has been
1326:../generate/sc_drivers/r_riic/src/hld/r_riic_hld_prv.c ****  * detected and to act appropriately.
1327:../generate/sc_drivers/r_riic/src/hld/r_riic_hld_prv.c ****  *
1328:../generate/sc_drivers/r_riic/src/hld/r_riic_hld_prv.c ****  * @param[in] channel RIIC channel (< RIIC_CFG_LLD_NUM_CHANNELS)
1329:../generate/sc_drivers/r_riic/src/hld/r_riic_hld_prv.c ****  * @return Nothing
1330:../generate/sc_drivers/r_riic/src/hld/r_riic_hld_prv.c ****  */
1331:../generate/sc_drivers/r_riic/src/hld/r_riic_hld_prv.c **** void r_riic_hld_set_timeout_asserted (int_t channel)
1332:../generate/sc_drivers/r_riic/src/hld/r_riic_hld_prv.c **** {
 2039              		.loc 1 1332 0
 2040              		.cfi_startproc
 2041              		@ args = 0, pretend = 0, frame = 0
 2042              		@ frame_needed = 0, uses_anonymous_args = 0
 2043              		@ link register save eliminated.
 2044              	.LVL275:
1333:../generate/sc_drivers/r_riic/src/hld/r_riic_hld_prv.c ****     gs_riic_timeout_flg[channel] = DRV_FLAG_ON_PRV_;
 2045              		.loc 1 1333 0
 2046 0000 003000E3 		movw	r3, #:lower16:.LANCHOR0
 2047 0004 003040E3 		movt	r3, #:upper16:.LANCHOR0
 2048 0008 0120A0E3 		mov	r2, #1
 2049 000c 0020C3E7 		strb	r2, [r3, r0]
 2050 0010 1EFF2FE1 		bx	lr
 2051              		.cfi_endproc
 2052              	.LFE29:
 2054              		.section	.bss.gs_channel_initialise_state,"aw",%nobits
 2055              		.align	2
 2056              		.set	.LANCHOR9,. + 0
 2059              	gs_channel_initialise_state:
 2060 0000 00000000 		.space	16
 2060      00000000 
 2060      00000000 
 2060      00000000 
 2061              		.section	.bss.gs_riic_arbitration_flg,"aw",%nobits
 2062              		.align	2
 2063              		.set	.LANCHOR8,. + 0
 2066              	gs_riic_arbitration_flg:
 2067 0000 00000000 		.space	4
 2068              		.section	.bss.gs_riic_nack_flg,"aw",%nobits
 2069              		.align	2
 2070              		.set	.LANCHOR5,. + 0
 2073              	gs_riic_nack_flg:
 2074 0000 00000000 		.space	4
 2075              		.section	.bss.gs_riic_receive_full_flg,"aw",%nobits
 2076              		.align	2
 2077              		.set	.LANCHOR3,. + 0
 2080              	gs_riic_receive_full_flg:
 2081 0000 00000000 		.space	4
 2082              		.section	.bss.gs_riic_start_flg,"aw",%nobits
 2083              		.align	2
 2084              		.set	.LANCHOR7,. + 0
 2087              	gs_riic_start_flg:
 2088 0000 00000000 		.space	4
 2089              		.section	.bss.gs_riic_stop_flg,"aw",%nobits
 2090              		.align	2
 2091              		.set	.LANCHOR4,. + 0
 2094              	gs_riic_stop_flg:
 2095 0000 00000000 		.space	4
 2096              		.section	.bss.gs_riic_timeout_flg,"aw",%nobits
 2097              		.align	2
 2098              		.set	.LANCHOR0,. + 0
 2101              	gs_riic_timeout_flg:
 2102 0000 00000000 		.space	4
 2103              		.section	.bss.gs_riic_transmit_empty_flg,"aw",%nobits
 2104              		.align	2
 2105              		.set	.LANCHOR1,. + 0
 2108              	gs_riic_transmit_empty_flg:
 2109 0000 00000000 		.space	4
 2110              		.section	.bss.gs_riic_transmit_end_flg,"aw",%nobits
 2111              		.align	2
 2112              		.set	.LANCHOR2,. + 0
 2115              	gs_riic_transmit_end_flg:
 2116 0000 00000000 		.space	4
 2117              		.section	.rodata.GPIO_SC_TABLE_riic2,"a",%progbits
 2118              		.align	2
 2121              	GPIO_SC_TABLE_riic2:
 2122 0000 040D     		.short	3332
 2123 0002 07       		.byte	7
 2124 0003 01       		.byte	1
 2125 0004 05       		.byte	5
 2126 0005 00       		.space	1
 2127 0006 050D     		.short	3333
 2128 0008 07       		.byte	7
 2129 0009 01       		.byte	1
 2130 000a 05       		.byte	5
 2131 000b 00       		.space	1
 2132              		.section	.rodata.GPIO_SC_TABLE_riic3,"a",%progbits
 2133              		.align	2
 2136              	GPIO_SC_TABLE_riic3:
 2137 0000 060D     		.short	3334
 2138 0002 07       		.byte	7
 2139 0003 01       		.byte	1
 2140 0004 05       		.byte	5
 2141 0005 00       		.space	1
 2142 0006 070D     		.short	3335
 2143 0008 07       		.byte	7
 2144 0009 01       		.byte	1
 2145 000a 05       		.byte	5
 2146 000b 00       		.space	1
 2147              		.section	.rodata.RIIC_SC_TABLE,"a",%progbits
 2148              		.align	2
 2149              		.set	.LANCHOR6,. + 0
 2152              	RIIC_SC_TABLE:
 2153 0000 02000000 		.word	2
 2154 0004 00       		.byte	0
 2155 0005 000000   		.space	3
 2156 0008 01000000 		.word	1
 2157 000c 00000000 		.word	0
 2158 0010 00000000 		.word	0
 2159 0014 0100     		.short	1
 2160 0016 0100     		.short	1
 2161 0018 0100     		.short	1
 2162 001a 00       		.byte	0
 2163 001b 00       		.byte	0
 2164 001c 00       		.byte	0
 2165 001d 00       		.byte	0
 2166 001e 04       		.byte	4
 2167 001f 00       		.space	1
 2168 0020 00000000 		.word	0
 2169 0024 00000000 		.word	0
 2170 0028 00       		.byte	0
 2171 0029 00       		.byte	0
 2172 002a 00       		.byte	0
 2173 002b 00       		.space	1
 2174 002c 00000000 		.word	0
 2175 0030 09       		.byte	9
 2176 0031 09       		.byte	9
 2177 0032 09       		.byte	9
 2178 0033 09       		.byte	9
 2179 0034 09       		.byte	9
 2180 0035 09       		.byte	9
 2181 0036 09       		.byte	9
 2182 0037 09       		.byte	9
 2183 0038 00000000 		.word	GPIO_SC_TABLE_riic2
 2184 003c 02000000 		.word	2
 2185 0040 00000000 		.space	4
 2186 0044 03000000 		.word	3
 2187 0048 00       		.byte	0
 2188 0049 000000   		.space	3
 2189 004c 01000000 		.word	1
 2190 0050 00000000 		.word	0
 2191 0054 00000000 		.word	0
 2192 0058 0100     		.short	1
 2193 005a 0100     		.short	1
 2194 005c 0100     		.short	1
 2195 005e 00       		.byte	0
 2196 005f 00       		.byte	0
 2197 0060 00       		.byte	0
 2198 0061 00       		.byte	0
 2199 0062 04       		.byte	4
 2200 0063 00       		.space	1
 2201 0064 00000000 		.word	0
 2202 0068 00000000 		.word	0
 2203 006c 00       		.byte	0
 2204 006d 00       		.byte	0
 2205 006e 00       		.byte	0
 2206 006f 00       		.space	1
 2207 0070 00000000 		.word	0
 2208 0074 09       		.byte	9
 2209 0075 09       		.byte	9
 2210 0076 09       		.byte	9
 2211 0077 09       		.byte	9
 2212 0078 09       		.byte	9
 2213 0079 09       		.byte	9
 2214 007a 09       		.byte	9
 2215 007b 09       		.byte	9
 2216 007c 00000000 		.word	GPIO_SC_TABLE_riic3
 2217 0080 02000000 		.word	2
 2218 0084 00000000 		.space	4
 2219              		.section	.rodata.riic_setup.str1.4,"aMS",%progbits,1
 2220              		.align	2
 2221              	.LC0:
 2222 0000 6770696F 		.ascii	"gpio\000"
 2222      00
 2223              		.text
 2224              	.Letext0:
 2225              		.file 2 "c:\\program files (x86)\\gnu tools arm embedded\\6 2017-q2-update\\arm-none-eabi\\include
 2226              		.file 3 "c:\\program files (x86)\\gnu tools arm embedded\\6 2017-q2-update\\arm-none-eabi\\include
 2227              		.file 4 "c:\\program files (x86)\\gnu tools arm embedded\\6 2017-q2-update\\arm-none-eabi\\include
 2228              		.file 5 "c:\\program files (x86)\\gnu tools arm embedded\\6 2017-q2-update\\arm-none-eabi\\include
 2229              		.file 6 "c:\\program files (x86)\\gnu tools arm embedded\\6 2017-q2-update\\lib\\gcc\\arm-none-eab
 2230              		.file 7 "c:\\program files (x86)\\gnu tools arm embedded\\6 2017-q2-update\\arm-none-eabi\\include
 2231              		.file 8 "c:\\program files (x86)\\gnu tools arm embedded\\6 2017-q2-update\\arm-none-eabi\\include
 2232              		.file 9 "C:/Users/tle/e2_studio/workspace/rza2m_cam_and_disp_sample_freertos_gcc/generate/system/i
 2233              		.file 10 "C:/Users/tle/e2_studio/workspace/rza2m_cam_and_disp_sample_freertos_gcc/generate/system/
 2234              		.file 11 "c:\\program files (x86)\\gnu tools arm embedded\\6 2017-q2-update\\arm-none-eabi\\includ
 2235              		.file 12 "c:\\program files (x86)\\gnu tools arm embedded\\6 2017-q2-update\\arm-none-eabi\\includ
 2236              		.file 13 "C:/Users/tle/e2_studio/workspace/rza2m_cam_and_disp_sample_freertos_gcc/generate/drivers
 2237              		.file 14 "C:/Users/tle/e2_studio/workspace/rza2m_cam_and_disp_sample_freertos_gcc/generate/drivers
 2238              		.file 15 "C:/Users/tle/e2_studio/workspace/rza2m_cam_and_disp_sample_freertos_gcc/generate/drivers
 2239              		.file 16 "C:/Users/tle/e2_studio/workspace/rza2m_cam_and_disp_sample_freertos_gcc/generate/sc_driv
 2240              		.file 17 "C:/Users/tle/e2_studio/workspace/rza2m_cam_and_disp_sample_freertos_gcc/generate/sc_driv
 2241              		.file 18 "C:/Users/tle/e2_studio/workspace/rza2m_cam_and_disp_sample_freertos_gcc/generate/sc_driv
 2242              		.file 19 "C:/Users/tle/e2_studio/workspace/rza2m_cam_and_disp_sample_freertos_gcc/generate/sc_driv
 2243              		.file 20 "C:/Users/tle/e2_studio/workspace/rza2m_cam_and_disp_sample_freertos_gcc/generate/system/
DEFINED SYMBOLS
                            *ABS*:00000000 r_riic_hld_prv.c
C:\Users\tle\AppData\Local\Temp\cc4fFnbJ.s:17     .text.get_timeout_status:00000000 $a
C:\Users\tle\AppData\Local\Temp\cc4fFnbJ.s:22     .text.get_timeout_status:00000000 get_timeout_status
C:\Users\tle\AppData\Local\Temp\cc4fFnbJ.s:2098   .bss.gs_riic_timeout_flg:00000000 .LANCHOR0
C:\Users\tle\AppData\Local\Temp\cc4fFnbJ.s:60     .text.riic_setup:00000000 $a
C:\Users\tle\AppData\Local\Temp\cc4fFnbJ.s:65     .text.riic_setup:00000000 riic_setup
C:\Users\tle\AppData\Local\Temp\cc4fFnbJ.s:2221   .rodata.riic_setup.str1.4:00000000 .LC0
C:\Users\tle\AppData\Local\Temp\cc4fFnbJ.s:108    .text.start_timeout_monitor:00000000 $a
C:\Users\tle\AppData\Local\Temp\cc4fFnbJ.s:113    .text.start_timeout_monitor:00000000 start_timeout_monitor
C:\Users\tle\AppData\Local\Temp\cc4fFnbJ.s:137    .text.stop_timeout_monitor:00000000 $a
C:\Users\tle\AppData\Local\Temp\cc4fFnbJ.s:142    .text.stop_timeout_monitor:00000000 stop_timeout_monitor
C:\Users\tle\AppData\Local\Temp\cc4fFnbJ.s:166    .text.wait_bus_master:00000000 $a
C:\Users\tle\AppData\Local\Temp\cc4fFnbJ.s:171    .text.wait_bus_master:00000000 wait_bus_master
C:\Users\tle\AppData\Local\Temp\cc4fFnbJ.s:238    .text.wait_tx_empty:00000000 $a
C:\Users\tle\AppData\Local\Temp\cc4fFnbJ.s:243    .text.wait_tx_empty:00000000 wait_tx_empty
C:\Users\tle\AppData\Local\Temp\cc4fFnbJ.s:2105   .bss.gs_riic_transmit_empty_flg:00000000 .LANCHOR1
C:\Users\tle\AppData\Local\Temp\cc4fFnbJ.s:295    .text.wait_tx_end:00000000 $a
C:\Users\tle\AppData\Local\Temp\cc4fFnbJ.s:300    .text.wait_tx_end:00000000 wait_tx_end
C:\Users\tle\AppData\Local\Temp\cc4fFnbJ.s:2112   .bss.gs_riic_transmit_end_flg:00000000 .LANCHOR2
C:\Users\tle\AppData\Local\Temp\cc4fFnbJ.s:2077   .bss.gs_riic_receive_full_flg:00000000 .LANCHOR3
C:\Users\tle\AppData\Local\Temp\cc4fFnbJ.s:379    .text.wait_rx_full:00000000 $a
C:\Users\tle\AppData\Local\Temp\cc4fFnbJ.s:384    .text.wait_rx_full:00000000 wait_rx_full
C:\Users\tle\AppData\Local\Temp\cc4fFnbJ.s:436    .text.wait_stop:00000000 $a
C:\Users\tle\AppData\Local\Temp\cc4fFnbJ.s:441    .text.wait_stop:00000000 wait_stop
C:\Users\tle\AppData\Local\Temp\cc4fFnbJ.s:2091   .bss.gs_riic_stop_flg:00000000 .LANCHOR4
C:\Users\tle\AppData\Local\Temp\cc4fFnbJ.s:493    .text.transmit_start:00000000 $a
C:\Users\tle\AppData\Local\Temp\cc4fFnbJ.s:498    .text.transmit_start:00000000 transmit_start
C:\Users\tle\AppData\Local\Temp\cc4fFnbJ.s:554    .text.riic_transmit:00000000 $a
C:\Users\tle\AppData\Local\Temp\cc4fFnbJ.s:559    .text.riic_transmit:00000000 riic_transmit
C:\Users\tle\AppData\Local\Temp\cc4fFnbJ.s:2070   .bss.gs_riic_nack_flg:00000000 .LANCHOR5
C:\Users\tle\AppData\Local\Temp\cc4fFnbJ.s:628    .text.riic_write:00000000 $a
C:\Users\tle\AppData\Local\Temp\cc4fFnbJ.s:633    .text.riic_write:00000000 riic_write
C:\Users\tle\AppData\Local\Temp\cc4fFnbJ.s:729    .text.riic_single_write:00000000 $a
C:\Users\tle\AppData\Local\Temp\cc4fFnbJ.s:734    .text.riic_single_write:00000000 riic_single_write
C:\Users\tle\AppData\Local\Temp\cc4fFnbJ.s:790    .text.transmit_restart:00000000 $a
C:\Users\tle\AppData\Local\Temp\cc4fFnbJ.s:795    .text.transmit_restart:00000000 transmit_restart
C:\Users\tle\AppData\Local\Temp\cc4fFnbJ.s:851    .text.riic_receive:00000000 $a
C:\Users\tle\AppData\Local\Temp\cc4fFnbJ.s:856    .text.riic_receive:00000000 riic_receive
C:\Users\tle\AppData\Local\Temp\cc4fFnbJ.s:890    .text.riic_receive:00000038 $d
C:\Users\tle\AppData\Local\Temp\cc4fFnbJ.s:897    .text.riic_receive:0000004c $a
C:\Users\tle\AppData\Local\Temp\cc4fFnbJ.s:959    .text.riic_read:00000000 $a
C:\Users\tle\AppData\Local\Temp\cc4fFnbJ.s:964    .text.riic_read:00000000 riic_read
C:\Users\tle\AppData\Local\Temp\cc4fFnbJ.s:1132   .text.open_channel:00000000 $a
C:\Users\tle\AppData\Local\Temp\cc4fFnbJ.s:1138   .text.open_channel:00000000 open_channel
C:\Users\tle\AppData\Local\Temp\cc4fFnbJ.s:2149   .rodata.RIIC_SC_TABLE:00000000 .LANCHOR6
C:\Users\tle\AppData\Local\Temp\cc4fFnbJ.s:2084   .bss.gs_riic_start_flg:00000000 .LANCHOR7
C:\Users\tle\AppData\Local\Temp\cc4fFnbJ.s:2063   .bss.gs_riic_arbitration_flg:00000000 .LANCHOR8
C:\Users\tle\AppData\Local\Temp\cc4fFnbJ.s:1238   .text.close_channel:00000000 $a
C:\Users\tle\AppData\Local\Temp\cc4fFnbJ.s:1244   .text.close_channel:00000000 close_channel
C:\Users\tle\AppData\Local\Temp\cc4fFnbJ.s:2056   .bss.gs_channel_initialise_state:00000000 .LANCHOR9
C:\Users\tle\AppData\Local\Temp\cc4fFnbJ.s:1291   .text.read_data:00000000 $a
C:\Users\tle\AppData\Local\Temp\cc4fFnbJ.s:1297   .text.read_data:00000000 read_data
C:\Users\tle\AppData\Local\Temp\cc4fFnbJ.s:1554   .text.read_next_data:00000000 $a
C:\Users\tle\AppData\Local\Temp\cc4fFnbJ.s:1560   .text.read_next_data:00000000 read_next_data
C:\Users\tle\AppData\Local\Temp\cc4fFnbJ.s:1658   .text.write_data:00000000 $a
C:\Users\tle\AppData\Local\Temp\cc4fFnbJ.s:1664   .text.write_data:00000000 write_data
C:\Users\tle\AppData\Local\Temp\cc4fFnbJ.s:1863   .text.r_riic_hld_set_rx_full:00000000 $a
C:\Users\tle\AppData\Local\Temp\cc4fFnbJ.s:1869   .text.r_riic_hld_set_rx_full:00000000 r_riic_hld_set_rx_full
C:\Users\tle\AppData\Local\Temp\cc4fFnbJ.s:1887   .text.r_riic_hld_set_tx_empty:00000000 $a
C:\Users\tle\AppData\Local\Temp\cc4fFnbJ.s:1893   .text.r_riic_hld_set_tx_empty:00000000 r_riic_hld_set_tx_empty
C:\Users\tle\AppData\Local\Temp\cc4fFnbJ.s:1911   .text.r_riic_hld_set_tx_end:00000000 $a
C:\Users\tle\AppData\Local\Temp\cc4fFnbJ.s:1917   .text.r_riic_hld_set_tx_end:00000000 r_riic_hld_set_tx_end
C:\Users\tle\AppData\Local\Temp\cc4fFnbJ.s:1935   .text.r_riic_hld_set_stop_asserted:00000000 $a
C:\Users\tle\AppData\Local\Temp\cc4fFnbJ.s:1941   .text.r_riic_hld_set_stop_asserted:00000000 r_riic_hld_set_stop_asserted
C:\Users\tle\AppData\Local\Temp\cc4fFnbJ.s:1959   .text.r_riic_hld_set_start_asserted:00000000 $a
C:\Users\tle\AppData\Local\Temp\cc4fFnbJ.s:1965   .text.r_riic_hld_set_start_asserted:00000000 r_riic_hld_set_start_asserted
C:\Users\tle\AppData\Local\Temp\cc4fFnbJ.s:1983   .text.r_riic_hld_set_nack_asserted:00000000 $a
C:\Users\tle\AppData\Local\Temp\cc4fFnbJ.s:1989   .text.r_riic_hld_set_nack_asserted:00000000 r_riic_hld_set_nack_asserted
C:\Users\tle\AppData\Local\Temp\cc4fFnbJ.s:2007   .text.r_riic_hld_set_arbitrate_assert:00000000 $a
C:\Users\tle\AppData\Local\Temp\cc4fFnbJ.s:2013   .text.r_riic_hld_set_arbitrate_assert:00000000 r_riic_hld_set_arbitrate_assert
C:\Users\tle\AppData\Local\Temp\cc4fFnbJ.s:2031   .text.r_riic_hld_set_timeout_asserted:00000000 $a
C:\Users\tle\AppData\Local\Temp\cc4fFnbJ.s:2037   .text.r_riic_hld_set_timeout_asserted:00000000 r_riic_hld_set_timeout_asserted
C:\Users\tle\AppData\Local\Temp\cc4fFnbJ.s:2055   .bss.gs_channel_initialise_state:00000000 $d
C:\Users\tle\AppData\Local\Temp\cc4fFnbJ.s:2059   .bss.gs_channel_initialise_state:00000000 gs_channel_initialise_state
C:\Users\tle\AppData\Local\Temp\cc4fFnbJ.s:2062   .bss.gs_riic_arbitration_flg:00000000 $d
C:\Users\tle\AppData\Local\Temp\cc4fFnbJ.s:2066   .bss.gs_riic_arbitration_flg:00000000 gs_riic_arbitration_flg
C:\Users\tle\AppData\Local\Temp\cc4fFnbJ.s:2069   .bss.gs_riic_nack_flg:00000000 $d
C:\Users\tle\AppData\Local\Temp\cc4fFnbJ.s:2073   .bss.gs_riic_nack_flg:00000000 gs_riic_nack_flg
C:\Users\tle\AppData\Local\Temp\cc4fFnbJ.s:2076   .bss.gs_riic_receive_full_flg:00000000 $d
C:\Users\tle\AppData\Local\Temp\cc4fFnbJ.s:2080   .bss.gs_riic_receive_full_flg:00000000 gs_riic_receive_full_flg
C:\Users\tle\AppData\Local\Temp\cc4fFnbJ.s:2083   .bss.gs_riic_start_flg:00000000 $d
C:\Users\tle\AppData\Local\Temp\cc4fFnbJ.s:2087   .bss.gs_riic_start_flg:00000000 gs_riic_start_flg
C:\Users\tle\AppData\Local\Temp\cc4fFnbJ.s:2090   .bss.gs_riic_stop_flg:00000000 $d
C:\Users\tle\AppData\Local\Temp\cc4fFnbJ.s:2094   .bss.gs_riic_stop_flg:00000000 gs_riic_stop_flg
C:\Users\tle\AppData\Local\Temp\cc4fFnbJ.s:2097   .bss.gs_riic_timeout_flg:00000000 $d
C:\Users\tle\AppData\Local\Temp\cc4fFnbJ.s:2101   .bss.gs_riic_timeout_flg:00000000 gs_riic_timeout_flg
C:\Users\tle\AppData\Local\Temp\cc4fFnbJ.s:2104   .bss.gs_riic_transmit_empty_flg:00000000 $d
C:\Users\tle\AppData\Local\Temp\cc4fFnbJ.s:2108   .bss.gs_riic_transmit_empty_flg:00000000 gs_riic_transmit_empty_flg
C:\Users\tle\AppData\Local\Temp\cc4fFnbJ.s:2111   .bss.gs_riic_transmit_end_flg:00000000 $d
C:\Users\tle\AppData\Local\Temp\cc4fFnbJ.s:2115   .bss.gs_riic_transmit_end_flg:00000000 gs_riic_transmit_end_flg
C:\Users\tle\AppData\Local\Temp\cc4fFnbJ.s:2118   .rodata.GPIO_SC_TABLE_riic2:00000000 $d
C:\Users\tle\AppData\Local\Temp\cc4fFnbJ.s:2121   .rodata.GPIO_SC_TABLE_riic2:00000000 GPIO_SC_TABLE_riic2
C:\Users\tle\AppData\Local\Temp\cc4fFnbJ.s:2133   .rodata.GPIO_SC_TABLE_riic3:00000000 $d
C:\Users\tle\AppData\Local\Temp\cc4fFnbJ.s:2136   .rodata.GPIO_SC_TABLE_riic3:00000000 GPIO_SC_TABLE_riic3
C:\Users\tle\AppData\Local\Temp\cc4fFnbJ.s:2148   .rodata.RIIC_SC_TABLE:00000000 $d
C:\Users\tle\AppData\Local\Temp\cc4fFnbJ.s:2152   .rodata.RIIC_SC_TABLE:00000000 RIIC_SC_TABLE
C:\Users\tle\AppData\Local\Temp\cc4fFnbJ.s:2220   .rodata.riic_setup.str1.4:00000000 $d
                     .debug_frame:00000010 $d
                           .group:00000000 wm4.0.14fc17be114e5a2cba0959c511ea2aaf
                           .group:00000000 wm4.stddef.h.39.a38874c8f8a57e66301090908ec2a69f
                           .group:00000000 wm4._newlib_version.h.4.3572908597b70d672d181fc7fc501c19
                           .group:00000000 wm4.features.h.33.d97f2d646536517df901beeb5b9993f5
                           .group:00000000 wm4._default_types.h.15.247e5cd201eca3442cbf5404108c4935
                           .group:00000000 wm4._intsup.h.10.cce27fed8484c08a33f522034c30d2b5
                           .group:00000000 wm4._stdint.h.10.c24fa3af3bc1706662bb5593a907e841
                           .group:00000000 wm4.stdint.h.23.d53047a68f4a85177f80b422d52785ed
                           .group:00000000 wm4.newlib.h.8.5f2124c7e712be65f83b91ff86a0b1c1
                           .group:00000000 wm4.config.h.219.65a553ab5bef5482f0d7880b0d33015e
                           .group:00000000 wm4._ansi.h.23.9f8fcfa20193763fcf364fb91705c94b
                           .group:00000000 wm4.lock.h.2.1461d1fff82dffe8bfddc23307f6484f
                           .group:00000000 wm4._types.h.125.5cf8a495f1f7ef36777ad868a1e32068
                           .group:00000000 wm4.stddef.h.161.5349cb105733e8777bfb0cf53c4e3f34
                           .group:00000000 wm4._types.h.183.c226d164ceca1f2ecb9ae9360c54a098
                           .group:00000000 wm4.reent.h.17.23b059516345f8f5abfa01ddc379570f
                           .group:00000000 wm4.cdefs.h.47.e658329a094974ebad41b40c60502de7
                           .group:00000000 wm4.math.h.13.adb102f7bd7860b1f241e149d6914a1e
                           .group:00000000 wm4.r_typedefs.h.38.e90d9de5300d9ae020e5db8c5af88b3e
                           .group:00000000 wm4.driver.h.34.180df73e0731406f5e50150641059ede
                           .group:00000000 wm4.stdio.h.27.3fc80220048df77954e38daec3bb9670
                           .group:00000000 wm4.stddef.h.161.19e15733342b50ead2919490b095303e
                           .group:00000000 wm4.stdarg.h.34.3a23a216c0c293b3d2ea2e89281481e6
                           .group:00000000 wm4.types.h.40.e8c16e7ec36ba55f133d0616070e25fc
                           .group:00000000 wm4._endian.h.31.65a10590763c3dde1ac4a7f66d7d4891
                           .group:00000000 wm4.endian.h.9.49f3a4695c1b61e8a0808de3c4a106cb
                           .group:00000000 wm4._timeval.h.30.0e8bfd94e85db17dda3286ee81496fe6
                           .group:00000000 wm4.timespec.h.41.d855182eb0e690443ab8651bcedca6e1
                           .group:00000000 wm4.select.h.30.bbece7fa40993a78092dcc5805132560
                           .group:00000000 wm4.types.h.69.ed3eae3cf73030a737515151ebcab7a1
                           .group:00000000 wm4.stdio.h.2.4aa87247282eca6c8f36f9de33d8df1a
                           .group:00000000 wm4.stdio.h.81.8188691c2279eac7a223caa50f6694b9
                           .group:00000000 wm4.stdlib.h.13.4ed386f5c1a80d71e72172885d946ef2
                           .group:00000000 wm4.alloca.h.8.dfc0c703c47ec3e69746825b17d9e66d
                           .group:00000000 wm4.stdlib.h.56.d4493cd3736e51e9d56335045f26df45
                           .group:00000000 wm4.reent.h.91.b3ea049ebc5486622b61409b78486f84
                           .group:00000000 wm4._default_fcntl.h.6.b13d56891b95175b639f824a0fd1ed77
                           .group:00000000 wm4.time.h.8.db4619001f026d0b4874c029fef0e91f
                           .group:00000000 wm4.time.h.2.4581ce0ffb6627cfc02162c94bf846c9
                           .group:00000000 wm4.time.h.25.0e6a0fdbc9955f5707ed54246ed2e089
                           .group:00000000 wm4.time.h.162.d096f2f5887c52e271c4dc33d795dc64
                           .group:00000000 wm4.stat.h.71.d65ac61ff88c651e198008cfb38bda9c
                           .group:00000000 wm4.fcntl.h.9.9336f33d7f5028f694c75e6e224e0cf7
                           .group:00000000 wm4.r_devlink_wrapper.h.70.7c1584c2697f3b1858aea58c7b3e40d4
                           .group:00000000 wm4.adc_iodefine.h.29.14c6f50dce37432a7d004e4b1ce33da7
                           .group:00000000 wm4.bsc_iodefine.h.29.9281d1f3639266933964d6d0c2d42c4f
                           .group:00000000 wm4.ceu_iodefine.h.29.2a669d0b46fdde030a50db9e3c307fbf
                           .group:00000000 wm4.cpg_iodefine.h.29.d6fdc9cb4798723afd88b251d64c2ce2
                           .group:00000000 wm4.csi2link_iodefine.h.29.221c4531636a409f24d307b16341ada8
                           .group:00000000 wm4.dmac_iodefine.h.29.578fccc2cc1da886ec95a029bf874f01
                           .group:00000000 wm4.drpk_iodefine.h.29.580eb8588a2b2d43d2726fbe791e513f
                           .group:00000000 wm4.drw_iodefine.h.29.df30f4a4a34a79f6a86c4df91353dffe
                           .group:00000000 wm4.edmac_iodefine.h.29.33e8759349004a722f42f5429c1353f6
                           .group:00000000 wm4.eptpc_iodefine.h.29.74d8f9fab0f5549b56097fb9e937dde8
                           .group:00000000 wm4.etherc_iodefine.h.29.14602750383a574f1c21f994ad33a366
                           .group:00000000 wm4.gpio_iodefine.h.29.3d0b021c56839cee4ae5149903684e4b
                           .group:00000000 wm4.gpt_iodefine.h.29.557ead75d7b0585b898d3898b64c7f87
                           .group:00000000 wm4.hyper_iodefine.h.29.000caadbb74d881e97db55b39b432154
                           .group:00000000 wm4.imr_iodefine.h.29.77c022f017e711c4d51cc0145db1dad3
                           .group:00000000 wm4.intc_iodefine.h.29.b68f5799a35a7495d63b4cd458e1ba57
                           .group:00000000 wm4.irda_iodefine.h.29.37e67bd2005173d68a74d1cc937d8444
                           .group:00000000 wm4.jcu_iodefine.h.29.3aca452908962e7a7ccf26164751feda
                           .group:00000000 wm4.lvds_iodefine.h.29.c11cbe1900e5209c8dcc76c2336c16bc
                           .group:00000000 wm4.mtu_iodefine.h.29.5498fb974bb53caf05aa143c2deec781
                           .group:00000000 wm4.nandc_iodefine.h.29.e0b343306750f017ee86e169ad98efe9
                           .group:00000000 wm4.octa_iodefine.h.29.4cb0d62e4b9633e173858000dc1c626c
                           .group:00000000 wm4.ostm_iodefine.h.29.6914f7e330a1cf0008b34219adcdfed4
                           .group:00000000 wm4.pl_iodefine.h.29.abbb6d725aed990aa8343242bfe31416
                           .group:00000000 wm4.pmg_iodefine.h.29.8bcfbc4771a6f9b7dd4d6f504427219e
                           .group:00000000 wm4.poeg_iodefine.h.29.0d8e258d10986260cbc70cfb8c0ef273
                           .group:00000000 wm4.poe_iodefine.h.29.fe74e55e7b6b4afbe3596c74ba035e98
                           .group:00000000 wm4.prr_iodefine.h.29.c1f15576f7a27b9c83aa3b40f5b2f988
                           .group:00000000 wm4.ptpedmac_iodefine.h.29.cd24a93374ce35cebc41e26889d619ef
                           .group:00000000 wm4.rcanfd_iodefine.h.29.532dd48b82fcb61d63538aba4b6f1289
                           .group:00000000 wm4.rcan_iodefine.h.29.a47a89db1b35c12b54af48fa1956acba
                           .group:00000000 wm4.riic_iodefine.h.29.f96943d49800d297612c4af3bba5c943
                           .group:00000000 wm4.rspi_iodefine.h.29.7efa041fe34a7d27db66a7b337879dfe
                           .group:00000000 wm4.rtc_iodefine.h.29.6dc76be5ca3df69cecb5a81d06cc46b5
                           .group:00000000 wm4.scifa_iodefine.h.29.b04ccd664d71baaf31c75761c45b9c4d
                           .group:00000000 wm4.scim_iodefine.h.29.87d0760abf94446b00d826c797bf0ff2
                           .group:00000000 wm4.sdmmc_iodefine.h.29.e67e9815445e8057a3262d1566bea0db
                           .group:00000000 wm4.spdif_iodefine.h.29.59f5d70150fa200a4d8ee50be1ee34c8
                           .group:00000000 wm4.spibsc_iodefine.h.29.f4930f8b8da1140200204513a363c76f
                           .group:00000000 wm4.sprite_iodefine.h.29.55796d1fa083a2457fea4ece974a192e
                           .group:00000000 wm4.ssif_iodefine.h.29.054ec6d95f487f631f16aee39c85c47a
                           .group:00000000 wm4.usb_iodefine.h.29.6dc44ea388ba227e8fdcfb33c315887b
                           .group:00000000 wm4.vdc_iodefine.h.29.db282ded1f052d8567fbbd3b61ce8f7a
                           .group:00000000 wm4.vin_iodefine.h.29.9b392e5601347d53e64be3272934e170
                           .group:00000000 wm4.wdt_iodefine.h.29.ed07bb44b797072f8c28b41c64fdca30
                           .group:00000000 wm4.r_gpio_lld_rza2m.h.35.fd76d0816769697a06dd6f4a61c03021
                           .group:00000000 wm4.r_gpio_drv_api.h.82.9514441e942567d0eb0b23efaff62239
                           .group:00000000 wm4.r_rza2m_riic_lld_cfg.h.34.420dadece52c9d581310a82d03ef7a9c
                           .group:00000000 wm4.r_rza2m_riic_lld_api.h.36.257568f35d71ef671e1e6c1a84726b52
                           .group:00000000 wm4.r_riic_drv_sc_cfg.h.61.5b602d36b67415ece823db1792791a3e
                           .group:00000000 wm4.r_riic_drv_api.h.81.52108f39a1934d4984f63d783c47245a
                           .group:00000000 wm4.r_riic_hld_prv.h.63.1956f8dba580a3079e75aa1856078b51

UNDEFINED SYMBOLS
direct_open
direct_control
direct_close
R_RIIC_DetectTimeoutStart
R_RIIC_DetectTimeoutStop
R_RIIC_ReleaseLowHold
R_RIIC_IsBusBusy
R_RIIC_TransmitStart
R_RIIC_WriteByte
R_RIIC_TransmitRestart
R_RIIC_ReadByte
R_RIIC_TransmitAck
R_RIIC_AssertLowHold
R_RIIC_TransmitNack
R_RIIC_TransmitStop
validate_channel
R_RIIC_CloseChannel
